
mt-matmul.riscv:     file format elf64-littleriscv


Disassembly of section .text:

0000000000000100 <user_trap_entry>:
     100:	2940006f          	j	394 <trap_entry>
     104:	00000013          	nop
     108:	00000013          	nop
     10c:	00000013          	nop
     110:	00000013          	nop
     114:	00000013          	nop
     118:	00000013          	nop
     11c:	00000013          	nop
     120:	00000013          	nop
     124:	00000013          	nop
     128:	00000013          	nop
     12c:	00000013          	nop
     130:	00000013          	nop
     134:	00000013          	nop
     138:	00000013          	nop
     13c:	00000013          	nop

0000000000000140 <supervisor_trap_entry>:
     140:	0000006f          	j	140 <supervisor_trap_entry>
     144:	00000013          	nop
     148:	00000013          	nop
     14c:	00000013          	nop
     150:	00000013          	nop
     154:	00000013          	nop
     158:	00000013          	nop
     15c:	00000013          	nop
     160:	00000013          	nop
     164:	00000013          	nop
     168:	00000013          	nop
     16c:	00000013          	nop
     170:	00000013          	nop
     174:	00000013          	nop
     178:	00000013          	nop
     17c:	00000013          	nop

0000000000000180 <hypervisor_trap_entry>:
     180:	0000006f          	j	180 <hypervisor_trap_entry>
     184:	00000013          	nop
     188:	00000013          	nop
     18c:	00000013          	nop
     190:	00000013          	nop
     194:	00000013          	nop
     198:	00000013          	nop
     19c:	00000013          	nop
     1a0:	00000013          	nop
     1a4:	00000013          	nop
     1a8:	00000013          	nop
     1ac:	00000013          	nop
     1b0:	00000013          	nop
     1b4:	00000013          	nop
     1b8:	00000013          	nop
     1bc:	00000013          	nop

00000000000001c0 <machine_trap_entry>:
     1c0:	1d40006f          	j	394 <trap_entry>
     1c4:	00000013          	nop
     1c8:	00000013          	nop
     1cc:	00000013          	nop
     1d0:	00000013          	nop
     1d4:	00000013          	nop
     1d8:	00000013          	nop
     1dc:	00000013          	nop
     1e0:	00000013          	nop
     1e4:	00000013          	nop
     1e8:	00000013          	nop
     1ec:	00000013          	nop
     1f0:	00000013          	nop
     1f4:	00000013          	nop
     1f8:	00000013          	nop
     1fc:	00000013          	nop

0000000000000200 <_start>:
     200:	00000093          	li	ra,0
     204:	00000113          	li	sp,0
     208:	00000193          	li	gp,0
     20c:	00000213          	li	tp,0
     210:	00000293          	li	t0,0
     214:	00000313          	li	t1,0
     218:	00000393          	li	t2,0
     21c:	00000413          	li	s0,0
     220:	00000493          	li	s1,0
     224:	00000513          	li	a0,0
     228:	00000593          	li	a1,0
     22c:	00000613          	li	a2,0
     230:	00000693          	li	a3,0
     234:	00000713          	li	a4,0
     238:	00000793          	li	a5,0
     23c:	00000813          	li	a6,0
     240:	00000893          	li	a7,0
     244:	00000913          	li	s2,0
     248:	00000993          	li	s3,0
     24c:	00000a13          	li	s4,0
     250:	00000a93          	li	s5,0
     254:	00000b13          	li	s6,0
     258:	00000b93          	li	s7,0
     25c:	00000c13          	li	s8,0
     260:	00000c93          	li	s9,0
     264:	00000d13          	li	s10,0
     268:	00000d93          	li	s11,0
     26c:	00000e13          	li	t3,0
     270:	00000e93          	li	t4,0
     274:	00000f13          	li	t5,0
     278:	00000f93          	li	t6,0
     27c:	03000293          	li	t0,48
     280:	3002b073          	csrc	mstatus,t0
     284:	00800293          	li	t0,8
     288:	3002a073          	csrs	mstatus,t0
     28c:	000032b7          	lui	t0,0x3
     290:	3002a073          	csrs	mstatus,t0
     294:	0000c2b7          	lui	t0,0xc
     298:	3002a073          	csrs	mstatus,t0
     29c:	f00022f3          	csrr	t0,mcpuid
     2a0:	0002c663          	bltz	t0,2ac <_start+0xac>
     2a4:	4d200513          	li	a0,1234
     2a8:	0150006f          	j	abc <tohost_exit>
     2ac:	300022f3          	csrr	t0,mstatus
     2b0:	0000c337          	lui	t1,0xc
     2b4:	0062f333          	and	t1,t0,t1
     2b8:	00007397          	auipc	t2,0x7
     2bc:	4263a023          	sw	t1,1056(t2) # 76d8 <have_vec>
     2c0:	00003337          	lui	t1,0x3
     2c4:	0062f333          	and	t1,t0,t1
     2c8:	08030463          	beqz	t1,350 <_start+0x150>
     2cc:	00301073          	fssr	zero
     2d0:	f0000053          	fmv.s.x	ft0,zero
     2d4:	f00000d3          	fmv.s.x	ft1,zero
     2d8:	f0000153          	fmv.s.x	ft2,zero
     2dc:	f00001d3          	fmv.s.x	ft3,zero
     2e0:	f0000253          	fmv.s.x	ft4,zero
     2e4:	f00002d3          	fmv.s.x	ft5,zero
     2e8:	f0000353          	fmv.s.x	ft6,zero
     2ec:	f00003d3          	fmv.s.x	ft7,zero
     2f0:	f0000453          	fmv.s.x	fs0,zero
     2f4:	f00004d3          	fmv.s.x	fs1,zero
     2f8:	f0000553          	fmv.s.x	fa0,zero
     2fc:	f00005d3          	fmv.s.x	fa1,zero
     300:	f0000653          	fmv.s.x	fa2,zero
     304:	f00006d3          	fmv.s.x	fa3,zero
     308:	f0000753          	fmv.s.x	fa4,zero
     30c:	f00007d3          	fmv.s.x	fa5,zero
     310:	f0000853          	fmv.s.x	fa6,zero
     314:	f00008d3          	fmv.s.x	fa7,zero
     318:	f0000953          	fmv.s.x	fs2,zero
     31c:	f00009d3          	fmv.s.x	fs3,zero
     320:	f0000a53          	fmv.s.x	fs4,zero
     324:	f0000ad3          	fmv.s.x	fs5,zero
     328:	f0000b53          	fmv.s.x	fs6,zero
     32c:	f0000bd3          	fmv.s.x	fs7,zero
     330:	f0000c53          	fmv.s.x	fs8,zero
     334:	f0000cd3          	fmv.s.x	fs9,zero
     338:	f0000d53          	fmv.s.x	fs10,zero
     33c:	f0000dd3          	fmv.s.x	fs11,zero
     340:	f0000e53          	fmv.s.x	ft8,zero
     344:	f0000ed3          	fmv.s.x	ft9,zero
     348:	f0000f53          	fmv.s.x	ft10,zero
     34c:	f0000fd3          	fmv.s.x	ft11,zero
     350:	00008197          	auipc	gp,0x8
     354:	87818193          	addi	gp,gp,-1928 # 7bc8 <_gp>
     358:	00009217          	auipc	tp,0x9
     35c:	4e720213          	addi	tp,tp,1255 # 983f <_end+0x3f>
     360:	fc027213          	andi	tp,tp,-64
     364:	f1002573          	csrr	a0,mhartid
     368:	00100593          	li	a1,1
     36c:	00b57063          	bleu	a1,a0,36c <_start+0x16c>
     370:	01151613          	slli	a2,a0,0x11
     374:	00c20233          	add	tp,tp,a2
     378:	00150113          	addi	sp,a0,1
     37c:	01111113          	slli	sp,sp,0x11
     380:	00410133          	add	sp,sp,tp
     384:	00001297          	auipc	t0,0x1
     388:	c0428293          	addi	t0,t0,-1020 # f88 <_init>
     38c:	34129073          	csrw	mepc,t0
     390:	10000073          	eret

0000000000000394 <trap_entry>:
     394:	ef010113          	addi	sp,sp,-272
     398:	00113423          	sd	ra,8(sp)
     39c:	00213823          	sd	sp,16(sp)
     3a0:	00313c23          	sd	gp,24(sp)
     3a4:	02413023          	sd	tp,32(sp)
     3a8:	02513423          	sd	t0,40(sp)
     3ac:	02613823          	sd	t1,48(sp)
     3b0:	02713c23          	sd	t2,56(sp)
     3b4:	04813023          	sd	s0,64(sp)
     3b8:	04913423          	sd	s1,72(sp)
     3bc:	04a13823          	sd	a0,80(sp)
     3c0:	04b13c23          	sd	a1,88(sp)
     3c4:	06c13023          	sd	a2,96(sp)
     3c8:	06d13423          	sd	a3,104(sp)
     3cc:	06e13823          	sd	a4,112(sp)
     3d0:	06f13c23          	sd	a5,120(sp)
     3d4:	09013023          	sd	a6,128(sp)
     3d8:	09113423          	sd	a7,136(sp)
     3dc:	09213823          	sd	s2,144(sp)
     3e0:	09313c23          	sd	s3,152(sp)
     3e4:	0b413023          	sd	s4,160(sp)
     3e8:	0b513423          	sd	s5,168(sp)
     3ec:	0b613823          	sd	s6,176(sp)
     3f0:	0b713c23          	sd	s7,184(sp)
     3f4:	0d813023          	sd	s8,192(sp)
     3f8:	0d913423          	sd	s9,200(sp)
     3fc:	0da13823          	sd	s10,208(sp)
     400:	0db13c23          	sd	s11,216(sp)
     404:	0fc13023          	sd	t3,224(sp)
     408:	0fd13423          	sd	t4,232(sp)
     40c:	0fe13823          	sd	t5,240(sp)
     410:	0ff13c23          	sd	t6,248(sp)
     414:	34202573          	csrr	a0,mcause
     418:	341025f3          	csrr	a1,mepc
     41c:	00010613          	mv	a2,sp
     420:	6ac000ef          	jal	acc <handle_trap>
     424:	34151073          	csrw	mepc,a0
     428:	00813083          	ld	ra,8(sp)
     42c:	01013103          	ld	sp,16(sp)
     430:	01813183          	ld	gp,24(sp)
     434:	02013203          	ld	tp,32(sp)
     438:	02813283          	ld	t0,40(sp)
     43c:	03013303          	ld	t1,48(sp)
     440:	03813383          	ld	t2,56(sp)
     444:	04013403          	ld	s0,64(sp)
     448:	04813483          	ld	s1,72(sp)
     44c:	05013503          	ld	a0,80(sp)
     450:	05813583          	ld	a1,88(sp)
     454:	06013603          	ld	a2,96(sp)
     458:	06813683          	ld	a3,104(sp)
     45c:	07013703          	ld	a4,112(sp)
     460:	07813783          	ld	a5,120(sp)
     464:	08013803          	ld	a6,128(sp)
     468:	08813883          	ld	a7,136(sp)
     46c:	09013903          	ld	s2,144(sp)
     470:	09813983          	ld	s3,152(sp)
     474:	0a013a03          	ld	s4,160(sp)
     478:	0a813a83          	ld	s5,168(sp)
     47c:	0b013b03          	ld	s6,176(sp)
     480:	0b813b83          	ld	s7,184(sp)
     484:	0c013c03          	ld	s8,192(sp)
     488:	0c813c83          	ld	s9,200(sp)
     48c:	0d013d03          	ld	s10,208(sp)
     490:	0d813d83          	ld	s11,216(sp)
     494:	0e013e03          	ld	t3,224(sp)
     498:	0e813e83          	ld	t4,232(sp)
     49c:	0f013f03          	ld	t5,240(sp)
     4a0:	0f813f83          	ld	t6,248(sp)
     4a4:	11010113          	addi	sp,sp,272
     4a8:	10000073          	eret

00000000000004ac <barrier>:
     4ac:	0330000f          	fence	rw,rw
     4b0:	00022683          	lw	a3,0(tp) # 0 <_tdata_begin>
     4b4:	00100613          	li	a2,1
     4b8:	0016b693          	seqz	a3,a3
     4bc:	00d22023          	sw	a3,0(tp) # 0 <_tdata_begin>
     4c0:	b0c18593          	addi	a1,gp,-1268 # 76d4 <count.3066>
     4c4:	06c5a6af          	amoadd.w.sc	a3,a2,(a1)
     4c8:	fff5051b          	addiw	a0,a0,-1
     4cc:	00a68c63          	beq	a3,a0,4e4 <barrier+0x38>
     4d0:	00022683          	lw	a3,0(tp) # 0 <_tdata_begin>
     4d4:	b081a783          	lw	a5,-1272(gp) # 76d0 <sense.3065>
     4d8:	fed79ee3          	bne	a5,a3,4d4 <barrier+0x28>
     4dc:	0330000f          	fence	rw,rw
     4e0:	00008067          	ret
     4e4:	00022683          	lw	a3,0(tp) # 0 <_tdata_begin>
     4e8:	b001a623          	sw	zero,-1268(gp) # 76d4 <count.3066>
     4ec:	b0d1a423          	sw	a3,-1272(gp) # 76d0 <sense.3065>
     4f0:	fedff06f          	j	4dc <barrier+0x30>

00000000000004f4 <thread_entry>:
     4f4:	fd010113          	addi	sp,sp,-48
     4f8:	00913c23          	sd	s1,24(sp)
     4fc:	01213823          	sd	s2,16(sp)
     500:	02113423          	sd	ra,40(sp)
     504:	02813023          	sd	s0,32(sp)
     508:	01313423          	sd	s3,8(sp)
     50c:	01413023          	sd	s4,0(sp)
     510:	00050493          	mv	s1,a0
     514:	00058913          	mv	s2,a1
     518:	c0002a73          	rdcycle	s4
     51c:	c02029f3          	rdinstret	s3
     520:	00001737          	lui	a4,0x1
     524:	000036b7          	lui	a3,0x3
     528:	b1818793          	addi	a5,gp,-1256 # 76e0 <results_data.3086>
     52c:	3c870713          	addi	a4,a4,968 # 13c8 <input2_data>
     530:	3c868693          	addi	a3,a3,968 # 33c8 <input1_data>
     534:	02000613          	li	a2,32
     538:	0b8000ef          	jal	5f0 <matmul>
     53c:	00090513          	mv	a0,s2
     540:	f6dff0ef          	jal	4ac <barrier>
     544:	c00028f3          	rdcycle	a7
     548:	c02027f3          	rdinstret	a5
     54c:	06048063          	beqz	s1,5ac <thread_entry+0xb8>
     550:	000056b7          	lui	a3,0x5
     554:	b1818713          	addi	a4,gp,-1256 # 76e0 <results_data.3086>
     558:	3c868693          	addi	a3,a3,968 # 53c8 <verify_data>
     55c:	00000593          	li	a1,0
     560:	40000513          	li	a0,1024
     564:	00073787          	fld	fa5,0(a4)
     568:	0006b607          	fld	fa2,0(a3)
     56c:	00873687          	fld	fa3,8(a4)
     570:	0086b707          	fld	fa4,8(a3)
     574:	a2f627d3          	feq.d	a5,fa2,fa5
     578:	a2d72653          	feq.d	a2,fa4,fa3
     57c:	0017f793          	andi	a5,a5,1
     580:	02060063          	beqz	a2,5a0 <thread_entry+0xac>
     584:	00078e63          	beqz	a5,5a0 <thread_entry+0xac>
     588:	0025859b          	addiw	a1,a1,2
     58c:	01070713          	addi	a4,a4,16
     590:	01068693          	addi	a3,a3,16
     594:	fca598e3          	bne	a1,a0,564 <thread_entry+0x70>
     598:	00000513          	li	a0,0
     59c:	061000ef          	jal	dfc <exit>
     5a0:	0015859b          	addiw	a1,a1,1
     5a4:	00f5853b          	addw	a0,a1,a5
     5a8:	ff5ff06f          	j	59c <thread_entry+0xa8>
     5ac:	414888b3          	sub	a7,a7,s4
     5b0:	00a00713          	li	a4,10
     5b4:	02e88333          	mul	t1,a7,a4
     5b8:	413787b3          	sub	a5,a5,s3
     5bc:	000075b7          	lui	a1,0x7
     5c0:	00007537          	lui	a0,0x7
     5c4:	00f8d693          	srli	a3,a7,0xf
     5c8:	00088613          	mv	a2,a7
     5cc:	3d058593          	addi	a1,a1,976 # 73d0 <verify_data+0x2008>
     5d0:	42050513          	addi	a0,a0,1056 # 7420 <verify_data+0x2058>
     5d4:	02f35833          	divu	a6,t1,a5
     5d8:	00f35313          	srli	t1,t1,0xf
     5dc:	02e87833          	remu	a6,a6,a4
     5e0:	02f8d7b3          	divu	a5,a7,a5
     5e4:	02e37733          	remu	a4,t1,a4
     5e8:	0e9000ef          	jal	ed0 <printf>
     5ec:	f65ff06f          	j	550 <thread_entry+0x5c>

00000000000005f0 <matmul>:
     5f0:	02b645bb          	divw	a1,a2,a1
     5f4:	02a5853b          	mulw	a0,a1,a0
     5f8:	00a58fbb          	addw	t6,a1,a0
     5fc:	07f55e63          	ble	t6,a0,678 <matmul+0x88>
     600:	02a60f3b          	mulw	t5,a2,a0
     604:	00361e93          	slli	t4,a2,0x3
     608:	003f1f13          	slli	t5,t5,0x3
     60c:	01e78e33          	add	t3,a5,t5
     610:	01e68f33          	add	t5,a3,t5
     614:	04c05863          	blez	a2,664 <matmul+0x74>
     618:	00070313          	mv	t1,a4
     61c:	000f0813          	mv	a6,t5
     620:	00000893          	li	a7,0
     624:	00030593          	mv	a1,t1
     628:	000e0793          	mv	a5,t3
     62c:	00000693          	li	a3,0
     630:	0005b687          	fld	fa3,0(a1)
     634:	0007b707          	fld	fa4,0(a5)
     638:	00083787          	fld	fa5,0(a6)
     63c:	00878793          	addi	a5,a5,8
     640:	0016869b          	addiw	a3,a3,1
     644:	72d7f7c3          	fmadd.d	fa5,fa5,fa3,fa4
     648:	00858593          	addi	a1,a1,8
     64c:	fef7bc27          	fsd	fa5,-8(a5)
     650:	fed610e3          	bne	a2,a3,630 <matmul+0x40>
     654:	0018889b          	addiw	a7,a7,1
     658:	01d30333          	add	t1,t1,t4
     65c:	00880813          	addi	a6,a6,8
     660:	fd1612e3          	bne	a2,a7,624 <matmul+0x34>
     664:	0015051b          	addiw	a0,a0,1
     668:	01de0e33          	add	t3,t3,t4
     66c:	01df0f33          	add	t5,t5,t4
     670:	fbf512e3          	bne	a0,t6,614 <matmul+0x24>
     674:	00008067          	ret
     678:	00008067          	ret

000000000000067c <putchar>:
     67c:	08022603          	lw	a2,128(tp) # 80 <buflen.2849>
     680:	00060813          	mv	a6,a2
     684:	04020793          	addi	a5,tp,64 # 40 <buf.2848>
     688:	010787b3          	add	a5,a5,a6
     68c:	0016061b          	addiw	a2,a2,1
     690:	00a78023          	sb	a0,0(a5)
     694:	08c22023          	sw	a2,128(tp) # 80 <buflen.2849>
     698:	00a00793          	li	a5,10
     69c:	00f50a63          	beq	a0,a5,6b0 <putchar+0x34>
     6a0:	04000793          	li	a5,64
     6a4:	00f60663          	beq	a2,a5,6b0 <putchar+0x34>
     6a8:	00000513          	li	a0,0
     6ac:	00008067          	ret
     6b0:	04000893          	li	a7,64
     6b4:	00100513          	li	a0,1
     6b8:	04020593          	addi	a1,tp,64 # 40 <buf.2848>
     6bc:	00000073          	ecall
     6c0:	08022023          	sw	zero,128(tp) # 80 <buflen.2849>
     6c4:	00000513          	li	a0,0
     6c8:	00008067          	ret

00000000000006cc <sprintf_putch.2963>:
     6cc:	0005b783          	ld	a5,0(a1)
     6d0:	00a78023          	sb	a0,0(a5)
     6d4:	0005b783          	ld	a5,0(a1)
     6d8:	00178793          	addi	a5,a5,1
     6dc:	00f5b023          	sd	a5,0(a1)
     6e0:	00008067          	ret

00000000000006e4 <vprintfmt>:
     6e4:	e8010113          	addi	sp,sp,-384
     6e8:	15413823          	sd	s4,336(sp)
     6ec:	16813823          	sd	s0,368(sp)
     6f0:	16913423          	sd	s1,360(sp)
     6f4:	17213023          	sd	s2,352(sp)
     6f8:	15313c23          	sd	s3,344(sp)
     6fc:	15513423          	sd	s5,328(sp)
     700:	15613023          	sd	s6,320(sp)
     704:	16113c23          	sd	ra,376(sp)
     708:	13713c23          	sd	s7,312(sp)
     70c:	13813823          	sd	s8,304(sp)
     710:	13913423          	sd	s9,296(sp)
     714:	13a13023          	sd	s10,288(sp)
     718:	11b13c23          	sd	s11,280(sp)
     71c:	00050913          	mv	s2,a0
     720:	00058493          	mv	s1,a1
     724:	00060413          	mv	s0,a2
     728:	00068a93          	mv	s5,a3
     72c:	02500993          	li	s3,37
     730:	05500b13          	li	s6,85
     734:	95018a13          	addi	s4,gp,-1712 # 7518 <verify_data+0x2150>
     738:	0140006f          	j	74c <vprintfmt+0x68>
     73c:	04050c63          	beqz	a0,794 <vprintfmt+0xb0>
     740:	00140413          	addi	s0,s0,1
     744:	00048593          	mv	a1,s1
     748:	000900e7          	jalr	s2
     74c:	00044503          	lbu	a0,0(s0)
     750:	ff3516e3          	bne	a0,s3,73c <vprintfmt+0x58>
     754:	00144503          	lbu	a0,1(s0)
     758:	00140b93          	addi	s7,s0,1
     75c:	fff00d93          	li	s11,-1
     760:	000b8713          	mv	a4,s7
     764:	02000d13          	li	s10,32
     768:	000d8c13          	mv	s8,s11
     76c:	00000613          	li	a2,0
     770:	fdd5079b          	addiw	a5,a0,-35
     774:	0ff7f593          	andi	a1,a5,255
     778:	00170413          	addi	s0,a4,1
     77c:	2cbb6663          	bltu	s6,a1,a48 <vprintfmt+0x364>
     780:	0ff7f793          	andi	a5,a5,255
     784:	00279793          	slli	a5,a5,0x2
     788:	014787b3          	add	a5,a5,s4
     78c:	0007a783          	lw	a5,0(a5)
     790:	00078067          	jr	a5
     794:	17813083          	ld	ra,376(sp)
     798:	17013403          	ld	s0,368(sp)
     79c:	16813483          	ld	s1,360(sp)
     7a0:	16013903          	ld	s2,352(sp)
     7a4:	15813983          	ld	s3,344(sp)
     7a8:	15013a03          	ld	s4,336(sp)
     7ac:	14813a83          	ld	s5,328(sp)
     7b0:	14013b03          	ld	s6,320(sp)
     7b4:	13813b83          	ld	s7,312(sp)
     7b8:	13013c03          	ld	s8,304(sp)
     7bc:	12813c83          	ld	s9,296(sp)
     7c0:	12013d03          	ld	s10,288(sp)
     7c4:	11813d83          	ld	s11,280(sp)
     7c8:	18010113          	addi	sp,sp,384
     7cc:	00008067          	ret
     7d0:	000c5463          	bgez	s8,7d8 <vprintfmt+0xf4>
     7d4:	00000c13          	li	s8,0
     7d8:	00174503          	lbu	a0,1(a4)
     7dc:	00040713          	mv	a4,s0
     7e0:	f91ff06f          	j	770 <vprintfmt+0x8c>
     7e4:	00800793          	li	a5,8
     7e8:	00100713          	li	a4,1
     7ec:	2ac75463          	ble	a2,a4,a94 <vprintfmt+0x3b0>
     7f0:	000abd83          	ld	s11,0(s5)
     7f4:	008a8a93          	addi	s5,s5,8
     7f8:	02fdf533          	remu	a0,s11,a5
     7fc:	01410693          	addi	a3,sp,20
     800:	00100c93          	li	s9,1
     804:	00a12823          	sw	a0,16(sp)
     808:	00fdf663          	bleu	a5,s11,814 <vprintfmt+0x130>
     80c:	2980006f          	j	aa4 <vprintfmt+0x3c0>
     810:	000b8c93          	mv	s9,s7
     814:	02fdddb3          	divu	s11,s11,a5
     818:	00468693          	addi	a3,a3,4
     81c:	001c8b9b          	addiw	s7,s9,1
     820:	02fdf5b3          	remu	a1,s11,a5
     824:	feb6ae23          	sw	a1,-4(a3)
     828:	fefdf4e3          	bleu	a5,s11,810 <vprintfmt+0x12c>
     82c:	01912423          	sw	s9,8(sp)
     830:	fffc0d9b          	addiw	s11,s8,-1
     834:	038bd263          	ble	s8,s7,858 <vprintfmt+0x174>
     838:	00048593          	mv	a1,s1
     83c:	000d0513          	mv	a0,s10
     840:	fffd8d9b          	addiw	s11,s11,-1
     844:	000900e7          	jalr	s2
     848:	001d871b          	addiw	a4,s11,1
     84c:	feebc6e3          	blt	s7,a4,838 <vprintfmt+0x154>
     850:	00812c83          	lw	s9,8(sp)
     854:	ef705ce3          	blez	s7,74c <vprintfmt+0x68>
     858:	002c9793          	slli	a5,s9,0x2
     85c:	11010713          	addi	a4,sp,272
     860:	00f707b3          	add	a5,a4,a5
     864:	f007a503          	lw	a0,-256(a5)
     868:	00a53793          	sltiu	a5,a0,10
     86c:	40f007bb          	negw	a5,a5
     870:	fd97f793          	andi	a5,a5,-39
     874:	0577879b          	addiw	a5,a5,87
     878:	00a7853b          	addw	a0,a5,a0
     87c:	00048593          	mv	a1,s1
     880:	fffc8c9b          	addiw	s9,s9,-1
     884:	000900e7          	jalr	s2
     888:	001c879b          	addiw	a5,s9,1
     88c:	fcf046e3          	bgtz	a5,858 <vprintfmt+0x174>
     890:	ebdff06f          	j	74c <vprintfmt+0x68>
     894:	000aad83          	lw	s11,0(s5)
     898:	00174503          	lbu	a0,1(a4)
     89c:	008a8a93          	addi	s5,s5,8
     8a0:	00040713          	mv	a4,s0
     8a4:	ec0c56e3          	bgez	s8,770 <vprintfmt+0x8c>
     8a8:	000d8c13          	mv	s8,s11
     8ac:	fff00d93          	li	s11,-1
     8b0:	ec1ff06f          	j	770 <vprintfmt+0x8c>
     8b4:	00174503          	lbu	a0,1(a4)
     8b8:	02d00d13          	li	s10,45
     8bc:	00040713          	mv	a4,s0
     8c0:	eb1ff06f          	j	770 <vprintfmt+0x8c>
     8c4:	00174503          	lbu	a0,1(a4)
     8c8:	03000d13          	li	s10,48
     8cc:	00040713          	mv	a4,s0
     8d0:	ea1ff06f          	j	770 <vprintfmt+0x8c>
     8d4:	00174783          	lbu	a5,1(a4)
     8d8:	00900693          	li	a3,9
     8dc:	fd050d9b          	addiw	s11,a0,-48
     8e0:	fd07871b          	addiw	a4,a5,-48
     8e4:	00078593          	mv	a1,a5
     8e8:	1ae6e063          	bltu	a3,a4,a88 <vprintfmt+0x3a4>
     8ec:	00040713          	mv	a4,s0
     8f0:	00170713          	addi	a4,a4,1
     8f4:	00074503          	lbu	a0,0(a4)
     8f8:	001d979b          	slliw	a5,s11,0x1
     8fc:	003d9d9b          	slliw	s11,s11,0x3
     900:	01b78dbb          	addw	s11,a5,s11
     904:	00bd8dbb          	addw	s11,s11,a1
     908:	fd05079b          	addiw	a5,a0,-48
     90c:	00900693          	li	a3,9
     910:	fd0d8d9b          	addiw	s11,s11,-48
     914:	00050593          	mv	a1,a0
     918:	fcf6fce3          	bleu	a5,a3,8f0 <vprintfmt+0x20c>
     91c:	f89ff06f          	j	8a4 <vprintfmt+0x1c0>
     920:	000aa503          	lw	a0,0(s5)
     924:	00048593          	mv	a1,s1
     928:	008a8a93          	addi	s5,s5,8
     92c:	000900e7          	jalr	s2
     930:	e1dff06f          	j	74c <vprintfmt+0x68>
     934:	00100793          	li	a5,1
     938:	14c7d063          	ble	a2,a5,a78 <vprintfmt+0x394>
     93c:	000abd83          	ld	s11,0(s5)
     940:	008a8a93          	addi	s5,s5,8
     944:	00a00793          	li	a5,10
     948:	ea0dd8e3          	bgez	s11,7f8 <vprintfmt+0x114>
     94c:	00048593          	mv	a1,s1
     950:	02d00513          	li	a0,45
     954:	00f13423          	sd	a5,8(sp)
     958:	000900e7          	jalr	s2
     95c:	41b00db3          	neg	s11,s11
     960:	00813783          	ld	a5,8(sp)
     964:	e95ff06f          	j	7f8 <vprintfmt+0x114>
     968:	00174503          	lbu	a0,1(a4)
     96c:	0016061b          	addiw	a2,a2,1
     970:	00040713          	mv	a4,s0
     974:	dfdff06f          	j	770 <vprintfmt+0x8c>
     978:	000abb83          	ld	s7,0(s5)
     97c:	008a8a93          	addi	s5,s5,8
     980:	0e0b8663          	beqz	s7,a6c <vprintfmt+0x388>
     984:	05805463          	blez	s8,9cc <vprintfmt+0x2e8>
     988:	02d00713          	li	a4,45
     98c:	0ced0863          	beq	s10,a4,a5c <vprintfmt+0x378>
     990:	000d8593          	mv	a1,s11
     994:	000b8513          	mv	a0,s7
     998:	1c9000ef          	jal	1360 <strnlen>
     99c:	40ac0c3b          	subw	s8,s8,a0
     9a0:	03805663          	blez	s8,9cc <vprintfmt+0x2e8>
     9a4:	000c0c93          	mv	s9,s8
     9a8:	fffc8c9b          	addiw	s9,s9,-1
     9ac:	00048593          	mv	a1,s1
     9b0:	000d0513          	mv	a0,s10
     9b4:	000900e7          	jalr	s2
     9b8:	fe0c98e3          	bnez	s9,9a8 <vprintfmt+0x2c4>
     9bc:	00100793          	li	a5,1
     9c0:	fffc071b          	addiw	a4,s8,-1
     9c4:	4187883b          	subw	a6,a5,s8
     9c8:	00e80c3b          	addw	s8,a6,a4
     9cc:	000bc503          	lbu	a0,0(s7)
     9d0:	d6050ee3          	beqz	a0,74c <vprintfmt+0x68>
     9d4:	fff00d13          	li	s10,-1
     9d8:	000dc663          	bltz	s11,9e4 <vprintfmt+0x300>
     9dc:	fffd8d9b          	addiw	s11,s11,-1
     9e0:	01ad8e63          	beq	s11,s10,9fc <vprintfmt+0x318>
     9e4:	00048593          	mv	a1,s1
     9e8:	001b8b93          	addi	s7,s7,1
     9ec:	000900e7          	jalr	s2
     9f0:	000bc503          	lbu	a0,0(s7)
     9f4:	fffc0c1b          	addiw	s8,s8,-1
     9f8:	fe0510e3          	bnez	a0,9d8 <vprintfmt+0x2f4>
     9fc:	d58058e3          	blez	s8,74c <vprintfmt+0x68>
     a00:	fffc0c1b          	addiw	s8,s8,-1
     a04:	00048593          	mv	a1,s1
     a08:	02000513          	li	a0,32
     a0c:	000900e7          	jalr	s2
     a10:	fe0c18e3          	bnez	s8,a00 <vprintfmt+0x31c>
     a14:	d39ff06f          	j	74c <vprintfmt+0x68>
     a18:	00a00793          	li	a5,10
     a1c:	dcdff06f          	j	7e8 <vprintfmt+0x104>
     a20:	01000793          	li	a5,16
     a24:	dc5ff06f          	j	7e8 <vprintfmt+0x104>
     a28:	03000513          	li	a0,48
     a2c:	00048593          	mv	a1,s1
     a30:	000900e7          	jalr	s2
     a34:	00048593          	mv	a1,s1
     a38:	07800513          	li	a0,120
     a3c:	000900e7          	jalr	s2
     a40:	01000793          	li	a5,16
     a44:	dadff06f          	j	7f0 <vprintfmt+0x10c>
     a48:	00048593          	mv	a1,s1
     a4c:	02500513          	li	a0,37
     a50:	000900e7          	jalr	s2
     a54:	000b8413          	mv	s0,s7
     a58:	cf5ff06f          	j	74c <vprintfmt+0x68>
     a5c:	000bc503          	lbu	a0,0(s7)
     a60:	fa0500e3          	beqz	a0,a00 <vprintfmt+0x31c>
     a64:	fff00d13          	li	s10,-1
     a68:	f71ff06f          	j	9d8 <vprintfmt+0x2f4>
     a6c:	000077b7          	lui	a5,0x7
     a70:	45878b93          	addi	s7,a5,1112 # 7458 <verify_data+0x2090>
     a74:	f11ff06f          	j	984 <vprintfmt+0x2a0>
     a78:	ec0612e3          	bnez	a2,93c <vprintfmt+0x258>
     a7c:	000aad83          	lw	s11,0(s5)
     a80:	008a8a93          	addi	s5,s5,8
     a84:	ec1ff06f          	j	944 <vprintfmt+0x260>
     a88:	00078513          	mv	a0,a5
     a8c:	00040713          	mv	a4,s0
     a90:	e15ff06f          	j	8a4 <vprintfmt+0x1c0>
     a94:	d4061ee3          	bnez	a2,7f0 <vprintfmt+0x10c>
     a98:	000aed83          	lwu	s11,0(s5)
     a9c:	008a8a93          	addi	s5,s5,8
     aa0:	d59ff06f          	j	7f8 <vprintfmt+0x114>
     aa4:	00012423          	sw	zero,8(sp)
     aa8:	00100b93          	li	s7,1
     aac:	fffc0d9b          	addiw	s11,s8,-1
     ab0:	00000c93          	li	s9,0
     ab4:	d98bc2e3          	blt	s7,s8,838 <vprintfmt+0x154>
     ab8:	db1ff06f          	j	868 <vprintfmt+0x184>

0000000000000abc <tohost_exit>:
     abc:	00151513          	slli	a0,a0,0x1
     ac0:	00156793          	ori	a5,a0,1
     ac4:	78079073          	csrw	mtohost,a5
     ac8:	0000006f          	j	ac8 <tohost_exit+0xc>

0000000000000acc <handle_trap>:
     acc:	ff010113          	addi	sp,sp,-16
     ad0:	00813023          	sd	s0,0(sp)
     ad4:	00113423          	sd	ra,8(sp)
     ad8:	00200693          	li	a3,2
     adc:	01010413          	addi	s0,sp,16
     ae0:	0080076f          	jal	a4,ae8 <handle_trap+0x1c>
     ae4:	0c002573          	csrr	a0,stats
     ae8:	f8010113          	addi	sp,sp,-128
     aec:	08d50463          	beq	a0,a3,b74 <handle_trap+0xa8>
     af0:	00800713          	li	a4,8
     af4:	00e50a63          	beq	a0,a4,b08 <handle_trap+0x3c>
     af8:	000017b7          	lui	a5,0x1
     afc:	a7378793          	addi	a5,a5,-1421 # a73 <vprintfmt+0x38f>
     b00:	78079073          	csrw	mtohost,a5
     b04:	0000006f          	j	b04 <handle_trap+0x38>
     b08:	08863703          	ld	a4,136(a2)
     b0c:	05d00693          	li	a3,93
     b10:	2cd70e63          	beq	a4,a3,dec <handle_trap+0x320>
     b14:	4d200693          	li	a3,1234
     b18:	06d70a63          	beq	a4,a3,b8c <handle_trap+0xc0>
     b1c:	05063503          	ld	a0,80(a2)
     b20:	03f10793          	addi	a5,sp,63
     b24:	fc07f793          	andi	a5,a5,-64
     b28:	05863683          	ld	a3,88(a2)
     b2c:	00e7b023          	sd	a4,0(a5)
     b30:	06063703          	ld	a4,96(a2)
     b34:	00a7b423          	sd	a0,8(a5)
     b38:	00d7b823          	sd	a3,16(a5)
     b3c:	00e7bc23          	sd	a4,24(a5)
     b40:	0330000f          	fence	rw,rw
     b44:	78079073          	csrw	mtohost,a5
     b48:	00000713          	li	a4,0
     b4c:	781716f3          	csrrw	a3,mfromhost,a4
     b50:	fe068ee3          	beqz	a3,b4c <handle_trap+0x80>
     b54:	0007b783          	ld	a5,0(a5)
     b58:	ff040113          	addi	sp,s0,-16
     b5c:	00813083          	ld	ra,8(sp)
     b60:	00458513          	addi	a0,a1,4
     b64:	00013403          	ld	s0,0(sp)
     b68:	04f63823          	sd	a5,80(a2)
     b6c:	01010113          	addi	sp,sp,16
     b70:	00008067          	ret
     b74:	00072703          	lw	a4,0(a4)
     b78:	0005a783          	lw	a5,0(a1)
     b7c:	00f777b3          	and	a5,a4,a5
     b80:	f6f71ce3          	bne	a4,a5,af8 <handle_trap+0x2c>
     b84:	00000793          	li	a5,0
     b88:	fd1ff06f          	j	b58 <handle_trap+0x8c>
     b8c:	05062703          	lw	a4,80(a2)
     b90:	00070463          	beqz	a4,b98 <handle_trap+0xcc>
     b94:	0c00e573          	csrrs	a0,stats,1
     b98:	c0002573          	rdcycle	a0
     b9c:	000097b7          	lui	a5,0x9
     ba0:	6e078793          	addi	a5,a5,1760 # 96e0 <counters>
     ba4:	00071c63          	bnez	a4,bbc <handle_trap+0xf0>
     ba8:	0007b683          	ld	a3,0(a5)
     bac:	40d50533          	sub	a0,a0,a3
     bb0:	000076b7          	lui	a3,0x7
     bb4:	46068693          	addi	a3,a3,1120 # 7460 <verify_data+0x2098>
     bb8:	08d7b823          	sd	a3,144(a5)
     bbc:	00a7b023          	sd	a0,0(a5)
     bc0:	c0202573          	rdinstret	a0
     bc4:	00071c63          	bnez	a4,bdc <handle_trap+0x110>
     bc8:	0087b683          	ld	a3,8(a5)
     bcc:	40d50533          	sub	a0,a0,a3
     bd0:	000076b7          	lui	a3,0x7
     bd4:	46868693          	addi	a3,a3,1128 # 7468 <verify_data+0x20a0>
     bd8:	08d7bc23          	sd	a3,152(a5)
     bdc:	00a7b423          	sd	a0,8(a5)
     be0:	cc002573          	csrr	a0,uarch0
     be4:	00071c63          	bnez	a4,bfc <handle_trap+0x130>
     be8:	0107b683          	ld	a3,16(a5)
     bec:	40d50533          	sub	a0,a0,a3
     bf0:	000076b7          	lui	a3,0x7
     bf4:	47068693          	addi	a3,a3,1136 # 7470 <verify_data+0x20a8>
     bf8:	0ad7b023          	sd	a3,160(a5)
     bfc:	00a7b823          	sd	a0,16(a5)
     c00:	cc102573          	csrr	a0,uarch1
     c04:	00071c63          	bnez	a4,c1c <handle_trap+0x150>
     c08:	0187b683          	ld	a3,24(a5)
     c0c:	40d50533          	sub	a0,a0,a3
     c10:	000076b7          	lui	a3,0x7
     c14:	47868693          	addi	a3,a3,1144 # 7478 <verify_data+0x20b0>
     c18:	0ad7b423          	sd	a3,168(a5)
     c1c:	00a7bc23          	sd	a0,24(a5)
     c20:	cc202573          	csrr	a0,uarch2
     c24:	00071c63          	bnez	a4,c3c <handle_trap+0x170>
     c28:	0207b683          	ld	a3,32(a5)
     c2c:	40d50533          	sub	a0,a0,a3
     c30:	000076b7          	lui	a3,0x7
     c34:	48068693          	addi	a3,a3,1152 # 7480 <verify_data+0x20b8>
     c38:	0ad7b823          	sd	a3,176(a5)
     c3c:	02a7b023          	sd	a0,32(a5)
     c40:	cc302573          	csrr	a0,uarch3
     c44:	00071c63          	bnez	a4,c5c <handle_trap+0x190>
     c48:	0287b683          	ld	a3,40(a5)
     c4c:	40d50533          	sub	a0,a0,a3
     c50:	000076b7          	lui	a3,0x7
     c54:	48868693          	addi	a3,a3,1160 # 7488 <verify_data+0x20c0>
     c58:	0ad7bc23          	sd	a3,184(a5)
     c5c:	02a7b423          	sd	a0,40(a5)
     c60:	cc402573          	csrr	a0,uarch4
     c64:	00071c63          	bnez	a4,c7c <handle_trap+0x1b0>
     c68:	0307b683          	ld	a3,48(a5)
     c6c:	40d50533          	sub	a0,a0,a3
     c70:	000076b7          	lui	a3,0x7
     c74:	49068693          	addi	a3,a3,1168 # 7490 <verify_data+0x20c8>
     c78:	0cd7b023          	sd	a3,192(a5)
     c7c:	02a7b823          	sd	a0,48(a5)
     c80:	cc502573          	csrr	a0,uarch5
     c84:	00071c63          	bnez	a4,c9c <handle_trap+0x1d0>
     c88:	0387b683          	ld	a3,56(a5)
     c8c:	40d50533          	sub	a0,a0,a3
     c90:	000076b7          	lui	a3,0x7
     c94:	49868693          	addi	a3,a3,1176 # 7498 <verify_data+0x20d0>
     c98:	0cd7b423          	sd	a3,200(a5)
     c9c:	02a7bc23          	sd	a0,56(a5)
     ca0:	cc602573          	csrr	a0,uarch6
     ca4:	00071c63          	bnez	a4,cbc <handle_trap+0x1f0>
     ca8:	0407b683          	ld	a3,64(a5)
     cac:	40d50533          	sub	a0,a0,a3
     cb0:	000076b7          	lui	a3,0x7
     cb4:	4a068693          	addi	a3,a3,1184 # 74a0 <verify_data+0x20d8>
     cb8:	0cd7b823          	sd	a3,208(a5)
     cbc:	04a7b023          	sd	a0,64(a5)
     cc0:	cc702573          	csrr	a0,uarch7
     cc4:	00071c63          	bnez	a4,cdc <handle_trap+0x210>
     cc8:	0487b683          	ld	a3,72(a5)
     ccc:	40d50533          	sub	a0,a0,a3
     cd0:	000076b7          	lui	a3,0x7
     cd4:	4a868693          	addi	a3,a3,1192 # 74a8 <verify_data+0x20e0>
     cd8:	0cd7bc23          	sd	a3,216(a5)
     cdc:	04a7b423          	sd	a0,72(a5)
     ce0:	cc802573          	csrr	a0,uarch8
     ce4:	00071c63          	bnez	a4,cfc <handle_trap+0x230>
     ce8:	0507b683          	ld	a3,80(a5)
     cec:	40d50533          	sub	a0,a0,a3
     cf0:	000076b7          	lui	a3,0x7
     cf4:	4b068693          	addi	a3,a3,1200 # 74b0 <verify_data+0x20e8>
     cf8:	0ed7b023          	sd	a3,224(a5)
     cfc:	04a7b823          	sd	a0,80(a5)
     d00:	cc902573          	csrr	a0,uarch9
     d04:	00071c63          	bnez	a4,d1c <handle_trap+0x250>
     d08:	0587b683          	ld	a3,88(a5)
     d0c:	40d50533          	sub	a0,a0,a3
     d10:	000076b7          	lui	a3,0x7
     d14:	4b868693          	addi	a3,a3,1208 # 74b8 <verify_data+0x20f0>
     d18:	0ed7b423          	sd	a3,232(a5)
     d1c:	04a7bc23          	sd	a0,88(a5)
     d20:	cca02573          	csrr	a0,uarch10
     d24:	00071c63          	bnez	a4,d3c <handle_trap+0x270>
     d28:	0607b683          	ld	a3,96(a5)
     d2c:	40d50533          	sub	a0,a0,a3
     d30:	000076b7          	lui	a3,0x7
     d34:	4c068693          	addi	a3,a3,1216 # 74c0 <verify_data+0x20f8>
     d38:	0ed7b823          	sd	a3,240(a5)
     d3c:	06a7b023          	sd	a0,96(a5)
     d40:	ccb02573          	csrr	a0,uarch11
     d44:	00071c63          	bnez	a4,d5c <handle_trap+0x290>
     d48:	0687b683          	ld	a3,104(a5)
     d4c:	40d50533          	sub	a0,a0,a3
     d50:	000076b7          	lui	a3,0x7
     d54:	4c868693          	addi	a3,a3,1224 # 74c8 <verify_data+0x2100>
     d58:	0ed7bc23          	sd	a3,248(a5)
     d5c:	06a7b423          	sd	a0,104(a5)
     d60:	ccc02573          	csrr	a0,uarch12
     d64:	00071c63          	bnez	a4,d7c <handle_trap+0x2b0>
     d68:	0707b683          	ld	a3,112(a5)
     d6c:	40d50533          	sub	a0,a0,a3
     d70:	000076b7          	lui	a3,0x7
     d74:	4d068693          	addi	a3,a3,1232 # 74d0 <verify_data+0x2108>
     d78:	10d7b023          	sd	a3,256(a5)
     d7c:	06a7b823          	sd	a0,112(a5)
     d80:	ccd02573          	csrr	a0,uarch13
     d84:	00071c63          	bnez	a4,d9c <handle_trap+0x2d0>
     d88:	0787b683          	ld	a3,120(a5)
     d8c:	40d50533          	sub	a0,a0,a3
     d90:	000076b7          	lui	a3,0x7
     d94:	4d868693          	addi	a3,a3,1240 # 74d8 <verify_data+0x2110>
     d98:	10d7b423          	sd	a3,264(a5)
     d9c:	06a7bc23          	sd	a0,120(a5)
     da0:	cce02573          	csrr	a0,uarch14
     da4:	00071c63          	bnez	a4,dbc <handle_trap+0x2f0>
     da8:	0807b683          	ld	a3,128(a5)
     dac:	40d50533          	sub	a0,a0,a3
     db0:	000076b7          	lui	a3,0x7
     db4:	4e068693          	addi	a3,a3,1248 # 74e0 <verify_data+0x2118>
     db8:	10d7b823          	sd	a3,272(a5)
     dbc:	08a7b023          	sd	a0,128(a5)
     dc0:	ccf02573          	csrr	a0,uarch15
     dc4:	02071863          	bnez	a4,df4 <handle_trap+0x328>
     dc8:	0887b703          	ld	a4,136(a5)
     dcc:	40e50533          	sub	a0,a0,a4
     dd0:	00007737          	lui	a4,0x7
     dd4:	4e870713          	addi	a4,a4,1256 # 74e8 <verify_data+0x2120>
     dd8:	10e7bc23          	sd	a4,280(a5)
     ddc:	08a7b423          	sd	a0,136(a5)
     de0:	0c00f573          	csrrc	a0,stats,1
     de4:	00000793          	li	a5,0
     de8:	d71ff06f          	j	b58 <handle_trap+0x8c>
     dec:	05063503          	ld	a0,80(a2)
     df0:	ccdff0ef          	jal	abc <tohost_exit>
     df4:	08a7b423          	sd	a0,136(a5)
     df8:	d8dff06f          	j	b84 <handle_trap+0xb8>

0000000000000dfc <exit>:
     dfc:	05d00893          	li	a7,93
     e00:	00000593          	li	a1,0
     e04:	00000613          	li	a2,0
     e08:	00000073          	ecall
     e0c:	0000006f          	j	e0c <exit+0x10>

0000000000000e10 <setStats>:
     e10:	4d200893          	li	a7,1234
     e14:	00000593          	li	a1,0
     e18:	00000613          	li	a2,0
     e1c:	00000073          	ecall
     e20:	00008067          	ret

0000000000000e24 <printstr>:
     e24:	ff010113          	addi	sp,sp,-16
     e28:	00813023          	sd	s0,0(sp)
     e2c:	00113423          	sd	ra,8(sp)
     e30:	00050413          	mv	s0,a0
     e34:	45c000ef          	jal	1290 <strlen>
     e38:	00050613          	mv	a2,a0
     e3c:	04000893          	li	a7,64
     e40:	00100513          	li	a0,1
     e44:	00040593          	mv	a1,s0
     e48:	00000073          	ecall
     e4c:	00813083          	ld	ra,8(sp)
     e50:	00013403          	ld	s0,0(sp)
     e54:	01010113          	addi	sp,sp,16
     e58:	00008067          	ret
     e5c:	00050463          	beqz	a0,e64 <printstr+0x40>
     e60:	0000006f          	j	e60 <printstr+0x3c>
     e64:	00008067          	ret

0000000000000e68 <printhex>:
     e68:	fd010113          	addi	sp,sp,-48
     e6c:	02113423          	sd	ra,40(sp)
     e70:	01710713          	addi	a4,sp,23
     e74:	00710613          	addi	a2,sp,7
     e78:	00f57793          	andi	a5,a0,15
     e7c:	00a7b793          	sltiu	a5,a5,10
     e80:	40f007b3          	neg	a5,a5
     e84:	fd97f793          	andi	a5,a5,-39
     e88:	00f57693          	andi	a3,a0,15
     e8c:	05778793          	addi	a5,a5,87
     e90:	00d787bb          	addw	a5,a5,a3
     e94:	00f70023          	sb	a5,0(a4)
     e98:	fff70713          	addi	a4,a4,-1
     e9c:	00455513          	srli	a0,a0,0x4
     ea0:	fcc71ce3          	bne	a4,a2,e78 <printhex+0x10>
     ea4:	00810513          	addi	a0,sp,8
     ea8:	00010c23          	sb	zero,24(sp)
     eac:	3e4000ef          	jal	1290 <strlen>
     eb0:	00050613          	mv	a2,a0
     eb4:	04000893          	li	a7,64
     eb8:	00100513          	li	a0,1
     ebc:	00810593          	addi	a1,sp,8
     ec0:	00000073          	ecall
     ec4:	02813083          	ld	ra,40(sp)
     ec8:	03010113          	addi	sp,sp,48
     ecc:	00008067          	ret

0000000000000ed0 <printf>:
     ed0:	fa010113          	addi	sp,sp,-96
     ed4:	02810313          	addi	t1,sp,40
     ed8:	02c13823          	sd	a2,48(sp)
     edc:	00050613          	mv	a2,a0
     ee0:	02b13423          	sd	a1,40(sp)
     ee4:	02d13c23          	sd	a3,56(sp)
     ee8:	67c00513          	li	a0,1660
     eec:	00030693          	mv	a3,t1
     ef0:	00000593          	li	a1,0
     ef4:	00113c23          	sd	ra,24(sp)
     ef8:	04e13023          	sd	a4,64(sp)
     efc:	04f13423          	sd	a5,72(sp)
     f00:	05013823          	sd	a6,80(sp)
     f04:	05113c23          	sd	a7,88(sp)
     f08:	00613423          	sd	t1,8(sp)
     f0c:	fd8ff0ef          	jal	6e4 <vprintfmt>
     f10:	01813083          	ld	ra,24(sp)
     f14:	00000513          	li	a0,0
     f18:	06010113          	addi	sp,sp,96
     f1c:	00008067          	ret

0000000000000f20 <sprintf>:
     f20:	fa010113          	addi	sp,sp,-96
     f24:	03010313          	addi	t1,sp,48
     f28:	02813023          	sd	s0,32(sp)
     f2c:	00a13423          	sd	a0,8(sp)
     f30:	00050413          	mv	s0,a0
     f34:	02c13823          	sd	a2,48(sp)
     f38:	02d13c23          	sd	a3,56(sp)
     f3c:	00058613          	mv	a2,a1
     f40:	6cc00513          	li	a0,1740
     f44:	00810593          	addi	a1,sp,8
     f48:	00030693          	mv	a3,t1
     f4c:	02113423          	sd	ra,40(sp)
     f50:	04f13423          	sd	a5,72(sp)
     f54:	04e13023          	sd	a4,64(sp)
     f58:	05013823          	sd	a6,80(sp)
     f5c:	05113c23          	sd	a7,88(sp)
     f60:	00613c23          	sd	t1,24(sp)
     f64:	f80ff0ef          	jal	6e4 <vprintfmt>
     f68:	00813783          	ld	a5,8(sp)
     f6c:	00078023          	sb	zero,0(a5)
     f70:	00813503          	ld	a0,8(sp)
     f74:	02813083          	ld	ra,40(sp)
     f78:	4085053b          	subw	a0,a0,s0
     f7c:	02013403          	ld	s0,32(sp)
     f80:	06010113          	addi	sp,sp,96
     f84:	00008067          	ret

0000000000000f88 <_init>:
     f88:	fb010113          	addi	sp,sp,-80
     f8c:	02913c23          	sd	s1,56(sp)
     f90:	03213823          	sd	s2,48(sp)
     f94:	00020913          	mv	s2,tp
     f98:	00020493          	mv	s1,tp
     f9c:	409904b3          	sub	s1,s2,s1
     fa0:	03413023          	sd	s4,32(sp)
     fa4:	00058a13          	mv	s4,a1
     fa8:	0000a5b7          	lui	a1,0xa
     fac:	04113423          	sd	ra,72(sp)
     fb0:	04813023          	sd	s0,64(sp)
     fb4:	03313423          	sd	s3,40(sp)
     fb8:	05010413          	addi	s0,sp,80
     fbc:	01513c23          	sd	s5,24(sp)
     fc0:	01613823          	sd	s6,16(sp)
     fc4:	01713423          	sd	s7,8(sp)
     fc8:	00050993          	mv	s3,a0
     fcc:	d8010113          	addi	sp,sp,-640
     fd0:	00020513          	mv	a0,tp
     fd4:	00048613          	mv	a2,s1
     fd8:	80058593          	addi	a1,a1,-2048 # 9800 <_end>
     fdc:	00020b13          	mv	s6,tp
     fe0:	0b4000ef          	jal	1094 <memcpy>
     fe4:	08420613          	addi	a2,tp,132 # 84 <_tbss_end>
     fe8:	41260633          	sub	a2,a2,s2
     fec:	009b0533          	add	a0,s6,s1
     ff0:	00000593          	li	a1,0
     ff4:	1c0000ef          	jal	11b4 <memset>
     ff8:	000a0593          	mv	a1,s4
     ffc:	00098513          	mv	a0,s3
    1000:	cf4ff0ef          	jal	4f4 <thread_entry>
    1004:	000094b7          	lui	s1,0x9
    1008:	03f10a93          	addi	s5,sp,63
    100c:	00000593          	li	a1,0
    1010:	00000513          	li	a0,0
    1014:	6e048493          	addi	s1,s1,1760 # 96e0 <counters>
    1018:	fc0afa93          	andi	s5,s5,-64
    101c:	388000ef          	jal	13a4 <main>
    1020:	09048913          	addi	s2,s1,144
    1024:	00050b93          	mv	s7,a0
    1028:	00090993          	mv	s3,s2
    102c:	000a8a13          	mv	s4,s5
    1030:	00007b37          	lui	s6,0x7
    1034:	0100006f          	j	1044 <_init+0xbc>
    1038:	00848493          	addi	s1,s1,8
    103c:	00890913          	addi	s2,s2,8
    1040:	03348663          	beq	s1,s3,106c <_init+0xe4>
    1044:	0004b683          	ld	a3,0(s1)
    1048:	fe0688e3          	beqz	a3,1038 <_init+0xb0>
    104c:	00093603          	ld	a2,0(s2)
    1050:	000a0513          	mv	a0,s4
    1054:	508b0593          	addi	a1,s6,1288 # 7508 <verify_data+0x2140>
    1058:	ec9ff0ef          	jal	f20 <sprintf>
    105c:	00848493          	addi	s1,s1,8
    1060:	00aa0a33          	add	s4,s4,a0
    1064:	00890913          	addi	s2,s2,8
    1068:	fd349ee3          	bne	s1,s3,1044 <_init+0xbc>
    106c:	034a8063          	beq	s5,s4,108c <_init+0x104>
    1070:	000a8513          	mv	a0,s5
    1074:	21c000ef          	jal	1290 <strlen>
    1078:	00050613          	mv	a2,a0
    107c:	04000893          	li	a7,64
    1080:	00100513          	li	a0,1
    1084:	000a8593          	mv	a1,s5
    1088:	00000073          	ecall
    108c:	000b8513          	mv	a0,s7
    1090:	d6dff0ef          	jal	dfc <exit>

0000000000001094 <memcpy>:
    1094:	00a5c7b3          	xor	a5,a1,a0
    1098:	0077f793          	andi	a5,a5,7
    109c:	00c508b3          	add	a7,a0,a2
    10a0:	0e079263          	bnez	a5,1184 <memcpy+0xf0>
    10a4:	00700793          	li	a5,7
    10a8:	0ec7fe63          	bleu	a2,a5,11a4 <memcpy+0x110>
    10ac:	00757793          	andi	a5,a0,7
    10b0:	04079a63          	bnez	a5,1104 <memcpy+0x70>
    10b4:	ff88f813          	andi	a6,a7,-8
    10b8:	fc080793          	addi	a5,a6,-64
    10bc:	00050713          	mv	a4,a0
    10c0:	06f56663          	bltu	a0,a5,112c <memcpy+0x98>
    10c4:	00058693          	mv	a3,a1
    10c8:	00070793          	mv	a5,a4
    10cc:	03077863          	bleu	a6,a4,10fc <memcpy+0x68>
    10d0:	0006b603          	ld	a2,0(a3)
    10d4:	00878793          	addi	a5,a5,8
    10d8:	00868693          	addi	a3,a3,8
    10dc:	fec7bc23          	sd	a2,-8(a5)
    10e0:	ff07e8e3          	bltu	a5,a6,10d0 <memcpy+0x3c>
    10e4:	fff74793          	not	a5,a4
    10e8:	01078833          	add	a6,a5,a6
    10ec:	ff887813          	andi	a6,a6,-8
    10f0:	00880813          	addi	a6,a6,8
    10f4:	01070733          	add	a4,a4,a6
    10f8:	010585b3          	add	a1,a1,a6
    10fc:	09176863          	bltu	a4,a7,118c <memcpy+0xf8>
    1100:	00008067          	ret
    1104:	00050713          	mv	a4,a0
    1108:	0005c683          	lbu	a3,0(a1)
    110c:	00170713          	addi	a4,a4,1
    1110:	00777793          	andi	a5,a4,7
    1114:	fed70fa3          	sb	a3,-1(a4)
    1118:	00158593          	addi	a1,a1,1
    111c:	fe0796e3          	bnez	a5,1108 <memcpy+0x74>
    1120:	ff88f813          	andi	a6,a7,-8
    1124:	fc080793          	addi	a5,a6,-64
    1128:	f8f77ee3          	bleu	a5,a4,10c4 <memcpy+0x30>
    112c:	0005b383          	ld	t2,0(a1)
    1130:	0085b283          	ld	t0,8(a1)
    1134:	0105bf83          	ld	t6,16(a1)
    1138:	0185bf03          	ld	t5,24(a1)
    113c:	0205be83          	ld	t4,32(a1)
    1140:	0285be03          	ld	t3,40(a1)
    1144:	0305b303          	ld	t1,48(a1)
    1148:	0385b603          	ld	a2,56(a1)
    114c:	04858593          	addi	a1,a1,72
    1150:	04870713          	addi	a4,a4,72
    1154:	ff85b683          	ld	a3,-8(a1)
    1158:	fa773c23          	sd	t2,-72(a4)
    115c:	fc573023          	sd	t0,-64(a4)
    1160:	fdf73423          	sd	t6,-56(a4)
    1164:	fde73823          	sd	t5,-48(a4)
    1168:	fdd73c23          	sd	t4,-40(a4)
    116c:	ffc73023          	sd	t3,-32(a4)
    1170:	fe673423          	sd	t1,-24(a4)
    1174:	fec73823          	sd	a2,-16(a4)
    1178:	fed73c23          	sd	a3,-8(a4)
    117c:	faf768e3          	bltu	a4,a5,112c <memcpy+0x98>
    1180:	f45ff06f          	j	10c4 <memcpy+0x30>
    1184:	00050713          	mv	a4,a0
    1188:	03157463          	bleu	a7,a0,11b0 <memcpy+0x11c>
    118c:	0005c783          	lbu	a5,0(a1)
    1190:	00170713          	addi	a4,a4,1
    1194:	00158593          	addi	a1,a1,1
    1198:	fef70fa3          	sb	a5,-1(a4)
    119c:	ff1768e3          	bltu	a4,a7,118c <memcpy+0xf8>
    11a0:	00008067          	ret
    11a4:	00050713          	mv	a4,a0
    11a8:	ff1562e3          	bltu	a0,a7,118c <memcpy+0xf8>
    11ac:	f55ff06f          	j	1100 <memcpy+0x6c>
    11b0:	00008067          	ret

00000000000011b4 <memset>:
    11b4:	00f00813          	li	a6,15
    11b8:	00050713          	mv	a4,a0
    11bc:	02c87a63          	bleu	a2,a6,11f0 <memset+0x3c>
    11c0:	00f77793          	andi	a5,a4,15
    11c4:	0a079063          	bnez	a5,1264 <memset+0xb0>
    11c8:	06059e63          	bnez	a1,1244 <memset+0x90>
    11cc:	ff067693          	andi	a3,a2,-16
    11d0:	00f67613          	andi	a2,a2,15
    11d4:	00e686b3          	add	a3,a3,a4
    11d8:	00b73023          	sd	a1,0(a4)
    11dc:	00b73423          	sd	a1,8(a4)
    11e0:	01070713          	addi	a4,a4,16
    11e4:	fed76ae3          	bltu	a4,a3,11d8 <memset+0x24>
    11e8:	00061463          	bnez	a2,11f0 <memset+0x3c>
    11ec:	00008067          	ret
    11f0:	40c806b3          	sub	a3,a6,a2
    11f4:	00269693          	slli	a3,a3,0x2
    11f8:	00000297          	auipc	t0,0x0
    11fc:	005686b3          	add	a3,a3,t0
    1200:	00c68067          	jr	a3,12
    1204:	00b70723          	sb	a1,14(a4)
    1208:	00b706a3          	sb	a1,13(a4)
    120c:	00b70623          	sb	a1,12(a4)
    1210:	00b705a3          	sb	a1,11(a4)
    1214:	00b70523          	sb	a1,10(a4)
    1218:	00b704a3          	sb	a1,9(a4)
    121c:	00b70423          	sb	a1,8(a4)
    1220:	00b703a3          	sb	a1,7(a4)
    1224:	00b70323          	sb	a1,6(a4)
    1228:	00b702a3          	sb	a1,5(a4)
    122c:	00b70223          	sb	a1,4(a4)
    1230:	00b701a3          	sb	a1,3(a4)
    1234:	00b70123          	sb	a1,2(a4)
    1238:	00b700a3          	sb	a1,1(a4)
    123c:	00b70023          	sb	a1,0(a4)
    1240:	00008067          	ret
    1244:	0ff5f593          	andi	a1,a1,255
    1248:	00859693          	slli	a3,a1,0x8
    124c:	00d5e5b3          	or	a1,a1,a3
    1250:	01059693          	slli	a3,a1,0x10
    1254:	00d5e5b3          	or	a1,a1,a3
    1258:	02059693          	slli	a3,a1,0x20
    125c:	00d5e5b3          	or	a1,a1,a3
    1260:	f6dff06f          	j	11cc <memset+0x18>
    1264:	00279693          	slli	a3,a5,0x2
    1268:	00000297          	auipc	t0,0x0
    126c:	005686b3          	add	a3,a3,t0
    1270:	00008293          	mv	t0,ra
    1274:	f98680e7          	jalr	a3,-104
    1278:	00028093          	mv	ra,t0
    127c:	ff078793          	addi	a5,a5,-16
    1280:	40f70733          	sub	a4,a4,a5
    1284:	00f60633          	add	a2,a2,a5
    1288:	f6c874e3          	bleu	a2,a6,11f0 <memset+0x3c>
    128c:	f3dff06f          	j	11c8 <memset+0x14>

0000000000001290 <strlen>:
    1290:	00757793          	andi	a5,a0,7
    1294:	00050593          	mv	a1,a0
    1298:	06079a63          	bnez	a5,130c <strlen+0x7c>
    129c:	000077b7          	lui	a5,0x7
    12a0:	3c87b683          	ld	a3,968(a5) # 73c8 <verify_data+0x2000>
    12a4:	fff00613          	li	a2,-1
    12a8:	00850513          	addi	a0,a0,8
    12ac:	ff853783          	ld	a5,-8(a0)
    12b0:	00d7f733          	and	a4,a5,a3
    12b4:	00d70733          	add	a4,a4,a3
    12b8:	00d7e7b3          	or	a5,a5,a3
    12bc:	00f767b3          	or	a5,a4,a5
    12c0:	fec784e3          	beq	a5,a2,12a8 <strlen+0x18>
    12c4:	ff854783          	lbu	a5,-8(a0)
    12c8:	40b505b3          	sub	a1,a0,a1
    12cc:	06078263          	beqz	a5,1330 <strlen+0xa0>
    12d0:	ff954783          	lbu	a5,-7(a0)
    12d4:	04078a63          	beqz	a5,1328 <strlen+0x98>
    12d8:	ffa54783          	lbu	a5,-6(a0)
    12dc:	06078263          	beqz	a5,1340 <strlen+0xb0>
    12e0:	ffb54783          	lbu	a5,-5(a0)
    12e4:	04078a63          	beqz	a5,1338 <strlen+0xa8>
    12e8:	ffc54783          	lbu	a5,-4(a0)
    12ec:	ffd54703          	lbu	a4,-3(a0)
    12f0:	ffe54683          	lbu	a3,-2(a0)
    12f4:	04078a63          	beqz	a5,1348 <strlen+0xb8>
    12f8:	04070c63          	beqz	a4,1350 <strlen+0xc0>
    12fc:	fff58513          	addi	a0,a1,-1
    1300:	04068c63          	beqz	a3,1358 <strlen+0xc8>
    1304:	00008067          	ret
    1308:	f8070ae3          	beqz	a4,129c <strlen+0xc>
    130c:	00054783          	lbu	a5,0(a0)
    1310:	00150513          	addi	a0,a0,1
    1314:	00757713          	andi	a4,a0,7
    1318:	fe0798e3          	bnez	a5,1308 <strlen+0x78>
    131c:	40b50533          	sub	a0,a0,a1
    1320:	fff50513          	addi	a0,a0,-1
    1324:	00008067          	ret
    1328:	ff958513          	addi	a0,a1,-7
    132c:	00008067          	ret
    1330:	ff858513          	addi	a0,a1,-8
    1334:	00008067          	ret
    1338:	ffb58513          	addi	a0,a1,-5
    133c:	00008067          	ret
    1340:	ffa58513          	addi	a0,a1,-6
    1344:	00008067          	ret
    1348:	ffc58513          	addi	a0,a1,-4
    134c:	00008067          	ret
    1350:	ffd58513          	addi	a0,a1,-3
    1354:	00008067          	ret
    1358:	ffe58513          	addi	a0,a1,-2
    135c:	00008067          	ret

0000000000001360 <strnlen>:
    1360:	02058e63          	beqz	a1,139c <strnlen+0x3c>
    1364:	00054783          	lbu	a5,0(a0)
    1368:	02078a63          	beqz	a5,139c <strnlen+0x3c>
    136c:	00150793          	addi	a5,a0,1
    1370:	00b505b3          	add	a1,a0,a1
    1374:	0100006f          	j	1384 <strnlen+0x24>
    1378:	fff74683          	lbu	a3,-1(a4)
    137c:	00068c63          	beqz	a3,1394 <strnlen+0x34>
    1380:	00070793          	mv	a5,a4
    1384:	00178713          	addi	a4,a5,1
    1388:	fef598e3          	bne	a1,a5,1378 <strnlen+0x18>
    138c:	40a58533          	sub	a0,a1,a0
    1390:	00008067          	ret
    1394:	40a78533          	sub	a0,a5,a0
    1398:	00008067          	ret
    139c:	00000513          	li	a0,0
    13a0:	00008067          	ret

Disassembly of section .text.startup:

00000000000013a4 <main>:
    13a4:	000075b7          	lui	a1,0x7
    13a8:	04000893          	li	a7,64
    13ac:	00100513          	li	a0,1
    13b0:	4f058593          	addi	a1,a1,1264 # 74f0 <verify_data+0x2128>
    13b4:	01700613          	li	a2,23
    13b8:	00000073          	ecall
    13bc:	fff00513          	li	a0,-1
    13c0:	00008067          	ret
