
mt-vvadd.riscv:     file format elf64-littleriscv


Disassembly of section .text:

0000000000000100 <user_trap_entry>:
     100:	2940006f          	j	394 <trap_entry>
     104:	00000013          	nop
     108:	00000013          	nop
     10c:	00000013          	nop
     110:	00000013          	nop
     114:	00000013          	nop
     118:	00000013          	nop
     11c:	00000013          	nop
     120:	00000013          	nop
     124:	00000013          	nop
     128:	00000013          	nop
     12c:	00000013          	nop
     130:	00000013          	nop
     134:	00000013          	nop
     138:	00000013          	nop
     13c:	00000013          	nop

0000000000000140 <supervisor_trap_entry>:
     140:	0000006f          	j	140 <supervisor_trap_entry>
     144:	00000013          	nop
     148:	00000013          	nop
     14c:	00000013          	nop
     150:	00000013          	nop
     154:	00000013          	nop
     158:	00000013          	nop
     15c:	00000013          	nop
     160:	00000013          	nop
     164:	00000013          	nop
     168:	00000013          	nop
     16c:	00000013          	nop
     170:	00000013          	nop
     174:	00000013          	nop
     178:	00000013          	nop
     17c:	00000013          	nop

0000000000000180 <hypervisor_trap_entry>:
     180:	0000006f          	j	180 <hypervisor_trap_entry>
     184:	00000013          	nop
     188:	00000013          	nop
     18c:	00000013          	nop
     190:	00000013          	nop
     194:	00000013          	nop
     198:	00000013          	nop
     19c:	00000013          	nop
     1a0:	00000013          	nop
     1a4:	00000013          	nop
     1a8:	00000013          	nop
     1ac:	00000013          	nop
     1b0:	00000013          	nop
     1b4:	00000013          	nop
     1b8:	00000013          	nop
     1bc:	00000013          	nop

00000000000001c0 <machine_trap_entry>:
     1c0:	1d40006f          	j	394 <trap_entry>
     1c4:	00000013          	nop
     1c8:	00000013          	nop
     1cc:	00000013          	nop
     1d0:	00000013          	nop
     1d4:	00000013          	nop
     1d8:	00000013          	nop
     1dc:	00000013          	nop
     1e0:	00000013          	nop
     1e4:	00000013          	nop
     1e8:	00000013          	nop
     1ec:	00000013          	nop
     1f0:	00000013          	nop
     1f4:	00000013          	nop
     1f8:	00000013          	nop
     1fc:	00000013          	nop

0000000000000200 <_start>:
     200:	00000093          	li	ra,0
     204:	00000113          	li	sp,0
     208:	00000193          	li	gp,0
     20c:	00000213          	li	tp,0
     210:	00000293          	li	t0,0
     214:	00000313          	li	t1,0
     218:	00000393          	li	t2,0
     21c:	00000413          	li	s0,0
     220:	00000493          	li	s1,0
     224:	00000513          	li	a0,0
     228:	00000593          	li	a1,0
     22c:	00000613          	li	a2,0
     230:	00000693          	li	a3,0
     234:	00000713          	li	a4,0
     238:	00000793          	li	a5,0
     23c:	00000813          	li	a6,0
     240:	00000893          	li	a7,0
     244:	00000913          	li	s2,0
     248:	00000993          	li	s3,0
     24c:	00000a13          	li	s4,0
     250:	00000a93          	li	s5,0
     254:	00000b13          	li	s6,0
     258:	00000b93          	li	s7,0
     25c:	00000c13          	li	s8,0
     260:	00000c93          	li	s9,0
     264:	00000d13          	li	s10,0
     268:	00000d93          	li	s11,0
     26c:	00000e13          	li	t3,0
     270:	00000e93          	li	t4,0
     274:	00000f13          	li	t5,0
     278:	00000f93          	li	t6,0
     27c:	03000293          	li	t0,48
     280:	3002b073          	csrc	mstatus,t0
     284:	00800293          	li	t0,8
     288:	3002a073          	csrs	mstatus,t0
     28c:	000032b7          	lui	t0,0x3
     290:	3002a073          	csrs	mstatus,t0
     294:	0000c2b7          	lui	t0,0xc
     298:	3002a073          	csrs	mstatus,t0
     29c:	f00022f3          	csrr	t0,mcpuid
     2a0:	0002c663          	bltz	t0,2ac <_start+0xac>
     2a4:	4d200513          	li	a0,1234
     2a8:	0bd0006f          	j	b64 <tohost_exit>
     2ac:	300022f3          	csrr	t0,mstatus
     2b0:	0000c337          	lui	t1,0xc
     2b4:	0062f333          	and	t1,t0,t1
     2b8:	00007397          	auipc	t2,0x7
     2bc:	2c63ac23          	sw	t1,728(t2) # 7590 <have_vec>
     2c0:	00003337          	lui	t1,0x3
     2c4:	0062f333          	and	t1,t0,t1
     2c8:	08030463          	beqz	t1,350 <_start+0x150>
     2cc:	00301073          	fssr	zero
     2d0:	f0000053          	fmv.s.x	ft0,zero
     2d4:	f00000d3          	fmv.s.x	ft1,zero
     2d8:	f0000153          	fmv.s.x	ft2,zero
     2dc:	f00001d3          	fmv.s.x	ft3,zero
     2e0:	f0000253          	fmv.s.x	ft4,zero
     2e4:	f00002d3          	fmv.s.x	ft5,zero
     2e8:	f0000353          	fmv.s.x	ft6,zero
     2ec:	f00003d3          	fmv.s.x	ft7,zero
     2f0:	f0000453          	fmv.s.x	fs0,zero
     2f4:	f00004d3          	fmv.s.x	fs1,zero
     2f8:	f0000553          	fmv.s.x	fa0,zero
     2fc:	f00005d3          	fmv.s.x	fa1,zero
     300:	f0000653          	fmv.s.x	fa2,zero
     304:	f00006d3          	fmv.s.x	fa3,zero
     308:	f0000753          	fmv.s.x	fa4,zero
     30c:	f00007d3          	fmv.s.x	fa5,zero
     310:	f0000853          	fmv.s.x	fa6,zero
     314:	f00008d3          	fmv.s.x	fa7,zero
     318:	f0000953          	fmv.s.x	fs2,zero
     31c:	f00009d3          	fmv.s.x	fs3,zero
     320:	f0000a53          	fmv.s.x	fs4,zero
     324:	f0000ad3          	fmv.s.x	fs5,zero
     328:	f0000b53          	fmv.s.x	fs6,zero
     32c:	f0000bd3          	fmv.s.x	fs7,zero
     330:	f0000c53          	fmv.s.x	fs8,zero
     334:	f0000cd3          	fmv.s.x	fs9,zero
     338:	f0000d53          	fmv.s.x	fs10,zero
     33c:	f0000dd3          	fmv.s.x	fs11,zero
     340:	f0000e53          	fmv.s.x	ft8,zero
     344:	f0000ed3          	fmv.s.x	ft9,zero
     348:	f0000f53          	fmv.s.x	ft10,zero
     34c:	f0000fd3          	fmv.s.x	ft11,zero
     350:	00007197          	auipc	gp,0x7
     354:	6e018193          	addi	gp,gp,1760 # 7a30 <_gp>
     358:	00009217          	auipc	tp,0x9
     35c:	2e720213          	addi	tp,tp,743 # 963f <_end+0x3f>
     360:	fc027213          	andi	tp,tp,-64
     364:	f1002573          	csrr	a0,mhartid
     368:	00100593          	li	a1,1
     36c:	00b57063          	bleu	a1,a0,36c <_start+0x16c>
     370:	01151613          	slli	a2,a0,0x11
     374:	00c20233          	add	tp,tp,a2
     378:	00150113          	addi	sp,a0,1
     37c:	01111113          	slli	sp,sp,0x11
     380:	00410133          	add	sp,sp,tp
     384:	00001297          	auipc	t0,0x1
     388:	cac28293          	addi	t0,t0,-852 # 1030 <_init>
     38c:	34129073          	csrw	mepc,t0
     390:	10000073          	eret

0000000000000394 <trap_entry>:
     394:	ef010113          	addi	sp,sp,-272
     398:	00113423          	sd	ra,8(sp)
     39c:	00213823          	sd	sp,16(sp)
     3a0:	00313c23          	sd	gp,24(sp)
     3a4:	02413023          	sd	tp,32(sp)
     3a8:	02513423          	sd	t0,40(sp)
     3ac:	02613823          	sd	t1,48(sp)
     3b0:	02713c23          	sd	t2,56(sp)
     3b4:	04813023          	sd	s0,64(sp)
     3b8:	04913423          	sd	s1,72(sp)
     3bc:	04a13823          	sd	a0,80(sp)
     3c0:	04b13c23          	sd	a1,88(sp)
     3c4:	06c13023          	sd	a2,96(sp)
     3c8:	06d13423          	sd	a3,104(sp)
     3cc:	06e13823          	sd	a4,112(sp)
     3d0:	06f13c23          	sd	a5,120(sp)
     3d4:	09013023          	sd	a6,128(sp)
     3d8:	09113423          	sd	a7,136(sp)
     3dc:	09213823          	sd	s2,144(sp)
     3e0:	09313c23          	sd	s3,152(sp)
     3e4:	0b413023          	sd	s4,160(sp)
     3e8:	0b513423          	sd	s5,168(sp)
     3ec:	0b613823          	sd	s6,176(sp)
     3f0:	0b713c23          	sd	s7,184(sp)
     3f4:	0d813023          	sd	s8,192(sp)
     3f8:	0d913423          	sd	s9,200(sp)
     3fc:	0da13823          	sd	s10,208(sp)
     400:	0db13c23          	sd	s11,216(sp)
     404:	0fc13023          	sd	t3,224(sp)
     408:	0fd13423          	sd	t4,232(sp)
     40c:	0fe13823          	sd	t5,240(sp)
     410:	0ff13c23          	sd	t6,248(sp)
     414:	34202573          	csrr	a0,mcause
     418:	341025f3          	csrr	a1,mepc
     41c:	00010613          	mv	a2,sp
     420:	754000ef          	jal	b74 <handle_trap>
     424:	34151073          	csrw	mepc,a0
     428:	00813083          	ld	ra,8(sp)
     42c:	01013103          	ld	sp,16(sp)
     430:	01813183          	ld	gp,24(sp)
     434:	02013203          	ld	tp,32(sp)
     438:	02813283          	ld	t0,40(sp)
     43c:	03013303          	ld	t1,48(sp)
     440:	03813383          	ld	t2,56(sp)
     444:	04013403          	ld	s0,64(sp)
     448:	04813483          	ld	s1,72(sp)
     44c:	05013503          	ld	a0,80(sp)
     450:	05813583          	ld	a1,88(sp)
     454:	06013603          	ld	a2,96(sp)
     458:	06813683          	ld	a3,104(sp)
     45c:	07013703          	ld	a4,112(sp)
     460:	07813783          	ld	a5,120(sp)
     464:	08013803          	ld	a6,128(sp)
     468:	08813883          	ld	a7,136(sp)
     46c:	09013903          	ld	s2,144(sp)
     470:	09813983          	ld	s3,152(sp)
     474:	0a013a03          	ld	s4,160(sp)
     478:	0a813a83          	ld	s5,168(sp)
     47c:	0b013b03          	ld	s6,176(sp)
     480:	0b813b83          	ld	s7,184(sp)
     484:	0c013c03          	ld	s8,192(sp)
     488:	0c813c83          	ld	s9,200(sp)
     48c:	0d013d03          	ld	s10,208(sp)
     490:	0d813d83          	ld	s11,216(sp)
     494:	0e013e03          	ld	t3,224(sp)
     498:	0e813e83          	ld	t4,232(sp)
     49c:	0f013f03          	ld	t5,240(sp)
     4a0:	0f813f83          	ld	t6,248(sp)
     4a4:	11010113          	addi	sp,sp,272
     4a8:	10000073          	eret

00000000000004ac <barrier>:
     4ac:	0330000f          	fence	rw,rw
     4b0:	00022683          	lw	a3,0(tp) # 0 <_tdata_begin>
     4b4:	00100613          	li	a2,1
     4b8:	0016b693          	seqz	a3,a3
     4bc:	00d22023          	sw	a3,0(tp) # 0 <_tdata_begin>
     4c0:	b5c18593          	addi	a1,gp,-1188 # 758c <count.3066>
     4c4:	06c5a6af          	amoadd.w.sc	a3,a2,(a1)
     4c8:	fff5051b          	addiw	a0,a0,-1
     4cc:	00a68c63          	beq	a3,a0,4e4 <barrier+0x38>
     4d0:	00022683          	lw	a3,0(tp) # 0 <_tdata_begin>
     4d4:	b581a783          	lw	a5,-1192(gp) # 7588 <sense.3065>
     4d8:	fed79ee3          	bne	a5,a3,4d4 <barrier+0x28>
     4dc:	0330000f          	fence	rw,rw
     4e0:	00008067          	ret
     4e4:	00022683          	lw	a3,0(tp) # 0 <_tdata_begin>
     4e8:	b401ae23          	sw	zero,-1188(gp) # 758c <count.3066>
     4ec:	b4d1ac23          	sw	a3,-1192(gp) # 7588 <sense.3065>
     4f0:	fedff06f          	j	4dc <barrier+0x30>

00000000000004f4 <verifyDouble.constprop.1>:
     4f4:	00001737          	lui	a4,0x1
     4f8:	b6818693          	addi	a3,gp,-1176 # 7598 <results_data.3086>
     4fc:	47070713          	addi	a4,a4,1136 # 1470 <verify_data>
     500:	00000593          	li	a1,0
     504:	3e800513          	li	a0,1000
     508:	0006b787          	fld	fa5,0(a3)
     50c:	00073607          	fld	fa2,0(a4)
     510:	0086b687          	fld	fa3,8(a3)
     514:	00873707          	fld	fa4,8(a4)
     518:	a2f627d3          	feq.d	a5,fa2,fa5
     51c:	01068693          	addi	a3,a3,16
     520:	a2d72653          	feq.d	a2,fa4,fa3
     524:	0017f793          	andi	a5,a5,1
     528:	01070713          	addi	a4,a4,16
     52c:	00060c63          	beqz	a2,544 <verifyDouble.constprop.1+0x50>
     530:	00078a63          	beqz	a5,544 <verifyDouble.constprop.1+0x50>
     534:	0025859b          	addiw	a1,a1,2
     538:	fca598e3          	bne	a1,a0,508 <verifyDouble.constprop.1+0x14>
     53c:	00000513          	li	a0,0
     540:	00008067          	ret
     544:	0015859b          	addiw	a1,a1,1
     548:	00f5853b          	addw	a0,a1,a5
     54c:	00008067          	ret

0000000000000550 <thread_entry>:
     550:	fc010113          	addi	sp,sp,-64
     554:	03213023          	sd	s2,32(sp)
     558:	00050913          	mv	s2,a0
     55c:	00058513          	mv	a0,a1
     560:	02913423          	sd	s1,40(sp)
     564:	02113c23          	sd	ra,56(sp)
     568:	02813823          	sd	s0,48(sp)
     56c:	01313c23          	sd	s3,24(sp)
     570:	01413823          	sd	s4,16(sp)
     574:	01513423          	sd	s5,8(sp)
     578:	01613023          	sd	s6,0(sp)
     57c:	00058493          	mv	s1,a1
     580:	f2dff0ef          	jal	4ac <barrier>
     584:	c0002b73          	rdcycle	s6
     588:	c0202af3          	rdinstret	s5
     58c:	000057b7          	lui	a5,0x5
     590:	000039b7          	lui	s3,0x3
     594:	2f078413          	addi	s0,a5,752 # 52f0 <input1_data>
     598:	3b098993          	addi	s3,s3,944 # 33b0 <input2_data>
     59c:	b6818793          	addi	a5,gp,-1176 # 7598 <results_data.3086>
     5a0:	00098713          	mv	a4,s3
     5a4:	00040693          	mv	a3,s0
     5a8:	3e800613          	li	a2,1000
     5ac:	00048593          	mv	a1,s1
     5b0:	00090513          	mv	a0,s2
     5b4:	130000ef          	jal	6e4 <vvadd>
     5b8:	00048513          	mv	a0,s1
     5bc:	ef1ff0ef          	jal	4ac <barrier>
     5c0:	c00026f3          	rdcycle	a3
     5c4:	c02027f3          	rdinstret	a5
     5c8:	0a090263          	beqz	s2,66c <thread_entry+0x11c>
     5cc:	00048513          	mv	a0,s1
     5d0:	eddff0ef          	jal	4ac <barrier>
     5d4:	c0002af3          	rdcycle	s5
     5d8:	c0202473          	rdinstret	s0
     5dc:	3e800613          	li	a2,1000
     5e0:	b6818793          	addi	a5,gp,-1176 # 7598 <results_data.3086>
     5e4:	00098713          	mv	a4,s3
     5e8:	b6818693          	addi	a3,gp,-1176 # 7598 <results_data.3086>
     5ec:	00048593          	mv	a1,s1
     5f0:	00090513          	mv	a0,s2
     5f4:	0f0000ef          	jal	6e4 <vvadd>
     5f8:	00048513          	mv	a0,s1
     5fc:	eb1ff0ef          	jal	4ac <barrier>
     600:	c00026f3          	rdcycle	a3
     604:	c02027f3          	rdinstret	a5
     608:	00090a63          	beqz	s2,61c <thread_entry+0xcc>
     60c:	00048513          	mv	a0,s1
     610:	e9dff0ef          	jal	4ac <barrier>
     614:	00000513          	li	a0,0
     618:	08d000ef          	jal	ea4 <exit>
     61c:	415686b3          	sub	a3,a3,s5
     620:	00a00713          	li	a4,10
     624:	02e688b3          	mul	a7,a3,a4
     628:	3e800313          	li	t1,1000
     62c:	408787b3          	sub	a5,a5,s0
     630:	00068613          	mv	a2,a3
     634:	000075b7          	lui	a1,0x7
     638:	00007537          	lui	a0,0x7
     63c:	2c058593          	addi	a1,a1,704 # 72c0 <input1_data+0x1fd0>
     640:	28850513          	addi	a0,a0,648 # 7288 <input1_data+0x1f98>
     644:	02f8d833          	divu	a6,a7,a5
     648:	0268d8b3          	divu	a7,a7,t1
     64c:	02e87833          	remu	a6,a6,a4
     650:	02f6d7b3          	divu	a5,a3,a5
     654:	02e8f733          	remu	a4,a7,a4
     658:	0266d6b3          	divu	a3,a3,t1
     65c:	11d000ef          	jal	f78 <printf>
     660:	e95ff0ef          	jal	4f4 <verifyDouble.constprop.1>
     664:	fa0504e3          	beqz	a0,60c <thread_entry+0xbc>
     668:	fb1ff06f          	j	618 <thread_entry+0xc8>
     66c:	416686b3          	sub	a3,a3,s6
     670:	00a00713          	li	a4,10
     674:	02e688b3          	mul	a7,a3,a4
     678:	3e800313          	li	t1,1000
     67c:	415787b3          	sub	a5,a5,s5
     680:	00068613          	mv	a2,a3
     684:	000075b7          	lui	a1,0x7
     688:	00007537          	lui	a0,0x7
     68c:	23858593          	addi	a1,a1,568 # 7238 <input1_data+0x1f48>
     690:	28850513          	addi	a0,a0,648 # 7288 <input1_data+0x1f98>
     694:	02f8d833          	divu	a6,a7,a5
     698:	0268d8b3          	divu	a7,a7,t1
     69c:	02e87833          	remu	a6,a6,a4
     6a0:	02f6d7b3          	divu	a5,a3,a5
     6a4:	02e8f733          	remu	a4,a7,a4
     6a8:	0266d6b3          	divu	a3,a3,t1
     6ac:	0cd000ef          	jal	f78 <printf>
     6b0:	e45ff0ef          	jal	4f4 <verifyDouble.constprop.1>
     6b4:	f60512e3          	bnez	a0,618 <thread_entry+0xc8>
     6b8:	000026b7          	lui	a3,0x2
     6bc:	f4068693          	addi	a3,a3,-192 # 1f40 <verify_data+0xad0>
     6c0:	00040793          	mv	a5,s0
     6c4:	b6818713          	addi	a4,gp,-1176 # 7598 <results_data.3086>
     6c8:	00d406b3          	add	a3,s0,a3
     6cc:	0007b787          	fld	fa5,0(a5)
     6d0:	00870713          	addi	a4,a4,8
     6d4:	00878793          	addi	a5,a5,8
     6d8:	fef73c27          	fsd	fa5,-8(a4)
     6dc:	fef698e3          	bne	a3,a5,6cc <thread_entry+0x17c>
     6e0:	eedff06f          	j	5cc <thread_entry+0x7c>

00000000000006e4 <vvadd>:
     6e4:	02c57e63          	bleu	a2,a0,720 <vvadd+0x3c>
     6e8:	00351893          	slli	a7,a0,0x3
     6ec:	00359813          	slli	a6,a1,0x3
     6f0:	011686b3          	add	a3,a3,a7
     6f4:	01170733          	add	a4,a4,a7
     6f8:	011787b3          	add	a5,a5,a7
     6fc:	0006b787          	fld	fa5,0(a3)
     700:	00073707          	fld	fa4,0(a4)
     704:	00b50533          	add	a0,a0,a1
     708:	010686b3          	add	a3,a3,a6
     70c:	02e7f7d3          	fadd.d	fa5,fa5,fa4
     710:	01070733          	add	a4,a4,a6
     714:	00f7b027          	fsd	fa5,0(a5)
     718:	010787b3          	add	a5,a5,a6
     71c:	fec560e3          	bltu	a0,a2,6fc <vvadd+0x18>
     720:	00008067          	ret

0000000000000724 <putchar>:
     724:	08022603          	lw	a2,128(tp) # 80 <buflen.2849>
     728:	00060813          	mv	a6,a2
     72c:	04020793          	addi	a5,tp,64 # 40 <buf.2848>
     730:	010787b3          	add	a5,a5,a6
     734:	0016061b          	addiw	a2,a2,1
     738:	00a78023          	sb	a0,0(a5)
     73c:	08c22023          	sw	a2,128(tp) # 80 <buflen.2849>
     740:	00a00793          	li	a5,10
     744:	00f50a63          	beq	a0,a5,758 <putchar+0x34>
     748:	04000793          	li	a5,64
     74c:	00f60663          	beq	a2,a5,758 <putchar+0x34>
     750:	00000513          	li	a0,0
     754:	00008067          	ret
     758:	04000893          	li	a7,64
     75c:	00100513          	li	a0,1
     760:	04020593          	addi	a1,tp,64 # 40 <buf.2848>
     764:	00000073          	ecall
     768:	08022023          	sw	zero,128(tp) # 80 <buflen.2849>
     76c:	00000513          	li	a0,0
     770:	00008067          	ret

0000000000000774 <sprintf_putch.2963>:
     774:	0005b783          	ld	a5,0(a1)
     778:	00a78023          	sb	a0,0(a5)
     77c:	0005b783          	ld	a5,0(a1)
     780:	00178793          	addi	a5,a5,1
     784:	00f5b023          	sd	a5,0(a1)
     788:	00008067          	ret

000000000000078c <vprintfmt>:
     78c:	e8010113          	addi	sp,sp,-384
     790:	15413823          	sd	s4,336(sp)
     794:	16813823          	sd	s0,368(sp)
     798:	16913423          	sd	s1,360(sp)
     79c:	17213023          	sd	s2,352(sp)
     7a0:	15313c23          	sd	s3,344(sp)
     7a4:	15513423          	sd	s5,328(sp)
     7a8:	15613023          	sd	s6,320(sp)
     7ac:	16113c23          	sd	ra,376(sp)
     7b0:	13713c23          	sd	s7,312(sp)
     7b4:	13813823          	sd	s8,304(sp)
     7b8:	13913423          	sd	s9,296(sp)
     7bc:	13a13023          	sd	s10,288(sp)
     7c0:	11b13c23          	sd	s11,280(sp)
     7c4:	00050913          	mv	s2,a0
     7c8:	00058493          	mv	s1,a1
     7cc:	00060413          	mv	s0,a2
     7d0:	00068a93          	mv	s5,a3
     7d4:	02500993          	li	s3,37
     7d8:	05500b13          	li	s6,85
     7dc:	9a018a13          	addi	s4,gp,-1632 # 73d0 <input1_data+0x20e0>
     7e0:	0140006f          	j	7f4 <vprintfmt+0x68>
     7e4:	04050c63          	beqz	a0,83c <vprintfmt+0xb0>
     7e8:	00140413          	addi	s0,s0,1
     7ec:	00048593          	mv	a1,s1
     7f0:	000900e7          	jalr	s2
     7f4:	00044503          	lbu	a0,0(s0)
     7f8:	ff3516e3          	bne	a0,s3,7e4 <vprintfmt+0x58>
     7fc:	00144503          	lbu	a0,1(s0)
     800:	00140b93          	addi	s7,s0,1
     804:	fff00d93          	li	s11,-1
     808:	000b8713          	mv	a4,s7
     80c:	02000d13          	li	s10,32
     810:	000d8c13          	mv	s8,s11
     814:	00000613          	li	a2,0
     818:	fdd5079b          	addiw	a5,a0,-35
     81c:	0ff7f593          	andi	a1,a5,255
     820:	00170413          	addi	s0,a4,1
     824:	2cbb6663          	bltu	s6,a1,af0 <vprintfmt+0x364>
     828:	0ff7f793          	andi	a5,a5,255
     82c:	00279793          	slli	a5,a5,0x2
     830:	014787b3          	add	a5,a5,s4
     834:	0007a783          	lw	a5,0(a5)
     838:	00078067          	jr	a5
     83c:	17813083          	ld	ra,376(sp)
     840:	17013403          	ld	s0,368(sp)
     844:	16813483          	ld	s1,360(sp)
     848:	16013903          	ld	s2,352(sp)
     84c:	15813983          	ld	s3,344(sp)
     850:	15013a03          	ld	s4,336(sp)
     854:	14813a83          	ld	s5,328(sp)
     858:	14013b03          	ld	s6,320(sp)
     85c:	13813b83          	ld	s7,312(sp)
     860:	13013c03          	ld	s8,304(sp)
     864:	12813c83          	ld	s9,296(sp)
     868:	12013d03          	ld	s10,288(sp)
     86c:	11813d83          	ld	s11,280(sp)
     870:	18010113          	addi	sp,sp,384
     874:	00008067          	ret
     878:	000c5463          	bgez	s8,880 <vprintfmt+0xf4>
     87c:	00000c13          	li	s8,0
     880:	00174503          	lbu	a0,1(a4)
     884:	00040713          	mv	a4,s0
     888:	f91ff06f          	j	818 <vprintfmt+0x8c>
     88c:	00800793          	li	a5,8
     890:	00100713          	li	a4,1
     894:	2ac75463          	ble	a2,a4,b3c <vprintfmt+0x3b0>
     898:	000abd83          	ld	s11,0(s5)
     89c:	008a8a93          	addi	s5,s5,8
     8a0:	02fdf533          	remu	a0,s11,a5
     8a4:	01410693          	addi	a3,sp,20
     8a8:	00100c93          	li	s9,1
     8ac:	00a12823          	sw	a0,16(sp)
     8b0:	00fdf663          	bleu	a5,s11,8bc <vprintfmt+0x130>
     8b4:	2980006f          	j	b4c <vprintfmt+0x3c0>
     8b8:	000b8c93          	mv	s9,s7
     8bc:	02fdddb3          	divu	s11,s11,a5
     8c0:	00468693          	addi	a3,a3,4
     8c4:	001c8b9b          	addiw	s7,s9,1
     8c8:	02fdf5b3          	remu	a1,s11,a5
     8cc:	feb6ae23          	sw	a1,-4(a3)
     8d0:	fefdf4e3          	bleu	a5,s11,8b8 <vprintfmt+0x12c>
     8d4:	01912423          	sw	s9,8(sp)
     8d8:	fffc0d9b          	addiw	s11,s8,-1
     8dc:	038bd263          	ble	s8,s7,900 <vprintfmt+0x174>
     8e0:	00048593          	mv	a1,s1
     8e4:	000d0513          	mv	a0,s10
     8e8:	fffd8d9b          	addiw	s11,s11,-1
     8ec:	000900e7          	jalr	s2
     8f0:	001d871b          	addiw	a4,s11,1
     8f4:	feebc6e3          	blt	s7,a4,8e0 <vprintfmt+0x154>
     8f8:	00812c83          	lw	s9,8(sp)
     8fc:	ef705ce3          	blez	s7,7f4 <vprintfmt+0x68>
     900:	002c9793          	slli	a5,s9,0x2
     904:	11010713          	addi	a4,sp,272
     908:	00f707b3          	add	a5,a4,a5
     90c:	f007a503          	lw	a0,-256(a5)
     910:	00a53793          	sltiu	a5,a0,10
     914:	40f007bb          	negw	a5,a5
     918:	fd97f793          	andi	a5,a5,-39
     91c:	0577879b          	addiw	a5,a5,87
     920:	00a7853b          	addw	a0,a5,a0
     924:	00048593          	mv	a1,s1
     928:	fffc8c9b          	addiw	s9,s9,-1
     92c:	000900e7          	jalr	s2
     930:	001c879b          	addiw	a5,s9,1
     934:	fcf046e3          	bgtz	a5,900 <vprintfmt+0x174>
     938:	ebdff06f          	j	7f4 <vprintfmt+0x68>
     93c:	000aad83          	lw	s11,0(s5)
     940:	00174503          	lbu	a0,1(a4)
     944:	008a8a93          	addi	s5,s5,8
     948:	00040713          	mv	a4,s0
     94c:	ec0c56e3          	bgez	s8,818 <vprintfmt+0x8c>
     950:	000d8c13          	mv	s8,s11
     954:	fff00d93          	li	s11,-1
     958:	ec1ff06f          	j	818 <vprintfmt+0x8c>
     95c:	00174503          	lbu	a0,1(a4)
     960:	02d00d13          	li	s10,45
     964:	00040713          	mv	a4,s0
     968:	eb1ff06f          	j	818 <vprintfmt+0x8c>
     96c:	00174503          	lbu	a0,1(a4)
     970:	03000d13          	li	s10,48
     974:	00040713          	mv	a4,s0
     978:	ea1ff06f          	j	818 <vprintfmt+0x8c>
     97c:	00174783          	lbu	a5,1(a4)
     980:	00900693          	li	a3,9
     984:	fd050d9b          	addiw	s11,a0,-48
     988:	fd07871b          	addiw	a4,a5,-48
     98c:	00078593          	mv	a1,a5
     990:	1ae6e063          	bltu	a3,a4,b30 <vprintfmt+0x3a4>
     994:	00040713          	mv	a4,s0
     998:	00170713          	addi	a4,a4,1
     99c:	00074503          	lbu	a0,0(a4)
     9a0:	001d979b          	slliw	a5,s11,0x1
     9a4:	003d9d9b          	slliw	s11,s11,0x3
     9a8:	01b78dbb          	addw	s11,a5,s11
     9ac:	00bd8dbb          	addw	s11,s11,a1
     9b0:	fd05079b          	addiw	a5,a0,-48
     9b4:	00900693          	li	a3,9
     9b8:	fd0d8d9b          	addiw	s11,s11,-48
     9bc:	00050593          	mv	a1,a0
     9c0:	fcf6fce3          	bleu	a5,a3,998 <vprintfmt+0x20c>
     9c4:	f89ff06f          	j	94c <vprintfmt+0x1c0>
     9c8:	000aa503          	lw	a0,0(s5)
     9cc:	00048593          	mv	a1,s1
     9d0:	008a8a93          	addi	s5,s5,8
     9d4:	000900e7          	jalr	s2
     9d8:	e1dff06f          	j	7f4 <vprintfmt+0x68>
     9dc:	00100793          	li	a5,1
     9e0:	14c7d063          	ble	a2,a5,b20 <vprintfmt+0x394>
     9e4:	000abd83          	ld	s11,0(s5)
     9e8:	008a8a93          	addi	s5,s5,8
     9ec:	00a00793          	li	a5,10
     9f0:	ea0dd8e3          	bgez	s11,8a0 <vprintfmt+0x114>
     9f4:	00048593          	mv	a1,s1
     9f8:	02d00513          	li	a0,45
     9fc:	00f13423          	sd	a5,8(sp)
     a00:	000900e7          	jalr	s2
     a04:	41b00db3          	neg	s11,s11
     a08:	00813783          	ld	a5,8(sp)
     a0c:	e95ff06f          	j	8a0 <vprintfmt+0x114>
     a10:	00174503          	lbu	a0,1(a4)
     a14:	0016061b          	addiw	a2,a2,1
     a18:	00040713          	mv	a4,s0
     a1c:	dfdff06f          	j	818 <vprintfmt+0x8c>
     a20:	000abb83          	ld	s7,0(s5)
     a24:	008a8a93          	addi	s5,s5,8
     a28:	0e0b8663          	beqz	s7,b14 <vprintfmt+0x388>
     a2c:	05805463          	blez	s8,a74 <vprintfmt+0x2e8>
     a30:	02d00713          	li	a4,45
     a34:	0ced0863          	beq	s10,a4,b04 <vprintfmt+0x378>
     a38:	000d8593          	mv	a1,s11
     a3c:	000b8513          	mv	a0,s7
     a40:	1c9000ef          	jal	1408 <strnlen>
     a44:	40ac0c3b          	subw	s8,s8,a0
     a48:	03805663          	blez	s8,a74 <vprintfmt+0x2e8>
     a4c:	000c0c93          	mv	s9,s8
     a50:	fffc8c9b          	addiw	s9,s9,-1
     a54:	00048593          	mv	a1,s1
     a58:	000d0513          	mv	a0,s10
     a5c:	000900e7          	jalr	s2
     a60:	fe0c98e3          	bnez	s9,a50 <vprintfmt+0x2c4>
     a64:	00100793          	li	a5,1
     a68:	fffc071b          	addiw	a4,s8,-1
     a6c:	4187883b          	subw	a6,a5,s8
     a70:	00e80c3b          	addw	s8,a6,a4
     a74:	000bc503          	lbu	a0,0(s7)
     a78:	d6050ee3          	beqz	a0,7f4 <vprintfmt+0x68>
     a7c:	fff00d13          	li	s10,-1
     a80:	000dc663          	bltz	s11,a8c <vprintfmt+0x300>
     a84:	fffd8d9b          	addiw	s11,s11,-1
     a88:	01ad8e63          	beq	s11,s10,aa4 <vprintfmt+0x318>
     a8c:	00048593          	mv	a1,s1
     a90:	001b8b93          	addi	s7,s7,1
     a94:	000900e7          	jalr	s2
     a98:	000bc503          	lbu	a0,0(s7)
     a9c:	fffc0c1b          	addiw	s8,s8,-1
     aa0:	fe0510e3          	bnez	a0,a80 <vprintfmt+0x2f4>
     aa4:	d58058e3          	blez	s8,7f4 <vprintfmt+0x68>
     aa8:	fffc0c1b          	addiw	s8,s8,-1
     aac:	00048593          	mv	a1,s1
     ab0:	02000513          	li	a0,32
     ab4:	000900e7          	jalr	s2
     ab8:	fe0c18e3          	bnez	s8,aa8 <vprintfmt+0x31c>
     abc:	d39ff06f          	j	7f4 <vprintfmt+0x68>
     ac0:	00a00793          	li	a5,10
     ac4:	dcdff06f          	j	890 <vprintfmt+0x104>
     ac8:	01000793          	li	a5,16
     acc:	dc5ff06f          	j	890 <vprintfmt+0x104>
     ad0:	03000513          	li	a0,48
     ad4:	00048593          	mv	a1,s1
     ad8:	000900e7          	jalr	s2
     adc:	00048593          	mv	a1,s1
     ae0:	07800513          	li	a0,120
     ae4:	000900e7          	jalr	s2
     ae8:	01000793          	li	a5,16
     aec:	dadff06f          	j	898 <vprintfmt+0x10c>
     af0:	00048593          	mv	a1,s1
     af4:	02500513          	li	a0,37
     af8:	000900e7          	jalr	s2
     afc:	000b8413          	mv	s0,s7
     b00:	cf5ff06f          	j	7f4 <vprintfmt+0x68>
     b04:	000bc503          	lbu	a0,0(s7)
     b08:	fa0500e3          	beqz	a0,aa8 <vprintfmt+0x31c>
     b0c:	fff00d13          	li	s10,-1
     b10:	f71ff06f          	j	a80 <vprintfmt+0x2f4>
     b14:	000077b7          	lui	a5,0x7
     b18:	31078b93          	addi	s7,a5,784 # 7310 <input1_data+0x2020>
     b1c:	f11ff06f          	j	a2c <vprintfmt+0x2a0>
     b20:	ec0612e3          	bnez	a2,9e4 <vprintfmt+0x258>
     b24:	000aad83          	lw	s11,0(s5)
     b28:	008a8a93          	addi	s5,s5,8
     b2c:	ec1ff06f          	j	9ec <vprintfmt+0x260>
     b30:	00078513          	mv	a0,a5
     b34:	00040713          	mv	a4,s0
     b38:	e15ff06f          	j	94c <vprintfmt+0x1c0>
     b3c:	d4061ee3          	bnez	a2,898 <vprintfmt+0x10c>
     b40:	000aed83          	lwu	s11,0(s5)
     b44:	008a8a93          	addi	s5,s5,8
     b48:	d59ff06f          	j	8a0 <vprintfmt+0x114>
     b4c:	00012423          	sw	zero,8(sp)
     b50:	00100b93          	li	s7,1
     b54:	fffc0d9b          	addiw	s11,s8,-1
     b58:	00000c93          	li	s9,0
     b5c:	d98bc2e3          	blt	s7,s8,8e0 <vprintfmt+0x154>
     b60:	db1ff06f          	j	910 <vprintfmt+0x184>

0000000000000b64 <tohost_exit>:
     b64:	00151513          	slli	a0,a0,0x1
     b68:	00156793          	ori	a5,a0,1
     b6c:	78079073          	csrw	mtohost,a5
     b70:	0000006f          	j	b70 <tohost_exit+0xc>

0000000000000b74 <handle_trap>:
     b74:	ff010113          	addi	sp,sp,-16
     b78:	00813023          	sd	s0,0(sp)
     b7c:	00113423          	sd	ra,8(sp)
     b80:	00200693          	li	a3,2
     b84:	01010413          	addi	s0,sp,16
     b88:	0080076f          	jal	a4,b90 <handle_trap+0x1c>
     b8c:	0c002573          	csrr	a0,stats
     b90:	f8010113          	addi	sp,sp,-128
     b94:	08d50463          	beq	a0,a3,c1c <handle_trap+0xa8>
     b98:	00800713          	li	a4,8
     b9c:	00e50a63          	beq	a0,a4,bb0 <handle_trap+0x3c>
     ba0:	000017b7          	lui	a5,0x1
     ba4:	a7378793          	addi	a5,a5,-1421 # a73 <vprintfmt+0x2e7>
     ba8:	78079073          	csrw	mtohost,a5
     bac:	0000006f          	j	bac <handle_trap+0x38>
     bb0:	08863703          	ld	a4,136(a2)
     bb4:	05d00693          	li	a3,93
     bb8:	2cd70e63          	beq	a4,a3,e94 <handle_trap+0x320>
     bbc:	4d200693          	li	a3,1234
     bc0:	06d70a63          	beq	a4,a3,c34 <handle_trap+0xc0>
     bc4:	05063503          	ld	a0,80(a2)
     bc8:	03f10793          	addi	a5,sp,63
     bcc:	fc07f793          	andi	a5,a5,-64
     bd0:	05863683          	ld	a3,88(a2)
     bd4:	00e7b023          	sd	a4,0(a5)
     bd8:	06063703          	ld	a4,96(a2)
     bdc:	00a7b423          	sd	a0,8(a5)
     be0:	00d7b823          	sd	a3,16(a5)
     be4:	00e7bc23          	sd	a4,24(a5)
     be8:	0330000f          	fence	rw,rw
     bec:	78079073          	csrw	mtohost,a5
     bf0:	00000713          	li	a4,0
     bf4:	781716f3          	csrrw	a3,mfromhost,a4
     bf8:	fe068ee3          	beqz	a3,bf4 <handle_trap+0x80>
     bfc:	0007b783          	ld	a5,0(a5)
     c00:	ff040113          	addi	sp,s0,-16
     c04:	00813083          	ld	ra,8(sp)
     c08:	00458513          	addi	a0,a1,4
     c0c:	00013403          	ld	s0,0(sp)
     c10:	04f63823          	sd	a5,80(a2)
     c14:	01010113          	addi	sp,sp,16
     c18:	00008067          	ret
     c1c:	00072703          	lw	a4,0(a4)
     c20:	0005a783          	lw	a5,0(a1)
     c24:	00f777b3          	and	a5,a4,a5
     c28:	f6f71ce3          	bne	a4,a5,ba0 <handle_trap+0x2c>
     c2c:	00000793          	li	a5,0
     c30:	fd1ff06f          	j	c00 <handle_trap+0x8c>
     c34:	05062703          	lw	a4,80(a2)
     c38:	00070463          	beqz	a4,c40 <handle_trap+0xcc>
     c3c:	0c00e573          	csrrs	a0,stats,1
     c40:	c0002573          	rdcycle	a0
     c44:	000097b7          	lui	a5,0x9
     c48:	4d878793          	addi	a5,a5,1240 # 94d8 <counters>
     c4c:	00071c63          	bnez	a4,c64 <handle_trap+0xf0>
     c50:	0007b683          	ld	a3,0(a5)
     c54:	40d50533          	sub	a0,a0,a3
     c58:	000076b7          	lui	a3,0x7
     c5c:	31868693          	addi	a3,a3,792 # 7318 <input1_data+0x2028>
     c60:	08d7b823          	sd	a3,144(a5)
     c64:	00a7b023          	sd	a0,0(a5)
     c68:	c0202573          	rdinstret	a0
     c6c:	00071c63          	bnez	a4,c84 <handle_trap+0x110>
     c70:	0087b683          	ld	a3,8(a5)
     c74:	40d50533          	sub	a0,a0,a3
     c78:	000076b7          	lui	a3,0x7
     c7c:	32068693          	addi	a3,a3,800 # 7320 <input1_data+0x2030>
     c80:	08d7bc23          	sd	a3,152(a5)
     c84:	00a7b423          	sd	a0,8(a5)
     c88:	cc002573          	csrr	a0,uarch0
     c8c:	00071c63          	bnez	a4,ca4 <handle_trap+0x130>
     c90:	0107b683          	ld	a3,16(a5)
     c94:	40d50533          	sub	a0,a0,a3
     c98:	000076b7          	lui	a3,0x7
     c9c:	32868693          	addi	a3,a3,808 # 7328 <input1_data+0x2038>
     ca0:	0ad7b023          	sd	a3,160(a5)
     ca4:	00a7b823          	sd	a0,16(a5)
     ca8:	cc102573          	csrr	a0,uarch1
     cac:	00071c63          	bnez	a4,cc4 <handle_trap+0x150>
     cb0:	0187b683          	ld	a3,24(a5)
     cb4:	40d50533          	sub	a0,a0,a3
     cb8:	000076b7          	lui	a3,0x7
     cbc:	33068693          	addi	a3,a3,816 # 7330 <input1_data+0x2040>
     cc0:	0ad7b423          	sd	a3,168(a5)
     cc4:	00a7bc23          	sd	a0,24(a5)
     cc8:	cc202573          	csrr	a0,uarch2
     ccc:	00071c63          	bnez	a4,ce4 <handle_trap+0x170>
     cd0:	0207b683          	ld	a3,32(a5)
     cd4:	40d50533          	sub	a0,a0,a3
     cd8:	000076b7          	lui	a3,0x7
     cdc:	33868693          	addi	a3,a3,824 # 7338 <input1_data+0x2048>
     ce0:	0ad7b823          	sd	a3,176(a5)
     ce4:	02a7b023          	sd	a0,32(a5)
     ce8:	cc302573          	csrr	a0,uarch3
     cec:	00071c63          	bnez	a4,d04 <handle_trap+0x190>
     cf0:	0287b683          	ld	a3,40(a5)
     cf4:	40d50533          	sub	a0,a0,a3
     cf8:	000076b7          	lui	a3,0x7
     cfc:	34068693          	addi	a3,a3,832 # 7340 <input1_data+0x2050>
     d00:	0ad7bc23          	sd	a3,184(a5)
     d04:	02a7b423          	sd	a0,40(a5)
     d08:	cc402573          	csrr	a0,uarch4
     d0c:	00071c63          	bnez	a4,d24 <handle_trap+0x1b0>
     d10:	0307b683          	ld	a3,48(a5)
     d14:	40d50533          	sub	a0,a0,a3
     d18:	000076b7          	lui	a3,0x7
     d1c:	34868693          	addi	a3,a3,840 # 7348 <input1_data+0x2058>
     d20:	0cd7b023          	sd	a3,192(a5)
     d24:	02a7b823          	sd	a0,48(a5)
     d28:	cc502573          	csrr	a0,uarch5
     d2c:	00071c63          	bnez	a4,d44 <handle_trap+0x1d0>
     d30:	0387b683          	ld	a3,56(a5)
     d34:	40d50533          	sub	a0,a0,a3
     d38:	000076b7          	lui	a3,0x7
     d3c:	35068693          	addi	a3,a3,848 # 7350 <input1_data+0x2060>
     d40:	0cd7b423          	sd	a3,200(a5)
     d44:	02a7bc23          	sd	a0,56(a5)
     d48:	cc602573          	csrr	a0,uarch6
     d4c:	00071c63          	bnez	a4,d64 <handle_trap+0x1f0>
     d50:	0407b683          	ld	a3,64(a5)
     d54:	40d50533          	sub	a0,a0,a3
     d58:	000076b7          	lui	a3,0x7
     d5c:	35868693          	addi	a3,a3,856 # 7358 <input1_data+0x2068>
     d60:	0cd7b823          	sd	a3,208(a5)
     d64:	04a7b023          	sd	a0,64(a5)
     d68:	cc702573          	csrr	a0,uarch7
     d6c:	00071c63          	bnez	a4,d84 <handle_trap+0x210>
     d70:	0487b683          	ld	a3,72(a5)
     d74:	40d50533          	sub	a0,a0,a3
     d78:	000076b7          	lui	a3,0x7
     d7c:	36068693          	addi	a3,a3,864 # 7360 <input1_data+0x2070>
     d80:	0cd7bc23          	sd	a3,216(a5)
     d84:	04a7b423          	sd	a0,72(a5)
     d88:	cc802573          	csrr	a0,uarch8
     d8c:	00071c63          	bnez	a4,da4 <handle_trap+0x230>
     d90:	0507b683          	ld	a3,80(a5)
     d94:	40d50533          	sub	a0,a0,a3
     d98:	000076b7          	lui	a3,0x7
     d9c:	36868693          	addi	a3,a3,872 # 7368 <input1_data+0x2078>
     da0:	0ed7b023          	sd	a3,224(a5)
     da4:	04a7b823          	sd	a0,80(a5)
     da8:	cc902573          	csrr	a0,uarch9
     dac:	00071c63          	bnez	a4,dc4 <handle_trap+0x250>
     db0:	0587b683          	ld	a3,88(a5)
     db4:	40d50533          	sub	a0,a0,a3
     db8:	000076b7          	lui	a3,0x7
     dbc:	37068693          	addi	a3,a3,880 # 7370 <input1_data+0x2080>
     dc0:	0ed7b423          	sd	a3,232(a5)
     dc4:	04a7bc23          	sd	a0,88(a5)
     dc8:	cca02573          	csrr	a0,uarch10
     dcc:	00071c63          	bnez	a4,de4 <handle_trap+0x270>
     dd0:	0607b683          	ld	a3,96(a5)
     dd4:	40d50533          	sub	a0,a0,a3
     dd8:	000076b7          	lui	a3,0x7
     ddc:	37868693          	addi	a3,a3,888 # 7378 <input1_data+0x2088>
     de0:	0ed7b823          	sd	a3,240(a5)
     de4:	06a7b023          	sd	a0,96(a5)
     de8:	ccb02573          	csrr	a0,uarch11
     dec:	00071c63          	bnez	a4,e04 <handle_trap+0x290>
     df0:	0687b683          	ld	a3,104(a5)
     df4:	40d50533          	sub	a0,a0,a3
     df8:	000076b7          	lui	a3,0x7
     dfc:	38068693          	addi	a3,a3,896 # 7380 <input1_data+0x2090>
     e00:	0ed7bc23          	sd	a3,248(a5)
     e04:	06a7b423          	sd	a0,104(a5)
     e08:	ccc02573          	csrr	a0,uarch12
     e0c:	00071c63          	bnez	a4,e24 <handle_trap+0x2b0>
     e10:	0707b683          	ld	a3,112(a5)
     e14:	40d50533          	sub	a0,a0,a3
     e18:	000076b7          	lui	a3,0x7
     e1c:	38868693          	addi	a3,a3,904 # 7388 <input1_data+0x2098>
     e20:	10d7b023          	sd	a3,256(a5)
     e24:	06a7b823          	sd	a0,112(a5)
     e28:	ccd02573          	csrr	a0,uarch13
     e2c:	00071c63          	bnez	a4,e44 <handle_trap+0x2d0>
     e30:	0787b683          	ld	a3,120(a5)
     e34:	40d50533          	sub	a0,a0,a3
     e38:	000076b7          	lui	a3,0x7
     e3c:	39068693          	addi	a3,a3,912 # 7390 <input1_data+0x20a0>
     e40:	10d7b423          	sd	a3,264(a5)
     e44:	06a7bc23          	sd	a0,120(a5)
     e48:	cce02573          	csrr	a0,uarch14
     e4c:	00071c63          	bnez	a4,e64 <handle_trap+0x2f0>
     e50:	0807b683          	ld	a3,128(a5)
     e54:	40d50533          	sub	a0,a0,a3
     e58:	000076b7          	lui	a3,0x7
     e5c:	39868693          	addi	a3,a3,920 # 7398 <input1_data+0x20a8>
     e60:	10d7b823          	sd	a3,272(a5)
     e64:	08a7b023          	sd	a0,128(a5)
     e68:	ccf02573          	csrr	a0,uarch15
     e6c:	02071863          	bnez	a4,e9c <handle_trap+0x328>
     e70:	0887b703          	ld	a4,136(a5)
     e74:	40e50533          	sub	a0,a0,a4
     e78:	00007737          	lui	a4,0x7
     e7c:	3a070713          	addi	a4,a4,928 # 73a0 <input1_data+0x20b0>
     e80:	10e7bc23          	sd	a4,280(a5)
     e84:	08a7b423          	sd	a0,136(a5)
     e88:	0c00f573          	csrrc	a0,stats,1
     e8c:	00000793          	li	a5,0
     e90:	d71ff06f          	j	c00 <handle_trap+0x8c>
     e94:	05063503          	ld	a0,80(a2)
     e98:	ccdff0ef          	jal	b64 <tohost_exit>
     e9c:	08a7b423          	sd	a0,136(a5)
     ea0:	d8dff06f          	j	c2c <handle_trap+0xb8>

0000000000000ea4 <exit>:
     ea4:	05d00893          	li	a7,93
     ea8:	00000593          	li	a1,0
     eac:	00000613          	li	a2,0
     eb0:	00000073          	ecall
     eb4:	0000006f          	j	eb4 <exit+0x10>

0000000000000eb8 <setStats>:
     eb8:	4d200893          	li	a7,1234
     ebc:	00000593          	li	a1,0
     ec0:	00000613          	li	a2,0
     ec4:	00000073          	ecall
     ec8:	00008067          	ret

0000000000000ecc <printstr>:
     ecc:	ff010113          	addi	sp,sp,-16
     ed0:	00813023          	sd	s0,0(sp)
     ed4:	00113423          	sd	ra,8(sp)
     ed8:	00050413          	mv	s0,a0
     edc:	45c000ef          	jal	1338 <strlen>
     ee0:	00050613          	mv	a2,a0
     ee4:	04000893          	li	a7,64
     ee8:	00100513          	li	a0,1
     eec:	00040593          	mv	a1,s0
     ef0:	00000073          	ecall
     ef4:	00813083          	ld	ra,8(sp)
     ef8:	00013403          	ld	s0,0(sp)
     efc:	01010113          	addi	sp,sp,16
     f00:	00008067          	ret
     f04:	00050463          	beqz	a0,f0c <printstr+0x40>
     f08:	0000006f          	j	f08 <printstr+0x3c>
     f0c:	00008067          	ret

0000000000000f10 <printhex>:
     f10:	fd010113          	addi	sp,sp,-48
     f14:	02113423          	sd	ra,40(sp)
     f18:	01710713          	addi	a4,sp,23
     f1c:	00710613          	addi	a2,sp,7
     f20:	00f57793          	andi	a5,a0,15
     f24:	00a7b793          	sltiu	a5,a5,10
     f28:	40f007b3          	neg	a5,a5
     f2c:	fd97f793          	andi	a5,a5,-39
     f30:	00f57693          	andi	a3,a0,15
     f34:	05778793          	addi	a5,a5,87
     f38:	00d787bb          	addw	a5,a5,a3
     f3c:	00f70023          	sb	a5,0(a4)
     f40:	fff70713          	addi	a4,a4,-1
     f44:	00455513          	srli	a0,a0,0x4
     f48:	fcc71ce3          	bne	a4,a2,f20 <printhex+0x10>
     f4c:	00810513          	addi	a0,sp,8
     f50:	00010c23          	sb	zero,24(sp)
     f54:	3e4000ef          	jal	1338 <strlen>
     f58:	00050613          	mv	a2,a0
     f5c:	04000893          	li	a7,64
     f60:	00100513          	li	a0,1
     f64:	00810593          	addi	a1,sp,8
     f68:	00000073          	ecall
     f6c:	02813083          	ld	ra,40(sp)
     f70:	03010113          	addi	sp,sp,48
     f74:	00008067          	ret

0000000000000f78 <printf>:
     f78:	fa010113          	addi	sp,sp,-96
     f7c:	02810313          	addi	t1,sp,40
     f80:	02c13823          	sd	a2,48(sp)
     f84:	00050613          	mv	a2,a0
     f88:	02b13423          	sd	a1,40(sp)
     f8c:	02d13c23          	sd	a3,56(sp)
     f90:	72400513          	li	a0,1828
     f94:	00030693          	mv	a3,t1
     f98:	00000593          	li	a1,0
     f9c:	00113c23          	sd	ra,24(sp)
     fa0:	04e13023          	sd	a4,64(sp)
     fa4:	04f13423          	sd	a5,72(sp)
     fa8:	05013823          	sd	a6,80(sp)
     fac:	05113c23          	sd	a7,88(sp)
     fb0:	00613423          	sd	t1,8(sp)
     fb4:	fd8ff0ef          	jal	78c <vprintfmt>
     fb8:	01813083          	ld	ra,24(sp)
     fbc:	00000513          	li	a0,0
     fc0:	06010113          	addi	sp,sp,96
     fc4:	00008067          	ret

0000000000000fc8 <sprintf>:
     fc8:	fa010113          	addi	sp,sp,-96
     fcc:	03010313          	addi	t1,sp,48
     fd0:	02813023          	sd	s0,32(sp)
     fd4:	00a13423          	sd	a0,8(sp)
     fd8:	00050413          	mv	s0,a0
     fdc:	02c13823          	sd	a2,48(sp)
     fe0:	02d13c23          	sd	a3,56(sp)
     fe4:	00058613          	mv	a2,a1
     fe8:	77400513          	li	a0,1908
     fec:	00810593          	addi	a1,sp,8
     ff0:	00030693          	mv	a3,t1
     ff4:	02113423          	sd	ra,40(sp)
     ff8:	04f13423          	sd	a5,72(sp)
     ffc:	04e13023          	sd	a4,64(sp)
    1000:	05013823          	sd	a6,80(sp)
    1004:	05113c23          	sd	a7,88(sp)
    1008:	00613c23          	sd	t1,24(sp)
    100c:	f80ff0ef          	jal	78c <vprintfmt>
    1010:	00813783          	ld	a5,8(sp)
    1014:	00078023          	sb	zero,0(a5)
    1018:	00813503          	ld	a0,8(sp)
    101c:	02813083          	ld	ra,40(sp)
    1020:	4085053b          	subw	a0,a0,s0
    1024:	02013403          	ld	s0,32(sp)
    1028:	06010113          	addi	sp,sp,96
    102c:	00008067          	ret

0000000000001030 <_init>:
    1030:	fb010113          	addi	sp,sp,-80
    1034:	02913c23          	sd	s1,56(sp)
    1038:	03213823          	sd	s2,48(sp)
    103c:	00020913          	mv	s2,tp
    1040:	00020493          	mv	s1,tp
    1044:	409904b3          	sub	s1,s2,s1
    1048:	03413023          	sd	s4,32(sp)
    104c:	00058a13          	mv	s4,a1
    1050:	000095b7          	lui	a1,0x9
    1054:	04113423          	sd	ra,72(sp)
    1058:	04813023          	sd	s0,64(sp)
    105c:	03313423          	sd	s3,40(sp)
    1060:	05010413          	addi	s0,sp,80
    1064:	01513c23          	sd	s5,24(sp)
    1068:	01613823          	sd	s6,16(sp)
    106c:	01713423          	sd	s7,8(sp)
    1070:	00050993          	mv	s3,a0
    1074:	d8010113          	addi	sp,sp,-640
    1078:	00020513          	mv	a0,tp
    107c:	00048613          	mv	a2,s1
    1080:	60058593          	addi	a1,a1,1536 # 9600 <_end>
    1084:	00020b13          	mv	s6,tp
    1088:	0b4000ef          	jal	113c <memcpy>
    108c:	08420613          	addi	a2,tp,132 # 84 <_tbss_end>
    1090:	41260633          	sub	a2,a2,s2
    1094:	009b0533          	add	a0,s6,s1
    1098:	00000593          	li	a1,0
    109c:	1c0000ef          	jal	125c <memset>
    10a0:	000a0593          	mv	a1,s4
    10a4:	00098513          	mv	a0,s3
    10a8:	ca8ff0ef          	jal	550 <thread_entry>
    10ac:	000094b7          	lui	s1,0x9
    10b0:	03f10a93          	addi	s5,sp,63
    10b4:	00000593          	li	a1,0
    10b8:	00000513          	li	a0,0
    10bc:	4d848493          	addi	s1,s1,1240 # 94d8 <counters>
    10c0:	fc0afa93          	andi	s5,s5,-64
    10c4:	388000ef          	jal	144c <main>
    10c8:	09048913          	addi	s2,s1,144
    10cc:	00050b93          	mv	s7,a0
    10d0:	00090993          	mv	s3,s2
    10d4:	000a8a13          	mv	s4,s5
    10d8:	00007b37          	lui	s6,0x7
    10dc:	0100006f          	j	10ec <_init+0xbc>
    10e0:	00848493          	addi	s1,s1,8
    10e4:	00890913          	addi	s2,s2,8
    10e8:	03348663          	beq	s1,s3,1114 <_init+0xe4>
    10ec:	0004b683          	ld	a3,0(s1)
    10f0:	fe0688e3          	beqz	a3,10e0 <_init+0xb0>
    10f4:	00093603          	ld	a2,0(s2)
    10f8:	000a0513          	mv	a0,s4
    10fc:	3c0b0593          	addi	a1,s6,960 # 73c0 <input1_data+0x20d0>
    1100:	ec9ff0ef          	jal	fc8 <sprintf>
    1104:	00848493          	addi	s1,s1,8
    1108:	00aa0a33          	add	s4,s4,a0
    110c:	00890913          	addi	s2,s2,8
    1110:	fd349ee3          	bne	s1,s3,10ec <_init+0xbc>
    1114:	034a8063          	beq	s5,s4,1134 <_init+0x104>
    1118:	000a8513          	mv	a0,s5
    111c:	21c000ef          	jal	1338 <strlen>
    1120:	00050613          	mv	a2,a0
    1124:	04000893          	li	a7,64
    1128:	00100513          	li	a0,1
    112c:	000a8593          	mv	a1,s5
    1130:	00000073          	ecall
    1134:	000b8513          	mv	a0,s7
    1138:	d6dff0ef          	jal	ea4 <exit>

000000000000113c <memcpy>:
    113c:	00a5c7b3          	xor	a5,a1,a0
    1140:	0077f793          	andi	a5,a5,7
    1144:	00c508b3          	add	a7,a0,a2
    1148:	0e079263          	bnez	a5,122c <memcpy+0xf0>
    114c:	00700793          	li	a5,7
    1150:	0ec7fe63          	bleu	a2,a5,124c <memcpy+0x110>
    1154:	00757793          	andi	a5,a0,7
    1158:	04079a63          	bnez	a5,11ac <memcpy+0x70>
    115c:	ff88f813          	andi	a6,a7,-8
    1160:	fc080793          	addi	a5,a6,-64
    1164:	00050713          	mv	a4,a0
    1168:	06f56663          	bltu	a0,a5,11d4 <memcpy+0x98>
    116c:	00058693          	mv	a3,a1
    1170:	00070793          	mv	a5,a4
    1174:	03077863          	bleu	a6,a4,11a4 <memcpy+0x68>
    1178:	0006b603          	ld	a2,0(a3)
    117c:	00878793          	addi	a5,a5,8
    1180:	00868693          	addi	a3,a3,8
    1184:	fec7bc23          	sd	a2,-8(a5)
    1188:	ff07e8e3          	bltu	a5,a6,1178 <memcpy+0x3c>
    118c:	fff74793          	not	a5,a4
    1190:	01078833          	add	a6,a5,a6
    1194:	ff887813          	andi	a6,a6,-8
    1198:	00880813          	addi	a6,a6,8
    119c:	01070733          	add	a4,a4,a6
    11a0:	010585b3          	add	a1,a1,a6
    11a4:	09176863          	bltu	a4,a7,1234 <memcpy+0xf8>
    11a8:	00008067          	ret
    11ac:	00050713          	mv	a4,a0
    11b0:	0005c683          	lbu	a3,0(a1)
    11b4:	00170713          	addi	a4,a4,1
    11b8:	00777793          	andi	a5,a4,7
    11bc:	fed70fa3          	sb	a3,-1(a4)
    11c0:	00158593          	addi	a1,a1,1
    11c4:	fe0796e3          	bnez	a5,11b0 <memcpy+0x74>
    11c8:	ff88f813          	andi	a6,a7,-8
    11cc:	fc080793          	addi	a5,a6,-64
    11d0:	f8f77ee3          	bleu	a5,a4,116c <memcpy+0x30>
    11d4:	0005b383          	ld	t2,0(a1)
    11d8:	0085b283          	ld	t0,8(a1)
    11dc:	0105bf83          	ld	t6,16(a1)
    11e0:	0185bf03          	ld	t5,24(a1)
    11e4:	0205be83          	ld	t4,32(a1)
    11e8:	0285be03          	ld	t3,40(a1)
    11ec:	0305b303          	ld	t1,48(a1)
    11f0:	0385b603          	ld	a2,56(a1)
    11f4:	04858593          	addi	a1,a1,72
    11f8:	04870713          	addi	a4,a4,72
    11fc:	ff85b683          	ld	a3,-8(a1)
    1200:	fa773c23          	sd	t2,-72(a4)
    1204:	fc573023          	sd	t0,-64(a4)
    1208:	fdf73423          	sd	t6,-56(a4)
    120c:	fde73823          	sd	t5,-48(a4)
    1210:	fdd73c23          	sd	t4,-40(a4)
    1214:	ffc73023          	sd	t3,-32(a4)
    1218:	fe673423          	sd	t1,-24(a4)
    121c:	fec73823          	sd	a2,-16(a4)
    1220:	fed73c23          	sd	a3,-8(a4)
    1224:	faf768e3          	bltu	a4,a5,11d4 <memcpy+0x98>
    1228:	f45ff06f          	j	116c <memcpy+0x30>
    122c:	00050713          	mv	a4,a0
    1230:	03157463          	bleu	a7,a0,1258 <memcpy+0x11c>
    1234:	0005c783          	lbu	a5,0(a1)
    1238:	00170713          	addi	a4,a4,1
    123c:	00158593          	addi	a1,a1,1
    1240:	fef70fa3          	sb	a5,-1(a4)
    1244:	ff1768e3          	bltu	a4,a7,1234 <memcpy+0xf8>
    1248:	00008067          	ret
    124c:	00050713          	mv	a4,a0
    1250:	ff1562e3          	bltu	a0,a7,1234 <memcpy+0xf8>
    1254:	f55ff06f          	j	11a8 <memcpy+0x6c>
    1258:	00008067          	ret

000000000000125c <memset>:
    125c:	00f00813          	li	a6,15
    1260:	00050713          	mv	a4,a0
    1264:	02c87a63          	bleu	a2,a6,1298 <memset+0x3c>
    1268:	00f77793          	andi	a5,a4,15
    126c:	0a079063          	bnez	a5,130c <memset+0xb0>
    1270:	06059e63          	bnez	a1,12ec <memset+0x90>
    1274:	ff067693          	andi	a3,a2,-16
    1278:	00f67613          	andi	a2,a2,15
    127c:	00e686b3          	add	a3,a3,a4
    1280:	00b73023          	sd	a1,0(a4)
    1284:	00b73423          	sd	a1,8(a4)
    1288:	01070713          	addi	a4,a4,16
    128c:	fed76ae3          	bltu	a4,a3,1280 <memset+0x24>
    1290:	00061463          	bnez	a2,1298 <memset+0x3c>
    1294:	00008067          	ret
    1298:	40c806b3          	sub	a3,a6,a2
    129c:	00269693          	slli	a3,a3,0x2
    12a0:	00000297          	auipc	t0,0x0
    12a4:	005686b3          	add	a3,a3,t0
    12a8:	00c68067          	jr	a3,12
    12ac:	00b70723          	sb	a1,14(a4)
    12b0:	00b706a3          	sb	a1,13(a4)
    12b4:	00b70623          	sb	a1,12(a4)
    12b8:	00b705a3          	sb	a1,11(a4)
    12bc:	00b70523          	sb	a1,10(a4)
    12c0:	00b704a3          	sb	a1,9(a4)
    12c4:	00b70423          	sb	a1,8(a4)
    12c8:	00b703a3          	sb	a1,7(a4)
    12cc:	00b70323          	sb	a1,6(a4)
    12d0:	00b702a3          	sb	a1,5(a4)
    12d4:	00b70223          	sb	a1,4(a4)
    12d8:	00b701a3          	sb	a1,3(a4)
    12dc:	00b70123          	sb	a1,2(a4)
    12e0:	00b700a3          	sb	a1,1(a4)
    12e4:	00b70023          	sb	a1,0(a4)
    12e8:	00008067          	ret
    12ec:	0ff5f593          	andi	a1,a1,255
    12f0:	00859693          	slli	a3,a1,0x8
    12f4:	00d5e5b3          	or	a1,a1,a3
    12f8:	01059693          	slli	a3,a1,0x10
    12fc:	00d5e5b3          	or	a1,a1,a3
    1300:	02059693          	slli	a3,a1,0x20
    1304:	00d5e5b3          	or	a1,a1,a3
    1308:	f6dff06f          	j	1274 <memset+0x18>
    130c:	00279693          	slli	a3,a5,0x2
    1310:	00000297          	auipc	t0,0x0
    1314:	005686b3          	add	a3,a3,t0
    1318:	00008293          	mv	t0,ra
    131c:	f98680e7          	jalr	a3,-104
    1320:	00028093          	mv	ra,t0
    1324:	ff078793          	addi	a5,a5,-16
    1328:	40f70733          	sub	a4,a4,a5
    132c:	00f60633          	add	a2,a2,a5
    1330:	f6c874e3          	bleu	a2,a6,1298 <memset+0x3c>
    1334:	f3dff06f          	j	1270 <memset+0x14>

0000000000001338 <strlen>:
    1338:	00757793          	andi	a5,a0,7
    133c:	00050593          	mv	a1,a0
    1340:	06079a63          	bnez	a5,13b4 <strlen+0x7c>
    1344:	000077b7          	lui	a5,0x7
    1348:	2307b683          	ld	a3,560(a5) # 7230 <input1_data+0x1f40>
    134c:	fff00613          	li	a2,-1
    1350:	00850513          	addi	a0,a0,8
    1354:	ff853783          	ld	a5,-8(a0)
    1358:	00d7f733          	and	a4,a5,a3
    135c:	00d70733          	add	a4,a4,a3
    1360:	00d7e7b3          	or	a5,a5,a3
    1364:	00f767b3          	or	a5,a4,a5
    1368:	fec784e3          	beq	a5,a2,1350 <strlen+0x18>
    136c:	ff854783          	lbu	a5,-8(a0)
    1370:	40b505b3          	sub	a1,a0,a1
    1374:	06078263          	beqz	a5,13d8 <strlen+0xa0>
    1378:	ff954783          	lbu	a5,-7(a0)
    137c:	04078a63          	beqz	a5,13d0 <strlen+0x98>
    1380:	ffa54783          	lbu	a5,-6(a0)
    1384:	06078263          	beqz	a5,13e8 <strlen+0xb0>
    1388:	ffb54783          	lbu	a5,-5(a0)
    138c:	04078a63          	beqz	a5,13e0 <strlen+0xa8>
    1390:	ffc54783          	lbu	a5,-4(a0)
    1394:	ffd54703          	lbu	a4,-3(a0)
    1398:	ffe54683          	lbu	a3,-2(a0)
    139c:	04078a63          	beqz	a5,13f0 <strlen+0xb8>
    13a0:	04070c63          	beqz	a4,13f8 <strlen+0xc0>
    13a4:	fff58513          	addi	a0,a1,-1
    13a8:	04068c63          	beqz	a3,1400 <strlen+0xc8>
    13ac:	00008067          	ret
    13b0:	f8070ae3          	beqz	a4,1344 <strlen+0xc>
    13b4:	00054783          	lbu	a5,0(a0)
    13b8:	00150513          	addi	a0,a0,1
    13bc:	00757713          	andi	a4,a0,7
    13c0:	fe0798e3          	bnez	a5,13b0 <strlen+0x78>
    13c4:	40b50533          	sub	a0,a0,a1
    13c8:	fff50513          	addi	a0,a0,-1
    13cc:	00008067          	ret
    13d0:	ff958513          	addi	a0,a1,-7
    13d4:	00008067          	ret
    13d8:	ff858513          	addi	a0,a1,-8
    13dc:	00008067          	ret
    13e0:	ffb58513          	addi	a0,a1,-5
    13e4:	00008067          	ret
    13e8:	ffa58513          	addi	a0,a1,-6
    13ec:	00008067          	ret
    13f0:	ffc58513          	addi	a0,a1,-4
    13f4:	00008067          	ret
    13f8:	ffd58513          	addi	a0,a1,-3
    13fc:	00008067          	ret
    1400:	ffe58513          	addi	a0,a1,-2
    1404:	00008067          	ret

0000000000001408 <strnlen>:
    1408:	02058e63          	beqz	a1,1444 <strnlen+0x3c>
    140c:	00054783          	lbu	a5,0(a0)
    1410:	02078a63          	beqz	a5,1444 <strnlen+0x3c>
    1414:	00150793          	addi	a5,a0,1
    1418:	00b505b3          	add	a1,a0,a1
    141c:	0100006f          	j	142c <strnlen+0x24>
    1420:	fff74683          	lbu	a3,-1(a4)
    1424:	00068c63          	beqz	a3,143c <strnlen+0x34>
    1428:	00070793          	mv	a5,a4
    142c:	00178713          	addi	a4,a5,1
    1430:	fef598e3          	bne	a1,a5,1420 <strnlen+0x18>
    1434:	40a58533          	sub	a0,a1,a0
    1438:	00008067          	ret
    143c:	40a78533          	sub	a0,a5,a0
    1440:	00008067          	ret
    1444:	00000513          	li	a0,0
    1448:	00008067          	ret

Disassembly of section .text.startup:

000000000000144c <main>:
    144c:	000075b7          	lui	a1,0x7
    1450:	04000893          	li	a7,64
    1454:	00100513          	li	a0,1
    1458:	3a858593          	addi	a1,a1,936 # 73a8 <input1_data+0x20b8>
    145c:	01700613          	li	a2,23
    1460:	00000073          	ecall
    1464:	fff00513          	li	a0,-1
    1468:	00008067          	ret
