
qsort.riscv:     file format elf64-littleriscv


Disassembly of section .text:

0000000000000100 <user_trap_entry>:
     100:	2940006f          	j	394 <trap_entry>
     104:	00000013          	nop
     108:	00000013          	nop
     10c:	00000013          	nop
     110:	00000013          	nop
     114:	00000013          	nop
     118:	00000013          	nop
     11c:	00000013          	nop
     120:	00000013          	nop
     124:	00000013          	nop
     128:	00000013          	nop
     12c:	00000013          	nop
     130:	00000013          	nop
     134:	00000013          	nop
     138:	00000013          	nop
     13c:	00000013          	nop

0000000000000140 <supervisor_trap_entry>:
     140:	0000006f          	j	140 <supervisor_trap_entry>
     144:	00000013          	nop
     148:	00000013          	nop
     14c:	00000013          	nop
     150:	00000013          	nop
     154:	00000013          	nop
     158:	00000013          	nop
     15c:	00000013          	nop
     160:	00000013          	nop
     164:	00000013          	nop
     168:	00000013          	nop
     16c:	00000013          	nop
     170:	00000013          	nop
     174:	00000013          	nop
     178:	00000013          	nop
     17c:	00000013          	nop

0000000000000180 <hypervisor_trap_entry>:
     180:	0000006f          	j	180 <hypervisor_trap_entry>
     184:	00000013          	nop
     188:	00000013          	nop
     18c:	00000013          	nop
     190:	00000013          	nop
     194:	00000013          	nop
     198:	00000013          	nop
     19c:	00000013          	nop
     1a0:	00000013          	nop
     1a4:	00000013          	nop
     1a8:	00000013          	nop
     1ac:	00000013          	nop
     1b0:	00000013          	nop
     1b4:	00000013          	nop
     1b8:	00000013          	nop
     1bc:	00000013          	nop

00000000000001c0 <machine_trap_entry>:
     1c0:	1d40006f          	j	394 <trap_entry>
     1c4:	00000013          	nop
     1c8:	00000013          	nop
     1cc:	00000013          	nop
     1d0:	00000013          	nop
     1d4:	00000013          	nop
     1d8:	00000013          	nop
     1dc:	00000013          	nop
     1e0:	00000013          	nop
     1e4:	00000013          	nop
     1e8:	00000013          	nop
     1ec:	00000013          	nop
     1f0:	00000013          	nop
     1f4:	00000013          	nop
     1f8:	00000013          	nop
     1fc:	00000013          	nop

0000000000000200 <_start>:
     200:	00000093          	li	ra,0
     204:	00000113          	li	sp,0
     208:	00000193          	li	gp,0
     20c:	00000213          	li	tp,0
     210:	00000293          	li	t0,0
     214:	00000313          	li	t1,0
     218:	00000393          	li	t2,0
     21c:	00000413          	li	s0,0
     220:	00000493          	li	s1,0
     224:	00000513          	li	a0,0
     228:	00000593          	li	a1,0
     22c:	00000613          	li	a2,0
     230:	00000693          	li	a3,0
     234:	00000713          	li	a4,0
     238:	00000793          	li	a5,0
     23c:	00000813          	li	a6,0
     240:	00000893          	li	a7,0
     244:	00000913          	li	s2,0
     248:	00000993          	li	s3,0
     24c:	00000a13          	li	s4,0
     250:	00000a93          	li	s5,0
     254:	00000b13          	li	s6,0
     258:	00000b93          	li	s7,0
     25c:	00000c13          	li	s8,0
     260:	00000c93          	li	s9,0
     264:	00000d13          	li	s10,0
     268:	00000d93          	li	s11,0
     26c:	00000e13          	li	t3,0
     270:	00000e93          	li	t4,0
     274:	00000f13          	li	t5,0
     278:	00000f93          	li	t6,0
     27c:	03000293          	li	t0,48
     280:	3002b073          	csrc	mstatus,t0
     284:	00800293          	li	t0,8
     288:	3002a073          	csrs	mstatus,t0
     28c:	000032b7          	lui	t0,0x3
     290:	3002a073          	csrs	mstatus,t0
     294:	0000c2b7          	lui	t0,0xc
     298:	3002a073          	csrs	mstatus,t0
     29c:	f00022f3          	csrr	t0,mcpuid
     2a0:	0002c663          	bltz	t0,2ac <_start+0xac>
     2a4:	4d200513          	li	a0,1234
     2a8:	0250006f          	j	acc <tohost_exit>
     2ac:	300022f3          	csrr	t0,mstatus
     2b0:	0000c337          	lui	t1,0xc
     2b4:	0062f333          	and	t1,t0,t1
     2b8:	00005397          	auipc	t2,0x5
     2bc:	4263a023          	sw	t1,1056(t2) # 56d8 <have_vec>
     2c0:	00003337          	lui	t1,0x3
     2c4:	0062f333          	and	t1,t0,t1
     2c8:	08030463          	beqz	t1,350 <_start+0x150>
     2cc:	00301073          	fssr	zero
     2d0:	f0000053          	fmv.s.x	ft0,zero
     2d4:	f00000d3          	fmv.s.x	ft1,zero
     2d8:	f0000153          	fmv.s.x	ft2,zero
     2dc:	f00001d3          	fmv.s.x	ft3,zero
     2e0:	f0000253          	fmv.s.x	ft4,zero
     2e4:	f00002d3          	fmv.s.x	ft5,zero
     2e8:	f0000353          	fmv.s.x	ft6,zero
     2ec:	f00003d3          	fmv.s.x	ft7,zero
     2f0:	f0000453          	fmv.s.x	fs0,zero
     2f4:	f00004d3          	fmv.s.x	fs1,zero
     2f8:	f0000553          	fmv.s.x	fa0,zero
     2fc:	f00005d3          	fmv.s.x	fa1,zero
     300:	f0000653          	fmv.s.x	fa2,zero
     304:	f00006d3          	fmv.s.x	fa3,zero
     308:	f0000753          	fmv.s.x	fa4,zero
     30c:	f00007d3          	fmv.s.x	fa5,zero
     310:	f0000853          	fmv.s.x	fa6,zero
     314:	f00008d3          	fmv.s.x	fa7,zero
     318:	f0000953          	fmv.s.x	fs2,zero
     31c:	f00009d3          	fmv.s.x	fs3,zero
     320:	f0000a53          	fmv.s.x	fs4,zero
     324:	f0000ad3          	fmv.s.x	fs5,zero
     328:	f0000b53          	fmv.s.x	fs6,zero
     32c:	f0000bd3          	fmv.s.x	fs7,zero
     330:	f0000c53          	fmv.s.x	fs8,zero
     334:	f0000cd3          	fmv.s.x	fs9,zero
     338:	f0000d53          	fmv.s.x	fs10,zero
     33c:	f0000dd3          	fmv.s.x	fs11,zero
     340:	f0000e53          	fmv.s.x	ft8,zero
     344:	f0000ed3          	fmv.s.x	ft9,zero
     348:	f0000f53          	fmv.s.x	ft10,zero
     34c:	f0000fd3          	fmv.s.x	ft11,zero
     350:	00006197          	auipc	gp,0x6
     354:	90818193          	addi	gp,gp,-1784 # 5c58 <_gp>
     358:	00005217          	auipc	tp,0x5
     35c:	4e720213          	addi	tp,tp,1255 # 583f <_end+0x3f>
     360:	fc027213          	andi	tp,tp,-64
     364:	f1002573          	csrr	a0,mhartid
     368:	00100593          	li	a1,1
     36c:	00b57063          	bleu	a1,a0,36c <_start+0x16c>
     370:	01151613          	slli	a2,a0,0x11
     374:	00c20233          	add	tp,tp,a2
     378:	00150113          	addi	sp,a0,1
     37c:	01111113          	slli	sp,sp,0x11
     380:	00410133          	add	sp,sp,tp
     384:	00001297          	auipc	t0,0x1
     388:	c1028293          	addi	t0,t0,-1008 # f94 <_init>
     38c:	34129073          	csrw	mepc,t0
     390:	10000073          	eret

0000000000000394 <trap_entry>:
     394:	ef010113          	addi	sp,sp,-272
     398:	00113423          	sd	ra,8(sp)
     39c:	00213823          	sd	sp,16(sp)
     3a0:	00313c23          	sd	gp,24(sp)
     3a4:	02413023          	sd	tp,32(sp)
     3a8:	02513423          	sd	t0,40(sp)
     3ac:	02613823          	sd	t1,48(sp)
     3b0:	02713c23          	sd	t2,56(sp)
     3b4:	04813023          	sd	s0,64(sp)
     3b8:	04913423          	sd	s1,72(sp)
     3bc:	04a13823          	sd	a0,80(sp)
     3c0:	04b13c23          	sd	a1,88(sp)
     3c4:	06c13023          	sd	a2,96(sp)
     3c8:	06d13423          	sd	a3,104(sp)
     3cc:	06e13823          	sd	a4,112(sp)
     3d0:	06f13c23          	sd	a5,120(sp)
     3d4:	09013023          	sd	a6,128(sp)
     3d8:	09113423          	sd	a7,136(sp)
     3dc:	09213823          	sd	s2,144(sp)
     3e0:	09313c23          	sd	s3,152(sp)
     3e4:	0b413023          	sd	s4,160(sp)
     3e8:	0b513423          	sd	s5,168(sp)
     3ec:	0b613823          	sd	s6,176(sp)
     3f0:	0b713c23          	sd	s7,184(sp)
     3f4:	0d813023          	sd	s8,192(sp)
     3f8:	0d913423          	sd	s9,200(sp)
     3fc:	0da13823          	sd	s10,208(sp)
     400:	0db13c23          	sd	s11,216(sp)
     404:	0fc13023          	sd	t3,224(sp)
     408:	0fd13423          	sd	t4,232(sp)
     40c:	0fe13823          	sd	t5,240(sp)
     410:	0ff13c23          	sd	t6,248(sp)
     414:	34202573          	csrr	a0,mcause
     418:	341025f3          	csrr	a1,mepc
     41c:	00010613          	mv	a2,sp
     420:	6bc000ef          	jal	adc <handle_trap>
     424:	34151073          	csrw	mepc,a0
     428:	00813083          	ld	ra,8(sp)
     42c:	01013103          	ld	sp,16(sp)
     430:	01813183          	ld	gp,24(sp)
     434:	02013203          	ld	tp,32(sp)
     438:	02813283          	ld	t0,40(sp)
     43c:	03013303          	ld	t1,48(sp)
     440:	03813383          	ld	t2,56(sp)
     444:	04013403          	ld	s0,64(sp)
     448:	04813483          	ld	s1,72(sp)
     44c:	05013503          	ld	a0,80(sp)
     450:	05813583          	ld	a1,88(sp)
     454:	06013603          	ld	a2,96(sp)
     458:	06813683          	ld	a3,104(sp)
     45c:	07013703          	ld	a4,112(sp)
     460:	07813783          	ld	a5,120(sp)
     464:	08013803          	ld	a6,128(sp)
     468:	08813883          	ld	a7,136(sp)
     46c:	09013903          	ld	s2,144(sp)
     470:	09813983          	ld	s3,152(sp)
     474:	0a013a03          	ld	s4,160(sp)
     478:	0a813a83          	ld	s5,168(sp)
     47c:	0b013b03          	ld	s6,176(sp)
     480:	0b813b83          	ld	s7,184(sp)
     484:	0c013c03          	ld	s8,192(sp)
     488:	0c813c83          	ld	s9,200(sp)
     48c:	0d013d03          	ld	s10,208(sp)
     490:	0d813d83          	ld	s11,216(sp)
     494:	0e013e03          	ld	t3,224(sp)
     498:	0e813e83          	ld	t4,232(sp)
     49c:	0f013f03          	ld	t5,240(sp)
     4a0:	0f813f83          	ld	t6,248(sp)
     4a4:	11010113          	addi	sp,sp,272
     4a8:	10000073          	eret

00000000000004ac <verify.constprop.2>:
     4ac:	000017b7          	lui	a5,0x1
     4b0:	45878793          	addi	a5,a5,1112 # 1458 <input_data>
     4b4:	00000713          	li	a4,0
     4b8:	0007a603          	lw	a2,0(a5)
     4bc:	00052683          	lw	a3,0(a0)
     4c0:	0047a803          	lw	a6,4(a5)
     4c4:	00452583          	lw	a1,4(a0)
     4c8:	02d61263          	bne	a2,a3,4ec <verify.constprop.2+0x40>
     4cc:	00878793          	addi	a5,a5,8
     4d0:	02b81263          	bne	a6,a1,4f4 <verify.constprop.2+0x48>
     4d4:	0027071b          	addiw	a4,a4,2
     4d8:	8007069b          	addiw	a3,a4,-2048
     4dc:	00850513          	addi	a0,a0,8
     4e0:	fc069ce3          	bnez	a3,4b8 <verify.constprop.2+0xc>
     4e4:	00000513          	li	a0,0
     4e8:	00008067          	ret
     4ec:	0017051b          	addiw	a0,a4,1
     4f0:	00008067          	ret
     4f4:	0027051b          	addiw	a0,a4,2
     4f8:	00008067          	ret

00000000000004fc <sort>:
     4fc:	e7010113          	addi	sp,sp,-400
     500:	00251513          	slli	a0,a0,0x2
     504:	00010e93          	mv	t4,sp
     508:	00a58f33          	add	t5,a1,a0
     50c:	00458813          	addi	a6,a1,4
     510:	00010313          	mv	t1,sp
     514:	02700e13          	li	t3,39
     518:	410f07b3          	sub	a5,t5,a6
     51c:	04fe4c63          	blt	t3,a5,574 <sort+0x78>
     520:	ffc7f793          	andi	a5,a5,-4
     524:	00f80533          	add	a0,a6,a5
     528:	ffc80613          	addi	a2,a6,-4
     52c:	02a87863          	bleu	a0,a6,55c <sort+0x60>
     530:	00082683          	lw	a3,0(a6)
     534:	00080793          	mv	a5,a6
     538:	0100006f          	j	548 <sort+0x4c>
     53c:	00e7a023          	sw	a4,0(a5)
     540:	ffc78793          	addi	a5,a5,-4
     544:	00f60663          	beq	a2,a5,550 <sort+0x54>
     548:	ffc7a703          	lw	a4,-4(a5)
     54c:	fee6c8e3          	blt	a3,a4,53c <sort+0x40>
     550:	00d7a023          	sw	a3,0(a5)
     554:	00480813          	addi	a6,a6,4
     558:	fca86ce3          	bltu	a6,a0,530 <sort+0x34>
     55c:	13d30463          	beq	t1,t4,684 <sort+0x188>
     560:	00033f03          	ld	t5,0(t1) # 3000 <input_data+0x1ba8>
     564:	ff833803          	ld	a6,-8(t1)
     568:	ff030313          	addi	t1,t1,-16
     56c:	410f07b3          	sub	a5,t5,a6
     570:	fafe58e3          	ble	a5,t3,520 <sort+0x24>
     574:	40b807b3          	sub	a5,a6,a1
     578:	40bf0733          	sub	a4,t5,a1
     57c:	4027d793          	srai	a5,a5,0x2
     580:	40275713          	srai	a4,a4,0x2
     584:	00e78733          	add	a4,a5,a4
     588:	03f75793          	srli	a5,a4,0x3f
     58c:	00e787b3          	add	a5,a5,a4
     590:	4017d793          	srai	a5,a5,0x1
     594:	00279793          	slli	a5,a5,0x2
     598:	ffc78793          	addi	a5,a5,-4
     59c:	00f587b3          	add	a5,a1,a5
     5a0:	00082703          	lw	a4,0(a6)
     5a4:	0007a603          	lw	a2,0(a5)
     5a8:	00e7a023          	sw	a4,0(a5)
     5ac:	00c82023          	sw	a2,0(a6)
     5b0:	ffc82703          	lw	a4,-4(a6)
     5b4:	ffcf2783          	lw	a5,-4(t5)
     5b8:	00e7da63          	ble	a4,a5,5cc <sort+0xd0>
     5bc:	fef82e23          	sw	a5,-4(a6)
     5c0:	feef2e23          	sw	a4,-4(t5)
     5c4:	00082603          	lw	a2,0(a6)
     5c8:	00070793          	mv	a5,a4
     5cc:	00c7d863          	ble	a2,a5,5dc <sort+0xe0>
     5d0:	00f82023          	sw	a5,0(a6)
     5d4:	fecf2e23          	sw	a2,-4(t5)
     5d8:	00082603          	lw	a2,0(a6)
     5dc:	ffc82783          	lw	a5,-4(a6)
     5e0:	00f65863          	ble	a5,a2,5f0 <sort+0xf4>
     5e4:	fec82e23          	sw	a2,-4(a6)
     5e8:	00f82023          	sw	a5,0(a6)
     5ec:	00078613          	mv	a2,a5
     5f0:	00480513          	addi	a0,a6,4
     5f4:	000f0713          	mv	a4,t5
     5f8:	00450513          	addi	a0,a0,4
     5fc:	ffc52883          	lw	a7,-4(a0)
     600:	fec8cce3          	blt	a7,a2,5f8 <sort+0xfc>
     604:	ffc70793          	addi	a5,a4,-4
     608:	ffc7a683          	lw	a3,-4(a5)
     60c:	00d65a63          	ble	a3,a2,620 <sort+0x124>
     610:	00078713          	mv	a4,a5
     614:	ffc70793          	addi	a5,a4,-4
     618:	ffc7a683          	lw	a3,-4(a5)
     61c:	fed64ae3          	blt	a2,a3,610 <sort+0x114>
     620:	00a7ea63          	bltu	a5,a0,634 <sort+0x138>
     624:	fed52e23          	sw	a3,-4(a0)
     628:	ff172c23          	sw	a7,-8(a4)
     62c:	00078713          	mv	a4,a5
     630:	fc9ff06f          	j	5f8 <sort+0xfc>
     634:	40af08b3          	sub	a7,t5,a0
     638:	00d82023          	sw	a3,0(a6)
     63c:	410787b3          	sub	a5,a5,a6
     640:	4028d693          	srai	a3,a7,0x2
     644:	fec72c23          	sw	a2,-8(a4)
     648:	00168693          	addi	a3,a3,1
     64c:	4027d793          	srai	a5,a5,0x2
     650:	01030613          	addi	a2,t1,16
     654:	00f6cc63          	blt	a3,a5,66c <sort+0x170>
     658:	01e33823          	sd	t5,16(t1)
     65c:	00a33423          	sd	a0,8(t1)
     660:	ff870f13          	addi	t5,a4,-8
     664:	00060313          	mv	t1,a2
     668:	eb1ff06f          	j	518 <sort+0x1c>
     66c:	ff870713          	addi	a4,a4,-8
     670:	01033423          	sd	a6,8(t1)
     674:	00e33823          	sd	a4,16(t1)
     678:	00050813          	mv	a6,a0
     67c:	00060313          	mv	t1,a2
     680:	e99ff06f          	j	518 <sort+0x1c>
     684:	19010113          	addi	sp,sp,400
     688:	00008067          	ret

000000000000068c <putchar>:
     68c:	04022603          	lw	a2,64(tp) # 40 <buflen.2849>
     690:	00060813          	mv	a6,a2
     694:	00020793          	mv	a5,tp
     698:	010787b3          	add	a5,a5,a6
     69c:	0016061b          	addiw	a2,a2,1
     6a0:	00a78023          	sb	a0,0(a5)
     6a4:	04c22023          	sw	a2,64(tp) # 40 <buflen.2849>
     6a8:	00a00793          	li	a5,10
     6ac:	00f50a63          	beq	a0,a5,6c0 <putchar+0x34>
     6b0:	04000793          	li	a5,64
     6b4:	00f60663          	beq	a2,a5,6c0 <putchar+0x34>
     6b8:	00000513          	li	a0,0
     6bc:	00008067          	ret
     6c0:	04000893          	li	a7,64
     6c4:	00100513          	li	a0,1
     6c8:	00020593          	mv	a1,tp
     6cc:	00000073          	ecall
     6d0:	04022023          	sw	zero,64(tp) # 40 <buflen.2849>
     6d4:	00000513          	li	a0,0
     6d8:	00008067          	ret

00000000000006dc <sprintf_putch.2963>:
     6dc:	0005b783          	ld	a5,0(a1)
     6e0:	00a78023          	sb	a0,0(a5)
     6e4:	0005b783          	ld	a5,0(a1)
     6e8:	00178793          	addi	a5,a5,1
     6ec:	00f5b023          	sd	a5,0(a1)
     6f0:	00008067          	ret

00000000000006f4 <vprintfmt>:
     6f4:	e8010113          	addi	sp,sp,-384
     6f8:	15413823          	sd	s4,336(sp)
     6fc:	16813823          	sd	s0,368(sp)
     700:	16913423          	sd	s1,360(sp)
     704:	17213023          	sd	s2,352(sp)
     708:	15313c23          	sd	s3,344(sp)
     70c:	15513423          	sd	s5,328(sp)
     710:	15613023          	sd	s6,320(sp)
     714:	16113c23          	sd	ra,376(sp)
     718:	13713c23          	sd	s7,312(sp)
     71c:	13813823          	sd	s8,304(sp)
     720:	13913423          	sd	s9,296(sp)
     724:	13a13023          	sd	s10,288(sp)
     728:	11b13c23          	sd	s11,280(sp)
     72c:	00050913          	mv	s2,a0
     730:	00058493          	mv	s1,a1
     734:	00060413          	mv	s0,a2
     738:	00068a93          	mv	s5,a3
     73c:	02500993          	li	s3,37
     740:	05500b13          	li	s6,85
     744:	80818a13          	addi	s4,gp,-2040 # 5460 <verify_data+0x2008>
     748:	0140006f          	j	75c <vprintfmt+0x68>
     74c:	04050c63          	beqz	a0,7a4 <vprintfmt+0xb0>
     750:	00140413          	addi	s0,s0,1
     754:	00048593          	mv	a1,s1
     758:	000900e7          	jalr	s2
     75c:	00044503          	lbu	a0,0(s0)
     760:	ff3516e3          	bne	a0,s3,74c <vprintfmt+0x58>
     764:	00144503          	lbu	a0,1(s0)
     768:	00140b93          	addi	s7,s0,1
     76c:	fff00d93          	li	s11,-1
     770:	000b8713          	mv	a4,s7
     774:	02000d13          	li	s10,32
     778:	000d8c13          	mv	s8,s11
     77c:	00000613          	li	a2,0
     780:	fdd5079b          	addiw	a5,a0,-35
     784:	0ff7f593          	andi	a1,a5,255
     788:	00170413          	addi	s0,a4,1
     78c:	2cbb6663          	bltu	s6,a1,a58 <vprintfmt+0x364>
     790:	0ff7f793          	andi	a5,a5,255
     794:	00279793          	slli	a5,a5,0x2
     798:	014787b3          	add	a5,a5,s4
     79c:	0007a783          	lw	a5,0(a5)
     7a0:	00078067          	jr	a5
     7a4:	17813083          	ld	ra,376(sp)
     7a8:	17013403          	ld	s0,368(sp)
     7ac:	16813483          	ld	s1,360(sp)
     7b0:	16013903          	ld	s2,352(sp)
     7b4:	15813983          	ld	s3,344(sp)
     7b8:	15013a03          	ld	s4,336(sp)
     7bc:	14813a83          	ld	s5,328(sp)
     7c0:	14013b03          	ld	s6,320(sp)
     7c4:	13813b83          	ld	s7,312(sp)
     7c8:	13013c03          	ld	s8,304(sp)
     7cc:	12813c83          	ld	s9,296(sp)
     7d0:	12013d03          	ld	s10,288(sp)
     7d4:	11813d83          	ld	s11,280(sp)
     7d8:	18010113          	addi	sp,sp,384
     7dc:	00008067          	ret
     7e0:	000c5463          	bgez	s8,7e8 <vprintfmt+0xf4>
     7e4:	00000c13          	li	s8,0
     7e8:	00174503          	lbu	a0,1(a4)
     7ec:	00040713          	mv	a4,s0
     7f0:	f91ff06f          	j	780 <vprintfmt+0x8c>
     7f4:	00800793          	li	a5,8
     7f8:	00100713          	li	a4,1
     7fc:	2ac75463          	ble	a2,a4,aa4 <vprintfmt+0x3b0>
     800:	000abd83          	ld	s11,0(s5)
     804:	008a8a93          	addi	s5,s5,8
     808:	02fdf533          	remu	a0,s11,a5
     80c:	01410693          	addi	a3,sp,20
     810:	00100c93          	li	s9,1
     814:	00a12823          	sw	a0,16(sp)
     818:	00fdf663          	bleu	a5,s11,824 <vprintfmt+0x130>
     81c:	2980006f          	j	ab4 <vprintfmt+0x3c0>
     820:	000b8c93          	mv	s9,s7
     824:	02fdddb3          	divu	s11,s11,a5
     828:	00468693          	addi	a3,a3,4
     82c:	001c8b9b          	addiw	s7,s9,1
     830:	02fdf5b3          	remu	a1,s11,a5
     834:	feb6ae23          	sw	a1,-4(a3)
     838:	fefdf4e3          	bleu	a5,s11,820 <vprintfmt+0x12c>
     83c:	01912423          	sw	s9,8(sp)
     840:	fffc0d9b          	addiw	s11,s8,-1
     844:	038bd263          	ble	s8,s7,868 <vprintfmt+0x174>
     848:	00048593          	mv	a1,s1
     84c:	000d0513          	mv	a0,s10
     850:	fffd8d9b          	addiw	s11,s11,-1
     854:	000900e7          	jalr	s2
     858:	001d871b          	addiw	a4,s11,1
     85c:	feebc6e3          	blt	s7,a4,848 <vprintfmt+0x154>
     860:	00812c83          	lw	s9,8(sp)
     864:	ef705ce3          	blez	s7,75c <vprintfmt+0x68>
     868:	002c9793          	slli	a5,s9,0x2
     86c:	11010713          	addi	a4,sp,272
     870:	00f707b3          	add	a5,a4,a5
     874:	f007a503          	lw	a0,-256(a5)
     878:	00a53793          	sltiu	a5,a0,10
     87c:	40f007bb          	negw	a5,a5
     880:	fd97f793          	andi	a5,a5,-39
     884:	0577879b          	addiw	a5,a5,87
     888:	00a7853b          	addw	a0,a5,a0
     88c:	00048593          	mv	a1,s1
     890:	fffc8c9b          	addiw	s9,s9,-1
     894:	000900e7          	jalr	s2
     898:	001c879b          	addiw	a5,s9,1
     89c:	fcf046e3          	bgtz	a5,868 <vprintfmt+0x174>
     8a0:	ebdff06f          	j	75c <vprintfmt+0x68>
     8a4:	000aad83          	lw	s11,0(s5)
     8a8:	00174503          	lbu	a0,1(a4)
     8ac:	008a8a93          	addi	s5,s5,8
     8b0:	00040713          	mv	a4,s0
     8b4:	ec0c56e3          	bgez	s8,780 <vprintfmt+0x8c>
     8b8:	000d8c13          	mv	s8,s11
     8bc:	fff00d93          	li	s11,-1
     8c0:	ec1ff06f          	j	780 <vprintfmt+0x8c>
     8c4:	00174503          	lbu	a0,1(a4)
     8c8:	02d00d13          	li	s10,45
     8cc:	00040713          	mv	a4,s0
     8d0:	eb1ff06f          	j	780 <vprintfmt+0x8c>
     8d4:	00174503          	lbu	a0,1(a4)
     8d8:	03000d13          	li	s10,48
     8dc:	00040713          	mv	a4,s0
     8e0:	ea1ff06f          	j	780 <vprintfmt+0x8c>
     8e4:	00174783          	lbu	a5,1(a4)
     8e8:	00900693          	li	a3,9
     8ec:	fd050d9b          	addiw	s11,a0,-48
     8f0:	fd07871b          	addiw	a4,a5,-48
     8f4:	00078593          	mv	a1,a5
     8f8:	1ae6e063          	bltu	a3,a4,a98 <vprintfmt+0x3a4>
     8fc:	00040713          	mv	a4,s0
     900:	00170713          	addi	a4,a4,1
     904:	00074503          	lbu	a0,0(a4)
     908:	001d979b          	slliw	a5,s11,0x1
     90c:	003d9d9b          	slliw	s11,s11,0x3
     910:	01b78dbb          	addw	s11,a5,s11
     914:	00bd8dbb          	addw	s11,s11,a1
     918:	fd05079b          	addiw	a5,a0,-48
     91c:	00900693          	li	a3,9
     920:	fd0d8d9b          	addiw	s11,s11,-48
     924:	00050593          	mv	a1,a0
     928:	fcf6fce3          	bleu	a5,a3,900 <vprintfmt+0x20c>
     92c:	f89ff06f          	j	8b4 <vprintfmt+0x1c0>
     930:	000aa503          	lw	a0,0(s5)
     934:	00048593          	mv	a1,s1
     938:	008a8a93          	addi	s5,s5,8
     93c:	000900e7          	jalr	s2
     940:	e1dff06f          	j	75c <vprintfmt+0x68>
     944:	00100793          	li	a5,1
     948:	14c7d063          	ble	a2,a5,a88 <vprintfmt+0x394>
     94c:	000abd83          	ld	s11,0(s5)
     950:	008a8a93          	addi	s5,s5,8
     954:	00a00793          	li	a5,10
     958:	ea0dd8e3          	bgez	s11,808 <vprintfmt+0x114>
     95c:	00048593          	mv	a1,s1
     960:	02d00513          	li	a0,45
     964:	00f13423          	sd	a5,8(sp)
     968:	000900e7          	jalr	s2
     96c:	41b00db3          	neg	s11,s11
     970:	00813783          	ld	a5,8(sp)
     974:	e95ff06f          	j	808 <vprintfmt+0x114>
     978:	00174503          	lbu	a0,1(a4)
     97c:	0016061b          	addiw	a2,a2,1
     980:	00040713          	mv	a4,s0
     984:	dfdff06f          	j	780 <vprintfmt+0x8c>
     988:	000abb83          	ld	s7,0(s5)
     98c:	008a8a93          	addi	s5,s5,8
     990:	0e0b8663          	beqz	s7,a7c <vprintfmt+0x388>
     994:	05805463          	blez	s8,9dc <vprintfmt+0x2e8>
     998:	02d00713          	li	a4,45
     99c:	0ced0863          	beq	s10,a4,a6c <vprintfmt+0x378>
     9a0:	000d8593          	mv	a1,s11
     9a4:	000b8513          	mv	a0,s7
     9a8:	1bd000ef          	jal	1364 <strnlen>
     9ac:	40ac0c3b          	subw	s8,s8,a0
     9b0:	03805663          	blez	s8,9dc <vprintfmt+0x2e8>
     9b4:	000c0c93          	mv	s9,s8
     9b8:	fffc8c9b          	addiw	s9,s9,-1
     9bc:	00048593          	mv	a1,s1
     9c0:	000d0513          	mv	a0,s10
     9c4:	000900e7          	jalr	s2
     9c8:	fe0c98e3          	bnez	s9,9b8 <vprintfmt+0x2c4>
     9cc:	00100793          	li	a5,1
     9d0:	fffc071b          	addiw	a4,s8,-1
     9d4:	4187883b          	subw	a6,a5,s8
     9d8:	00e80c3b          	addw	s8,a6,a4
     9dc:	000bc503          	lbu	a0,0(s7)
     9e0:	d6050ee3          	beqz	a0,75c <vprintfmt+0x68>
     9e4:	fff00d13          	li	s10,-1
     9e8:	000dc663          	bltz	s11,9f4 <vprintfmt+0x300>
     9ec:	fffd8d9b          	addiw	s11,s11,-1
     9f0:	01ad8e63          	beq	s11,s10,a0c <vprintfmt+0x318>
     9f4:	00048593          	mv	a1,s1
     9f8:	001b8b93          	addi	s7,s7,1
     9fc:	000900e7          	jalr	s2
     a00:	000bc503          	lbu	a0,0(s7)
     a04:	fffc0c1b          	addiw	s8,s8,-1
     a08:	fe0510e3          	bnez	a0,9e8 <vprintfmt+0x2f4>
     a0c:	d58058e3          	blez	s8,75c <vprintfmt+0x68>
     a10:	fffc0c1b          	addiw	s8,s8,-1
     a14:	00048593          	mv	a1,s1
     a18:	02000513          	li	a0,32
     a1c:	000900e7          	jalr	s2
     a20:	fe0c18e3          	bnez	s8,a10 <vprintfmt+0x31c>
     a24:	d39ff06f          	j	75c <vprintfmt+0x68>
     a28:	00a00793          	li	a5,10
     a2c:	dcdff06f          	j	7f8 <vprintfmt+0x104>
     a30:	01000793          	li	a5,16
     a34:	dc5ff06f          	j	7f8 <vprintfmt+0x104>
     a38:	03000513          	li	a0,48
     a3c:	00048593          	mv	a1,s1
     a40:	000900e7          	jalr	s2
     a44:	00048593          	mv	a1,s1
     a48:	07800513          	li	a0,120
     a4c:	000900e7          	jalr	s2
     a50:	01000793          	li	a5,16
     a54:	dadff06f          	j	800 <vprintfmt+0x10c>
     a58:	00048593          	mv	a1,s1
     a5c:	02500513          	li	a0,37
     a60:	000900e7          	jalr	s2
     a64:	000b8413          	mv	s0,s7
     a68:	cf5ff06f          	j	75c <vprintfmt+0x68>
     a6c:	000bc503          	lbu	a0,0(s7)
     a70:	fa0500e3          	beqz	a0,a10 <vprintfmt+0x31c>
     a74:	fff00d13          	li	s10,-1
     a78:	f71ff06f          	j	9e8 <vprintfmt+0x2f4>
     a7c:	000057b7          	lui	a5,0x5
     a80:	5b878b93          	addi	s7,a5,1464 # 55b8 <verify_data+0x2160>
     a84:	f11ff06f          	j	994 <vprintfmt+0x2a0>
     a88:	ec0612e3          	bnez	a2,94c <vprintfmt+0x258>
     a8c:	000aad83          	lw	s11,0(s5)
     a90:	008a8a93          	addi	s5,s5,8
     a94:	ec1ff06f          	j	954 <vprintfmt+0x260>
     a98:	00078513          	mv	a0,a5
     a9c:	00040713          	mv	a4,s0
     aa0:	e15ff06f          	j	8b4 <vprintfmt+0x1c0>
     aa4:	d4061ee3          	bnez	a2,800 <vprintfmt+0x10c>
     aa8:	000aed83          	lwu	s11,0(s5)
     aac:	008a8a93          	addi	s5,s5,8
     ab0:	d59ff06f          	j	808 <vprintfmt+0x114>
     ab4:	00012423          	sw	zero,8(sp)
     ab8:	00100b93          	li	s7,1
     abc:	fffc0d9b          	addiw	s11,s8,-1
     ac0:	00000c93          	li	s9,0
     ac4:	d98bc2e3          	blt	s7,s8,848 <vprintfmt+0x154>
     ac8:	db1ff06f          	j	878 <vprintfmt+0x184>

0000000000000acc <tohost_exit>:
     acc:	00151513          	slli	a0,a0,0x1
     ad0:	00156793          	ori	a5,a0,1
     ad4:	78079073          	csrw	mtohost,a5
     ad8:	0000006f          	j	ad8 <tohost_exit+0xc>

0000000000000adc <handle_trap>:
     adc:	ff010113          	addi	sp,sp,-16
     ae0:	00813023          	sd	s0,0(sp)
     ae4:	00113423          	sd	ra,8(sp)
     ae8:	00200693          	li	a3,2
     aec:	01010413          	addi	s0,sp,16
     af0:	0080076f          	jal	a4,af8 <handle_trap+0x1c>
     af4:	0c002573          	csrr	a0,stats
     af8:	f8010113          	addi	sp,sp,-128
     afc:	08d50463          	beq	a0,a3,b84 <handle_trap+0xa8>
     b00:	00800713          	li	a4,8
     b04:	00e50a63          	beq	a0,a4,b18 <handle_trap+0x3c>
     b08:	000017b7          	lui	a5,0x1
     b0c:	a7378793          	addi	a5,a5,-1421 # a73 <vprintfmt+0x37f>
     b10:	78079073          	csrw	mtohost,a5
     b14:	0000006f          	j	b14 <handle_trap+0x38>
     b18:	08863703          	ld	a4,136(a2)
     b1c:	05d00693          	li	a3,93
     b20:	2cd70c63          	beq	a4,a3,df8 <handle_trap+0x31c>
     b24:	4d200693          	li	a3,1234
     b28:	06d70a63          	beq	a4,a3,b9c <handle_trap+0xc0>
     b2c:	05063503          	ld	a0,80(a2)
     b30:	03f10793          	addi	a5,sp,63
     b34:	fc07f793          	andi	a5,a5,-64
     b38:	05863683          	ld	a3,88(a2)
     b3c:	00e7b023          	sd	a4,0(a5)
     b40:	06063703          	ld	a4,96(a2)
     b44:	00a7b423          	sd	a0,8(a5)
     b48:	00d7b823          	sd	a3,16(a5)
     b4c:	00e7bc23          	sd	a4,24(a5)
     b50:	0330000f          	fence	rw,rw
     b54:	78079073          	csrw	mtohost,a5
     b58:	00000713          	li	a4,0
     b5c:	781716f3          	csrrw	a3,mfromhost,a4
     b60:	fe068ee3          	beqz	a3,b5c <handle_trap+0x80>
     b64:	0007b783          	ld	a5,0(a5)
     b68:	ff040113          	addi	sp,s0,-16
     b6c:	00813083          	ld	ra,8(sp)
     b70:	00458513          	addi	a0,a1,4
     b74:	00013403          	ld	s0,0(sp)
     b78:	04f63823          	sd	a5,80(a2)
     b7c:	01010113          	addi	sp,sp,16
     b80:	00008067          	ret
     b84:	00072703          	lw	a4,0(a4)
     b88:	0005a783          	lw	a5,0(a1)
     b8c:	00f777b3          	and	a5,a4,a5
     b90:	f6f71ce3          	bne	a4,a5,b08 <handle_trap+0x2c>
     b94:	00000793          	li	a5,0
     b98:	fd1ff06f          	j	b68 <handle_trap+0x8c>
     b9c:	05062703          	lw	a4,80(a2)
     ba0:	00070463          	beqz	a4,ba8 <handle_trap+0xcc>
     ba4:	0c00e573          	csrrs	a0,stats,1
     ba8:	c0002573          	rdcycle	a0
     bac:	a8818793          	addi	a5,gp,-1400 # 56e0 <counters>
     bb0:	00071c63          	bnez	a4,bc8 <handle_trap+0xec>
     bb4:	0007b683          	ld	a3,0(a5)
     bb8:	40d50533          	sub	a0,a0,a3
     bbc:	000056b7          	lui	a3,0x5
     bc0:	5c068693          	addi	a3,a3,1472 # 55c0 <verify_data+0x2168>
     bc4:	08d7b823          	sd	a3,144(a5)
     bc8:	00a7b023          	sd	a0,0(a5)
     bcc:	c0202573          	rdinstret	a0
     bd0:	00071c63          	bnez	a4,be8 <handle_trap+0x10c>
     bd4:	0087b683          	ld	a3,8(a5)
     bd8:	40d50533          	sub	a0,a0,a3
     bdc:	000056b7          	lui	a3,0x5
     be0:	5c868693          	addi	a3,a3,1480 # 55c8 <verify_data+0x2170>
     be4:	08d7bc23          	sd	a3,152(a5)
     be8:	00a7b423          	sd	a0,8(a5)
     bec:	cc002573          	csrr	a0,uarch0
     bf0:	00071c63          	bnez	a4,c08 <handle_trap+0x12c>
     bf4:	0107b683          	ld	a3,16(a5)
     bf8:	40d50533          	sub	a0,a0,a3
     bfc:	000056b7          	lui	a3,0x5
     c00:	5d068693          	addi	a3,a3,1488 # 55d0 <verify_data+0x2178>
     c04:	0ad7b023          	sd	a3,160(a5)
     c08:	00a7b823          	sd	a0,16(a5)
     c0c:	cc102573          	csrr	a0,uarch1
     c10:	00071c63          	bnez	a4,c28 <handle_trap+0x14c>
     c14:	0187b683          	ld	a3,24(a5)
     c18:	40d50533          	sub	a0,a0,a3
     c1c:	000056b7          	lui	a3,0x5
     c20:	5d868693          	addi	a3,a3,1496 # 55d8 <verify_data+0x2180>
     c24:	0ad7b423          	sd	a3,168(a5)
     c28:	00a7bc23          	sd	a0,24(a5)
     c2c:	cc202573          	csrr	a0,uarch2
     c30:	00071c63          	bnez	a4,c48 <handle_trap+0x16c>
     c34:	0207b683          	ld	a3,32(a5)
     c38:	40d50533          	sub	a0,a0,a3
     c3c:	000056b7          	lui	a3,0x5
     c40:	5e068693          	addi	a3,a3,1504 # 55e0 <verify_data+0x2188>
     c44:	0ad7b823          	sd	a3,176(a5)
     c48:	02a7b023          	sd	a0,32(a5)
     c4c:	cc302573          	csrr	a0,uarch3
     c50:	00071c63          	bnez	a4,c68 <handle_trap+0x18c>
     c54:	0287b683          	ld	a3,40(a5)
     c58:	40d50533          	sub	a0,a0,a3
     c5c:	000056b7          	lui	a3,0x5
     c60:	5e868693          	addi	a3,a3,1512 # 55e8 <verify_data+0x2190>
     c64:	0ad7bc23          	sd	a3,184(a5)
     c68:	02a7b423          	sd	a0,40(a5)
     c6c:	cc402573          	csrr	a0,uarch4
     c70:	00071c63          	bnez	a4,c88 <handle_trap+0x1ac>
     c74:	0307b683          	ld	a3,48(a5)
     c78:	40d50533          	sub	a0,a0,a3
     c7c:	000056b7          	lui	a3,0x5
     c80:	5f068693          	addi	a3,a3,1520 # 55f0 <verify_data+0x2198>
     c84:	0cd7b023          	sd	a3,192(a5)
     c88:	02a7b823          	sd	a0,48(a5)
     c8c:	cc502573          	csrr	a0,uarch5
     c90:	00071c63          	bnez	a4,ca8 <handle_trap+0x1cc>
     c94:	0387b683          	ld	a3,56(a5)
     c98:	40d50533          	sub	a0,a0,a3
     c9c:	000056b7          	lui	a3,0x5
     ca0:	5f868693          	addi	a3,a3,1528 # 55f8 <verify_data+0x21a0>
     ca4:	0cd7b423          	sd	a3,200(a5)
     ca8:	02a7bc23          	sd	a0,56(a5)
     cac:	cc602573          	csrr	a0,uarch6
     cb0:	00071c63          	bnez	a4,cc8 <handle_trap+0x1ec>
     cb4:	0407b683          	ld	a3,64(a5)
     cb8:	40d50533          	sub	a0,a0,a3
     cbc:	000056b7          	lui	a3,0x5
     cc0:	60068693          	addi	a3,a3,1536 # 5600 <verify_data+0x21a8>
     cc4:	0cd7b823          	sd	a3,208(a5)
     cc8:	04a7b023          	sd	a0,64(a5)
     ccc:	cc702573          	csrr	a0,uarch7
     cd0:	00071c63          	bnez	a4,ce8 <handle_trap+0x20c>
     cd4:	0487b683          	ld	a3,72(a5)
     cd8:	40d50533          	sub	a0,a0,a3
     cdc:	000056b7          	lui	a3,0x5
     ce0:	60868693          	addi	a3,a3,1544 # 5608 <verify_data+0x21b0>
     ce4:	0cd7bc23          	sd	a3,216(a5)
     ce8:	04a7b423          	sd	a0,72(a5)
     cec:	cc802573          	csrr	a0,uarch8
     cf0:	00071c63          	bnez	a4,d08 <handle_trap+0x22c>
     cf4:	0507b683          	ld	a3,80(a5)
     cf8:	40d50533          	sub	a0,a0,a3
     cfc:	000056b7          	lui	a3,0x5
     d00:	61068693          	addi	a3,a3,1552 # 5610 <verify_data+0x21b8>
     d04:	0ed7b023          	sd	a3,224(a5)
     d08:	04a7b823          	sd	a0,80(a5)
     d0c:	cc902573          	csrr	a0,uarch9
     d10:	00071c63          	bnez	a4,d28 <handle_trap+0x24c>
     d14:	0587b683          	ld	a3,88(a5)
     d18:	40d50533          	sub	a0,a0,a3
     d1c:	000056b7          	lui	a3,0x5
     d20:	61868693          	addi	a3,a3,1560 # 5618 <verify_data+0x21c0>
     d24:	0ed7b423          	sd	a3,232(a5)
     d28:	04a7bc23          	sd	a0,88(a5)
     d2c:	cca02573          	csrr	a0,uarch10
     d30:	00071c63          	bnez	a4,d48 <handle_trap+0x26c>
     d34:	0607b683          	ld	a3,96(a5)
     d38:	40d50533          	sub	a0,a0,a3
     d3c:	000056b7          	lui	a3,0x5
     d40:	62068693          	addi	a3,a3,1568 # 5620 <verify_data+0x21c8>
     d44:	0ed7b823          	sd	a3,240(a5)
     d48:	06a7b023          	sd	a0,96(a5)
     d4c:	ccb02573          	csrr	a0,uarch11
     d50:	00071c63          	bnez	a4,d68 <handle_trap+0x28c>
     d54:	0687b683          	ld	a3,104(a5)
     d58:	40d50533          	sub	a0,a0,a3
     d5c:	000056b7          	lui	a3,0x5
     d60:	62868693          	addi	a3,a3,1576 # 5628 <verify_data+0x21d0>
     d64:	0ed7bc23          	sd	a3,248(a5)
     d68:	06a7b423          	sd	a0,104(a5)
     d6c:	ccc02573          	csrr	a0,uarch12
     d70:	00071c63          	bnez	a4,d88 <handle_trap+0x2ac>
     d74:	0707b683          	ld	a3,112(a5)
     d78:	40d50533          	sub	a0,a0,a3
     d7c:	000056b7          	lui	a3,0x5
     d80:	63068693          	addi	a3,a3,1584 # 5630 <verify_data+0x21d8>
     d84:	10d7b023          	sd	a3,256(a5)
     d88:	06a7b823          	sd	a0,112(a5)
     d8c:	ccd02573          	csrr	a0,uarch13
     d90:	00071c63          	bnez	a4,da8 <handle_trap+0x2cc>
     d94:	0787b683          	ld	a3,120(a5)
     d98:	40d50533          	sub	a0,a0,a3
     d9c:	000056b7          	lui	a3,0x5
     da0:	63868693          	addi	a3,a3,1592 # 5638 <verify_data+0x21e0>
     da4:	10d7b423          	sd	a3,264(a5)
     da8:	06a7bc23          	sd	a0,120(a5)
     dac:	cce02573          	csrr	a0,uarch14
     db0:	00071c63          	bnez	a4,dc8 <handle_trap+0x2ec>
     db4:	0807b683          	ld	a3,128(a5)
     db8:	40d50533          	sub	a0,a0,a3
     dbc:	000056b7          	lui	a3,0x5
     dc0:	64068693          	addi	a3,a3,1600 # 5640 <verify_data+0x21e8>
     dc4:	10d7b823          	sd	a3,272(a5)
     dc8:	08a7b023          	sd	a0,128(a5)
     dcc:	ccf02573          	csrr	a0,uarch15
     dd0:	02071863          	bnez	a4,e00 <handle_trap+0x324>
     dd4:	0887b703          	ld	a4,136(a5)
     dd8:	40e50533          	sub	a0,a0,a4
     ddc:	00005737          	lui	a4,0x5
     de0:	64870713          	addi	a4,a4,1608 # 5648 <verify_data+0x21f0>
     de4:	10e7bc23          	sd	a4,280(a5)
     de8:	08a7b423          	sd	a0,136(a5)
     dec:	0c00f573          	csrrc	a0,stats,1
     df0:	00000793          	li	a5,0
     df4:	d75ff06f          	j	b68 <handle_trap+0x8c>
     df8:	05063503          	ld	a0,80(a2)
     dfc:	cd1ff0ef          	jal	acc <tohost_exit>
     e00:	08a7b423          	sd	a0,136(a5)
     e04:	d91ff06f          	j	b94 <handle_trap+0xb8>

0000000000000e08 <exit>:
     e08:	05d00893          	li	a7,93
     e0c:	00000593          	li	a1,0
     e10:	00000613          	li	a2,0
     e14:	00000073          	ecall
     e18:	0000006f          	j	e18 <exit+0x10>

0000000000000e1c <setStats>:
     e1c:	4d200893          	li	a7,1234
     e20:	00000593          	li	a1,0
     e24:	00000613          	li	a2,0
     e28:	00000073          	ecall
     e2c:	00008067          	ret

0000000000000e30 <printstr>:
     e30:	ff010113          	addi	sp,sp,-16
     e34:	00813023          	sd	s0,0(sp)
     e38:	00113423          	sd	ra,8(sp)
     e3c:	00050413          	mv	s0,a0
     e40:	454000ef          	jal	1294 <strlen>
     e44:	00050613          	mv	a2,a0
     e48:	04000893          	li	a7,64
     e4c:	00100513          	li	a0,1
     e50:	00040593          	mv	a1,s0
     e54:	00000073          	ecall
     e58:	00813083          	ld	ra,8(sp)
     e5c:	00013403          	ld	s0,0(sp)
     e60:	01010113          	addi	sp,sp,16
     e64:	00008067          	ret

0000000000000e68 <thread_entry>:
     e68:	00050463          	beqz	a0,e70 <thread_entry+0x8>
     e6c:	0000006f          	j	e6c <thread_entry+0x4>
     e70:	00008067          	ret

0000000000000e74 <printhex>:
     e74:	fd010113          	addi	sp,sp,-48
     e78:	02113423          	sd	ra,40(sp)
     e7c:	01710713          	addi	a4,sp,23
     e80:	00710613          	addi	a2,sp,7
     e84:	00f57793          	andi	a5,a0,15
     e88:	00a7b793          	sltiu	a5,a5,10
     e8c:	40f007b3          	neg	a5,a5
     e90:	fd97f793          	andi	a5,a5,-39
     e94:	00f57693          	andi	a3,a0,15
     e98:	05778793          	addi	a5,a5,87
     e9c:	00d787bb          	addw	a5,a5,a3
     ea0:	00f70023          	sb	a5,0(a4)
     ea4:	fff70713          	addi	a4,a4,-1
     ea8:	00455513          	srli	a0,a0,0x4
     eac:	fcc71ce3          	bne	a4,a2,e84 <printhex+0x10>
     eb0:	00810513          	addi	a0,sp,8
     eb4:	00010c23          	sb	zero,24(sp)
     eb8:	3dc000ef          	jal	1294 <strlen>
     ebc:	00050613          	mv	a2,a0
     ec0:	04000893          	li	a7,64
     ec4:	00100513          	li	a0,1
     ec8:	00810593          	addi	a1,sp,8
     ecc:	00000073          	ecall
     ed0:	02813083          	ld	ra,40(sp)
     ed4:	03010113          	addi	sp,sp,48
     ed8:	00008067          	ret

0000000000000edc <printf>:
     edc:	fa010113          	addi	sp,sp,-96
     ee0:	02810313          	addi	t1,sp,40
     ee4:	02c13823          	sd	a2,48(sp)
     ee8:	00050613          	mv	a2,a0
     eec:	02b13423          	sd	a1,40(sp)
     ef0:	02d13c23          	sd	a3,56(sp)
     ef4:	68c00513          	li	a0,1676
     ef8:	00030693          	mv	a3,t1
     efc:	00000593          	li	a1,0
     f00:	00113c23          	sd	ra,24(sp)
     f04:	04e13023          	sd	a4,64(sp)
     f08:	04f13423          	sd	a5,72(sp)
     f0c:	05013823          	sd	a6,80(sp)
     f10:	05113c23          	sd	a7,88(sp)
     f14:	00613423          	sd	t1,8(sp)
     f18:	fdcff0ef          	jal	6f4 <vprintfmt>
     f1c:	01813083          	ld	ra,24(sp)
     f20:	00000513          	li	a0,0
     f24:	06010113          	addi	sp,sp,96
     f28:	00008067          	ret

0000000000000f2c <sprintf>:
     f2c:	fa010113          	addi	sp,sp,-96
     f30:	03010313          	addi	t1,sp,48
     f34:	02813023          	sd	s0,32(sp)
     f38:	00a13423          	sd	a0,8(sp)
     f3c:	00050413          	mv	s0,a0
     f40:	02c13823          	sd	a2,48(sp)
     f44:	02d13c23          	sd	a3,56(sp)
     f48:	00058613          	mv	a2,a1
     f4c:	6dc00513          	li	a0,1756
     f50:	00810593          	addi	a1,sp,8
     f54:	00030693          	mv	a3,t1
     f58:	02113423          	sd	ra,40(sp)
     f5c:	04f13423          	sd	a5,72(sp)
     f60:	04e13023          	sd	a4,64(sp)
     f64:	05013823          	sd	a6,80(sp)
     f68:	05113c23          	sd	a7,88(sp)
     f6c:	00613c23          	sd	t1,24(sp)
     f70:	f84ff0ef          	jal	6f4 <vprintfmt>
     f74:	00813783          	ld	a5,8(sp)
     f78:	00078023          	sb	zero,0(a5)
     f7c:	00813503          	ld	a0,8(sp)
     f80:	02813083          	ld	ra,40(sp)
     f84:	4085053b          	subw	a0,a0,s0
     f88:	02013403          	ld	s0,32(sp)
     f8c:	06010113          	addi	sp,sp,96
     f90:	00008067          	ret

0000000000000f94 <_init>:
     f94:	fb010113          	addi	sp,sp,-80
     f98:	02913c23          	sd	s1,56(sp)
     f9c:	03213823          	sd	s2,48(sp)
     fa0:	00020913          	mv	s2,tp
     fa4:	00020493          	mv	s1,tp
     fa8:	409904b3          	sub	s1,s2,s1
     fac:	03413023          	sd	s4,32(sp)
     fb0:	00058a13          	mv	s4,a1
     fb4:	04113423          	sd	ra,72(sp)
     fb8:	04813023          	sd	s0,64(sp)
     fbc:	03313423          	sd	s3,40(sp)
     fc0:	05010413          	addi	s0,sp,80
     fc4:	01513c23          	sd	s5,24(sp)
     fc8:	01613823          	sd	s6,16(sp)
     fcc:	01713423          	sd	s7,8(sp)
     fd0:	00050993          	mv	s3,a0
     fd4:	d8010113          	addi	sp,sp,-640
     fd8:	00020513          	mv	a0,tp
     fdc:	00048613          	mv	a2,s1
     fe0:	ba818593          	addi	a1,gp,-1112 # 5800 <_end>
     fe4:	00020b13          	mv	s6,tp
     fe8:	0b0000ef          	jal	1098 <memcpy>
     fec:	04420613          	addi	a2,tp,68 # 44 <_tbss_end>
     ff0:	41260633          	sub	a2,a2,s2
     ff4:	009b0533          	add	a0,s6,s1
     ff8:	00000593          	li	a1,0
     ffc:	1bc000ef          	jal	11b8 <memset>
    1000:	000a0593          	mv	a1,s4
    1004:	00098513          	mv	a0,s3
    1008:	e61ff0ef          	jal	e68 <thread_entry>
    100c:	03f10a93          	addi	s5,sp,63
    1010:	00000593          	li	a1,0
    1014:	00000513          	li	a0,0
    1018:	a8818493          	addi	s1,gp,-1400 # 56e0 <counters>
    101c:	fc0afa93          	andi	s5,s5,-64
    1020:	388000ef          	jal	13a8 <main>
    1024:	09048913          	addi	s2,s1,144
    1028:	00050b93          	mv	s7,a0
    102c:	00090993          	mv	s3,s2
    1030:	000a8a13          	mv	s4,s5
    1034:	00005b37          	lui	s6,0x5
    1038:	0100006f          	j	1048 <_init+0xb4>
    103c:	00848493          	addi	s1,s1,8
    1040:	00890913          	addi	s2,s2,8
    1044:	03348663          	beq	s1,s3,1070 <_init+0xdc>
    1048:	0004b683          	ld	a3,0(s1)
    104c:	fe0688e3          	beqz	a3,103c <_init+0xa8>
    1050:	00093603          	ld	a2,0(s2)
    1054:	000a0513          	mv	a0,s4
    1058:	668b0593          	addi	a1,s6,1640 # 5668 <verify_data+0x2210>
    105c:	ed1ff0ef          	jal	f2c <sprintf>
    1060:	00848493          	addi	s1,s1,8
    1064:	00aa0a33          	add	s4,s4,a0
    1068:	00890913          	addi	s2,s2,8
    106c:	fd349ee3          	bne	s1,s3,1048 <_init+0xb4>
    1070:	034a8063          	beq	s5,s4,1090 <_init+0xfc>
    1074:	000a8513          	mv	a0,s5
    1078:	21c000ef          	jal	1294 <strlen>
    107c:	00050613          	mv	a2,a0
    1080:	04000893          	li	a7,64
    1084:	00100513          	li	a0,1
    1088:	000a8593          	mv	a1,s5
    108c:	00000073          	ecall
    1090:	000b8513          	mv	a0,s7
    1094:	d75ff0ef          	jal	e08 <exit>

0000000000001098 <memcpy>:
    1098:	00a5c7b3          	xor	a5,a1,a0
    109c:	0077f793          	andi	a5,a5,7
    10a0:	00c508b3          	add	a7,a0,a2
    10a4:	0e079263          	bnez	a5,1188 <memcpy+0xf0>
    10a8:	00700793          	li	a5,7
    10ac:	0ec7fe63          	bleu	a2,a5,11a8 <memcpy+0x110>
    10b0:	00757793          	andi	a5,a0,7
    10b4:	04079a63          	bnez	a5,1108 <memcpy+0x70>
    10b8:	ff88f813          	andi	a6,a7,-8
    10bc:	fc080793          	addi	a5,a6,-64
    10c0:	00050713          	mv	a4,a0
    10c4:	06f56663          	bltu	a0,a5,1130 <memcpy+0x98>
    10c8:	00058693          	mv	a3,a1
    10cc:	00070793          	mv	a5,a4
    10d0:	03077863          	bleu	a6,a4,1100 <memcpy+0x68>
    10d4:	0006b603          	ld	a2,0(a3)
    10d8:	00878793          	addi	a5,a5,8
    10dc:	00868693          	addi	a3,a3,8
    10e0:	fec7bc23          	sd	a2,-8(a5)
    10e4:	ff07e8e3          	bltu	a5,a6,10d4 <memcpy+0x3c>
    10e8:	fff74793          	not	a5,a4
    10ec:	01078833          	add	a6,a5,a6
    10f0:	ff887813          	andi	a6,a6,-8
    10f4:	00880813          	addi	a6,a6,8
    10f8:	01070733          	add	a4,a4,a6
    10fc:	010585b3          	add	a1,a1,a6
    1100:	09176863          	bltu	a4,a7,1190 <memcpy+0xf8>
    1104:	00008067          	ret
    1108:	00050713          	mv	a4,a0
    110c:	0005c683          	lbu	a3,0(a1)
    1110:	00170713          	addi	a4,a4,1
    1114:	00777793          	andi	a5,a4,7
    1118:	fed70fa3          	sb	a3,-1(a4)
    111c:	00158593          	addi	a1,a1,1
    1120:	fe0796e3          	bnez	a5,110c <memcpy+0x74>
    1124:	ff88f813          	andi	a6,a7,-8
    1128:	fc080793          	addi	a5,a6,-64
    112c:	f8f77ee3          	bleu	a5,a4,10c8 <memcpy+0x30>
    1130:	0005b383          	ld	t2,0(a1)
    1134:	0085b283          	ld	t0,8(a1)
    1138:	0105bf83          	ld	t6,16(a1)
    113c:	0185bf03          	ld	t5,24(a1)
    1140:	0205be83          	ld	t4,32(a1)
    1144:	0285be03          	ld	t3,40(a1)
    1148:	0305b303          	ld	t1,48(a1)
    114c:	0385b603          	ld	a2,56(a1)
    1150:	04858593          	addi	a1,a1,72
    1154:	04870713          	addi	a4,a4,72
    1158:	ff85b683          	ld	a3,-8(a1)
    115c:	fa773c23          	sd	t2,-72(a4)
    1160:	fc573023          	sd	t0,-64(a4)
    1164:	fdf73423          	sd	t6,-56(a4)
    1168:	fde73823          	sd	t5,-48(a4)
    116c:	fdd73c23          	sd	t4,-40(a4)
    1170:	ffc73023          	sd	t3,-32(a4)
    1174:	fe673423          	sd	t1,-24(a4)
    1178:	fec73823          	sd	a2,-16(a4)
    117c:	fed73c23          	sd	a3,-8(a4)
    1180:	faf768e3          	bltu	a4,a5,1130 <memcpy+0x98>
    1184:	f45ff06f          	j	10c8 <memcpy+0x30>
    1188:	00050713          	mv	a4,a0
    118c:	03157463          	bleu	a7,a0,11b4 <memcpy+0x11c>
    1190:	0005c783          	lbu	a5,0(a1)
    1194:	00170713          	addi	a4,a4,1
    1198:	00158593          	addi	a1,a1,1
    119c:	fef70fa3          	sb	a5,-1(a4)
    11a0:	ff1768e3          	bltu	a4,a7,1190 <memcpy+0xf8>
    11a4:	00008067          	ret
    11a8:	00050713          	mv	a4,a0
    11ac:	ff1562e3          	bltu	a0,a7,1190 <memcpy+0xf8>
    11b0:	f55ff06f          	j	1104 <memcpy+0x6c>
    11b4:	00008067          	ret

00000000000011b8 <memset>:
    11b8:	00f00813          	li	a6,15
    11bc:	00050713          	mv	a4,a0
    11c0:	02c87a63          	bleu	a2,a6,11f4 <memset+0x3c>
    11c4:	00f77793          	andi	a5,a4,15
    11c8:	0a079063          	bnez	a5,1268 <memset+0xb0>
    11cc:	06059e63          	bnez	a1,1248 <memset+0x90>
    11d0:	ff067693          	andi	a3,a2,-16
    11d4:	00f67613          	andi	a2,a2,15
    11d8:	00e686b3          	add	a3,a3,a4
    11dc:	00b73023          	sd	a1,0(a4)
    11e0:	00b73423          	sd	a1,8(a4)
    11e4:	01070713          	addi	a4,a4,16
    11e8:	fed76ae3          	bltu	a4,a3,11dc <memset+0x24>
    11ec:	00061463          	bnez	a2,11f4 <memset+0x3c>
    11f0:	00008067          	ret
    11f4:	40c806b3          	sub	a3,a6,a2
    11f8:	00269693          	slli	a3,a3,0x2
    11fc:	00000297          	auipc	t0,0x0
    1200:	005686b3          	add	a3,a3,t0
    1204:	00c68067          	jr	a3,12
    1208:	00b70723          	sb	a1,14(a4)
    120c:	00b706a3          	sb	a1,13(a4)
    1210:	00b70623          	sb	a1,12(a4)
    1214:	00b705a3          	sb	a1,11(a4)
    1218:	00b70523          	sb	a1,10(a4)
    121c:	00b704a3          	sb	a1,9(a4)
    1220:	00b70423          	sb	a1,8(a4)
    1224:	00b703a3          	sb	a1,7(a4)
    1228:	00b70323          	sb	a1,6(a4)
    122c:	00b702a3          	sb	a1,5(a4)
    1230:	00b70223          	sb	a1,4(a4)
    1234:	00b701a3          	sb	a1,3(a4)
    1238:	00b70123          	sb	a1,2(a4)
    123c:	00b700a3          	sb	a1,1(a4)
    1240:	00b70023          	sb	a1,0(a4)
    1244:	00008067          	ret
    1248:	0ff5f593          	andi	a1,a1,255
    124c:	00859693          	slli	a3,a1,0x8
    1250:	00d5e5b3          	or	a1,a1,a3
    1254:	01059693          	slli	a3,a1,0x10
    1258:	00d5e5b3          	or	a1,a1,a3
    125c:	02059693          	slli	a3,a1,0x20
    1260:	00d5e5b3          	or	a1,a1,a3
    1264:	f6dff06f          	j	11d0 <memset+0x18>
    1268:	00279693          	slli	a3,a5,0x2
    126c:	00000297          	auipc	t0,0x0
    1270:	005686b3          	add	a3,a3,t0
    1274:	00008293          	mv	t0,ra
    1278:	f98680e7          	jalr	a3,-104
    127c:	00028093          	mv	ra,t0
    1280:	ff078793          	addi	a5,a5,-16
    1284:	40f70733          	sub	a4,a4,a5
    1288:	00f60633          	add	a2,a2,a5
    128c:	f6c874e3          	bleu	a2,a6,11f4 <memset+0x3c>
    1290:	f3dff06f          	j	11cc <memset+0x14>

0000000000001294 <strlen>:
    1294:	00757793          	andi	a5,a0,7
    1298:	00050593          	mv	a1,a0
    129c:	06079a63          	bnez	a5,1310 <strlen+0x7c>
    12a0:	000057b7          	lui	a5,0x5
    12a4:	4587b683          	ld	a3,1112(a5) # 5458 <verify_data+0x2000>
    12a8:	fff00613          	li	a2,-1
    12ac:	00850513          	addi	a0,a0,8
    12b0:	ff853783          	ld	a5,-8(a0)
    12b4:	00d7f733          	and	a4,a5,a3
    12b8:	00d70733          	add	a4,a4,a3
    12bc:	00d7e7b3          	or	a5,a5,a3
    12c0:	00f767b3          	or	a5,a4,a5
    12c4:	fec784e3          	beq	a5,a2,12ac <strlen+0x18>
    12c8:	ff854783          	lbu	a5,-8(a0)
    12cc:	40b505b3          	sub	a1,a0,a1
    12d0:	06078263          	beqz	a5,1334 <strlen+0xa0>
    12d4:	ff954783          	lbu	a5,-7(a0)
    12d8:	04078a63          	beqz	a5,132c <strlen+0x98>
    12dc:	ffa54783          	lbu	a5,-6(a0)
    12e0:	06078263          	beqz	a5,1344 <strlen+0xb0>
    12e4:	ffb54783          	lbu	a5,-5(a0)
    12e8:	04078a63          	beqz	a5,133c <strlen+0xa8>
    12ec:	ffc54783          	lbu	a5,-4(a0)
    12f0:	ffd54703          	lbu	a4,-3(a0)
    12f4:	ffe54683          	lbu	a3,-2(a0)
    12f8:	04078a63          	beqz	a5,134c <strlen+0xb8>
    12fc:	04070c63          	beqz	a4,1354 <strlen+0xc0>
    1300:	fff58513          	addi	a0,a1,-1
    1304:	04068c63          	beqz	a3,135c <strlen+0xc8>
    1308:	00008067          	ret
    130c:	f8070ae3          	beqz	a4,12a0 <strlen+0xc>
    1310:	00054783          	lbu	a5,0(a0)
    1314:	00150513          	addi	a0,a0,1
    1318:	00757713          	andi	a4,a0,7
    131c:	fe0798e3          	bnez	a5,130c <strlen+0x78>
    1320:	40b50533          	sub	a0,a0,a1
    1324:	fff50513          	addi	a0,a0,-1
    1328:	00008067          	ret
    132c:	ff958513          	addi	a0,a1,-7
    1330:	00008067          	ret
    1334:	ff858513          	addi	a0,a1,-8
    1338:	00008067          	ret
    133c:	ffb58513          	addi	a0,a1,-5
    1340:	00008067          	ret
    1344:	ffa58513          	addi	a0,a1,-6
    1348:	00008067          	ret
    134c:	ffc58513          	addi	a0,a1,-4
    1350:	00008067          	ret
    1354:	ffd58513          	addi	a0,a1,-3
    1358:	00008067          	ret
    135c:	ffe58513          	addi	a0,a1,-2
    1360:	00008067          	ret

0000000000001364 <strnlen>:
    1364:	02058e63          	beqz	a1,13a0 <strnlen+0x3c>
    1368:	00054783          	lbu	a5,0(a0)
    136c:	02078a63          	beqz	a5,13a0 <strnlen+0x3c>
    1370:	00150793          	addi	a5,a0,1
    1374:	00b505b3          	add	a1,a0,a1
    1378:	0100006f          	j	1388 <strnlen+0x24>
    137c:	fff74683          	lbu	a3,-1(a4)
    1380:	00068c63          	beqz	a3,1398 <strnlen+0x34>
    1384:	00070793          	mv	a5,a4
    1388:	00178713          	addi	a4,a5,1
    138c:	fef598e3          	bne	a1,a5,137c <strnlen+0x18>
    1390:	40a58533          	sub	a0,a1,a0
    1394:	00008067          	ret
    1398:	40a78533          	sub	a0,a5,a0
    139c:	00008067          	ret
    13a0:	00000513          	li	a0,0
    13a4:	00008067          	ret

Disassembly of section .text.startup:

00000000000013a8 <main>:
    13a8:	fe010113          	addi	sp,sp,-32
    13ac:	00813823          	sd	s0,16(sp)
    13b0:	00913423          	sd	s1,8(sp)
    13b4:	00003437          	lui	s0,0x3
    13b8:	000014b7          	lui	s1,0x1
    13bc:	80048513          	addi	a0,s1,-2048 # 800 <vprintfmt+0x10c>
    13c0:	45840593          	addi	a1,s0,1112 # 3458 <verify_data>
    13c4:	01213023          	sd	s2,0(sp)
    13c8:	00113c23          	sd	ra,24(sp)
    13cc:	00001937          	lui	s2,0x1
    13d0:	92cff0ef          	jal	4fc <sort>
    13d4:	45890513          	addi	a0,s2,1112 # 1458 <input_data>
    13d8:	8d4ff0ef          	jal	4ac <verify.constprop.2>
    13dc:	02050063          	beqz	a0,13fc <main+0x54>
    13e0:	01813083          	ld	ra,24(sp)
    13e4:	00100513          	li	a0,1
    13e8:	01013403          	ld	s0,16(sp)
    13ec:	00813483          	ld	s1,8(sp)
    13f0:	00013903          	ld	s2,0(sp)
    13f4:	02010113          	addi	sp,sp,32
    13f8:	00008067          	ret
    13fc:	00100513          	li	a0,1
    1400:	a1dff0ef          	jal	e1c <setStats>
    1404:	45890593          	addi	a1,s2,1112
    1408:	80048513          	addi	a0,s1,-2048
    140c:	8f0ff0ef          	jal	4fc <sort>
    1410:	00000513          	li	a0,0
    1414:	a09ff0ef          	jal	e1c <setStats>
    1418:	45840513          	addi	a0,s0,1112
    141c:	01813083          	ld	ra,24(sp)
    1420:	01013403          	ld	s0,16(sp)
    1424:	00813483          	ld	s1,8(sp)
    1428:	00013903          	ld	s2,0(sp)
    142c:	02010113          	addi	sp,sp,32
    1430:	87cff06f          	j	4ac <verify.constprop.2>
    1434:	000055b7          	lui	a1,0x5
    1438:	04000893          	li	a7,64
    143c:	00100513          	li	a0,1
    1440:	65058593          	addi	a1,a1,1616 # 5650 <verify_data+0x21f8>
    1444:	01700613          	li	a2,23
    1448:	00000073          	ecall
    144c:	fff00513          	li	a0,-1
    1450:	00008067          	ret

Disassembly of section .data:

0000000000001458 <input_data>:
    1458:	24a4                	fld	fs1,72(s1)
    145a:	0554                	addi	a3,sp,644
    145c:	cef4                	sw	a3,92(a3)
    145e:	3a2c                	fld	fa1,112(a2)
    1460:	4a64                	lw	s1,84(a2)
    1462:	97196adb          	custom2	s5,s2,17,75
    1466:	2b01                	sext.w	s6,s6
    1468:	f4ee                	sd	s11,104(sp)
    146a:	4861                	li	a6,24
    146c:	0039e5ef          	jal	a1,9fc6e <_gp+0x9a016>
    1470:	eeec                	sd	a1,216(a3)
    1472:	1802                	slli	a6,a6,0x20
    1474:	8b3e                	mv	s6,a5
    1476:	7ec6                	ld	t4,112(sp)
    1478:	4a40                	lw	s0,20(a2)
    147a:	6010                	ld	a2,0(s0)
    147c:	0df8                	addi	a4,sp,732
    147e:	2ee2                	fld	ft9,24(sp)
    1480:	6b72                	ld	s6,280(sp)
    1482:	2cf4                	fld	fa3,216(s1)
    1484:	49635f53          	0x49635f53
    1488:	8979                	andi	a0,a0,30
    148a:	9b6810f7          	0x9b6810f7
    148e:	0836                	slli	a6,a6,0xd
    1490:	79b5933b          	0x79b5933b
    1494:	db86                	sw	ra,244(sp)
    1496:	ca5913a7          	0xca5913a7
    149a:	4ad5                	li	s5,21
    149c:	28d5                	addiw	a7,a7,21
    149e:	1bb9                	addi	s7,s7,-18
    14a0:	72c2                	ld	t0,48(sp)
    14a2:	04bd673b          	0x4bd673b
    14a6:	9f1011fb          	0x9f1011fb
    14aa:	4f9f 88d5 1afe      	0x1afe88d54f9f
    14b0:	8b4c                	0x8b4c
    14b2:	d92d00d7          	0xd92d00d7
    14b6:	4961                	li	s2,24
    14b8:	8a60                	0x8a60
    14ba:	7761                	lui	a4,0xffff8
    14bc:	d1e1                	beqz	a1,147c <input_data+0x24>
    14be:	ee242b8f          	0xee242b8f
    14c2:	720e                	ld	tp,224(sp)
    14c4:	040c                	addi	a1,sp,512
    14c6:	4c04                	lw	s1,24(s0)
    14c8:	6e71                	lui	t3,0x1c
    14ca:	324a                	fld	ft4,176(sp)
    14cc:	0655                	addi	a2,a2,21
    14ce:	731d                	lui	t1,0xfffe7
    14d0:	917d                	srli	a0,a0,0x3f
    14d2:	58f5                	li	a7,-3
    14d4:	da5f 1d42 de31      	0xde311d42da5f
    14da:	7b31                	lui	s6,0xfffec
    14dc:	fa95                	bnez	a3,1410 <main+0x68>
    14de:	018a                	slli	gp,gp,0x2
    14e0:	d8e0                	sw	s0,116(s1)
    14e2:	12ec0e33          	0x12ec0e33
    14e6:	712a                	ld	sp,168(sp)
    14e8:	db66                	sw	s9,180(sp)
    14ea:	0ef1                	addi	t4,t4,28
    14ec:	3b49                	addiw	s6,s6,-14
    14ee:	601e                	0x601e
    14f0:	2601eb4f          	0x2601eb4f
    14f4:	cb54                	sw	a3,20(a4)
    14f6:	52c6                	lw	t0,112(sp)
    14f8:	2b51                	addiw	s6,s6,20
    14fa:	369a                	fld	fa3,416(sp)
    14fc:	d5c8                	sw	a0,44(a1)
    14fe:	401e                	0x401e
    1500:	10f8                	addi	a4,sp,108
    1502:	2844                	fld	fs1,144(s0)
    1504:	8c39                	xor	s0,s0,a4
    1506:	37e8                	fld	fa0,232(a5)
    1508:	0c00                	addi	s0,sp,528
    150a:	547c                	lw	a5,108(s0)
    150c:	0492                	slli	s1,s1,0x4
    150e:	59ed                	li	s3,-5
    1510:	632cf297          	auipc	t0,0x632cf
    1514:	1e9a                	slli	t4,t4,0x26
    1516:	6819                	lui	a6,0x6
    1518:	b431                	j	f24 <printf+0x48>
    151a:	e1f728ef          	jal	a7,fffffffffff74338 <_gp+0xfffffffffff6e6e0>
    151e:	7dbc                	ld	a5,120(a1)
    1520:	3468                	fld	fa0,232(s0)
    1522:	56fe                	lw	a3,252(sp)
    1524:	2441                	addiw	s0,s0,16
    1526:	a7de1353          	0xa7de1353
    152a:	7021                	0x7021
    152c:	62d6                	ld	t0,336(sp)
    152e:	86c8592f          	0x86c8592f
    1532:	304d                	0x304d
    1534:	8551                	srai	a0,a0,0x14
    1536:	484c                	lw	a1,20(s0)
    1538:	8b6a                	mv	s6,s10
    153a:	3ccc                	fld	fa1,184(s1)
    153c:	fb81                	bnez	a5,144c <main+0xa4>
    153e:	22e0                	fld	fs0,192(a3)
    1540:	783be667          	0x783be667
    1544:	2128e503          	lwu	a0,530(a7)
    1548:	bf66                	fsd	fs9,440(sp)
    154a:	4524                	lw	s1,72(a0)
    154c:	52ea70bb          	0x52ea70bb
    1550:	662c                	ld	a1,72(a2)
    1552:	48ee                	lw	a7,216(sp)
    1554:	6f6a                	ld	t5,152(sp)
    1556:	4139                	li	sp,14
    1558:	af00                	fsd	fs0,24(a4)
    155a:	1a05                	addi	s4,s4,-31
    155c:	0b5676e3          	bleu	s5,a2,1e08 <input_data+0x9b0>
    1560:	7ca6                	ld	s9,104(sp)
    1562:	727123f3          	csrrs	t2,0x727,sp
    1566:	5a32                	lw	s4,44(sp)
    1568:	5b08                	lw	a0,48(a4)
    156a:	6145                	addi	sp,sp,48
    156c:	e12a                	sd	a0,128(sp)
    156e:	55d6                	lw	a1,116(sp)
    1570:	6f29                	lui	t5,0xa
    1572:	4db5                	li	s11,13
    1574:	301453e7          	0x301453e7
    1578:	4ba0                	lw	s0,80(a5)
    157a:	4191                	li	gp,4
    157c:	42ff                	0x42ff
    157e:	46ae                	lw	a3,200(sp)
    1580:	148d                	addi	s1,s1,-29
    1582:	544a                	lw	s0,176(sp)
    1584:	96b1                	srai	a3,a3,0x2c
    1586:	780c                	ld	a1,48(s0)
    1588:	b280                	fsd	fs0,32(a3)
    158a:	1900                	addi	s0,sp,176
    158c:	058c                	addi	a1,sp,704
    158e:	c97f4bef          	jal	s7,ffffffffffff6224 <_gp+0xffffffffffff05cc>
    1592:	0a79                	addi	s4,s4,30
    1594:	c11e                	sw	t2,128(sp)
    1596:	48ec                	lw	a1,84(s1)
    1598:	27e4                	fld	fs1,200(a5)
    159a:	223a                	fld	ft4,392(sp)
    159c:	135a                	slli	t1,t1,0x36
    159e:	79ff                	0x79ff
    15a0:	1082                	slli	ra,ra,0x20
    15a2:	16571d5b          	0x16571d5b
    15a6:	66a0                	ld	s0,72(a3)
    15a8:	0c12                	slli	s8,s8,0x4
    15aa:	2b48                	fld	fa0,144(a4)
    15ac:	5c10                	lw	a2,56(s0)
    15ae:	4adf f786 78fd      	0x78fdf7864adf
    15b4:	34f5                	addiw	s1,s1,-3
    15b6:	5266                	lw	tp,120(sp)
    15b8:	739d378b          	custom0	15,s10,s9,57
    15bc:	9259                	srli	a2,a2,0x36
    15be:	2f28                	fld	fa0,88(a4)
    15c0:	1ef9fd23          	0x1ef9fd23
    15c4:	ccad                	beqz	s1,163e <input_data+0x1e6>
    15c6:	43cd3ea7          	fsd	ft8,1085(s10)
    15ca:	74fc                	ld	a5,232(s1)
    15cc:	2a22a5e3          	0x2a22a5e3
    15d0:	cf72                	sw	t3,156(sp)
    15d2:	69e2                	ld	s3,24(sp)
    15d4:	281bbd27          	fsd	ft1,666(s7)
    15d8:	778e56c3          	0x778e56c3
    15dc:	4bf29b83          	lh	s7,1215(t0) # 632d09cf <_gp+0x632cad77>
    15e0:	de88                	sw	a0,56(a3)
    15e2:	0fec7e53          	0xfec7e53
    15e6:	31c6                	fld	ft3,112(sp)
    15e8:	191afacb          	fnmsub.s	fs5,fs5,fa7,ft3
    15ec:	8575                	srai	a0,a0,0x1d
    15ee:	45b2                	lw	a1,12(sp)
    15f0:	5c90                	lw	a2,56(s1)
    15f2:	7b08                	ld	a0,48(a4)
    15f4:	5f7c                	lw	a5,124(a4)
    15f6:	2d61533f 7dc148a1 	0x7dc148a12d61533f
    15fe:	7d81                	lui	s11,0xfffe0
    1600:	e584                	sd	s1,8(a1)
    1602:	2cf4                	fld	fa3,216(s1)
    1604:	5d7f                	0x5d7f
    1606:	7fca                	ld	t6,176(sp)
    1608:	6e6c                	ld	a1,216(a2)
    160a:	532a                	lw	t1,168(sp)
    160c:	a4ba                	fsd	fa4,72(sp)
    160e:	6855                	lui	a6,0x15
    1610:	a888                	fsd	fa0,16(s1)
    1612:	5431                	li	s0,-20
    1614:	4a15                	li	s4,5
    1616:	0a26                	slli	s4,s4,0x9
    1618:	3a26                	fld	fs4,104(sp)
    161a:	45a11733          	0x45a11733
    161e:	1ab8                	addi	a4,sp,376
    1620:	0e578ce3          	beq	a5,t0,1f18 <input_data+0xac0>
    1624:	4e46                	lw	t3,80(sp)
    1626:	7fe8                	ld	a0,248(a5)
    1628:	f7a0                	sd	s0,104(a5)
    162a:	6e10                	ld	a2,24(a2)
    162c:	6366                	ld	t1,88(sp)
    162e:	50b4                	lw	a3,96(s1)
    1630:	08606c9b          	0x8606c9b
    1634:	cb9d                	beqz	a5,166a <input_data+0x212>
    1636:	6c92                	ld	s9,256(sp)
    1638:	05f9                	addi	a1,a1,30
    163a:	24f4                	fld	fa3,200(s1)
    163c:	0f8e                	slli	t6,t6,0x3
    163e:	5a42                	lw	s4,48(sp)
    1640:	2cc21eab          	0x2cc21eab
    1644:	d2d0                	sw	a2,36(a3)
    1646:	7fc0                	ld	s0,184(a5)
    1648:	321c                	fld	fa5,32(a2)
    164a:	1225                	addi	tp,tp,-23
    164c:	0d30                	addi	a2,sp,664
    164e:	207d                	0x207d
    1650:	aae2                	fsd	fs8,336(sp)
    1652:	73fd                	lui	t2,0xfffff
    1654:	1398                	addi	a4,sp,480
    1656:	5bad                	li	s7,-21
    1658:	7f30                	ld	a2,120(a4)
    165a:	7188                	ld	a0,32(a1)
    165c:	6219                	lui	tp,0x6
    165e:	a15d371b          	0xa15d371b
    1662:	b79f21d7          	0xb79f21d7
    1666:	353e                	fld	fa0,488(sp)
    1668:	cba1                	beqz	a5,16b8 <input_data+0x260>
    166a:	980f49e3          	bltz	t5,ffc <_init+0x68>
    166e:	4500                	lw	s0,8(a0)
    1670:	2f96                	fld	ft11,320(sp)
    1672:	7d84                	ld	s1,56(a1)
    1674:	59bbba97          	auipc	s5,0x59bbb
    1678:	7cc8                	ld	a0,184(s1)
    167a:	6186                	ld	gp,64(sp)
    167c:	00949033          	sll	zero,s1,s1
    1680:	2d32                	fld	fs10,264(sp)
    1682:	1ee1                	addi	t4,t4,-8
    1684:	7168                	ld	a0,224(a0)
    1686:	fb3a3f67          	0xfb3a3f67
    168a:	ea803d57          	0xea803d57
    168e:	0cd0                	addi	a2,sp,596
    1690:	fa46                	sd	a7,304(sp)
    1692:	4001                	0x4001
    1694:	1281                	addi	t0,t0,-32
    1696:	6ecd                	lui	t4,0x13
    1698:	69aa                	ld	s3,136(sp)
    169a:	33a5                	addiw	t2,t2,-23
    169c:	58e6236f          	jal	t1,63c2a <_gp+0x5dfd2>
    16a0:	a960                	fsd	fs0,208(a0)
    16a2:	1c74                	addi	a3,sp,572
    16a4:	3150                	fld	fa2,160(a0)
    16a6:	3561                	addiw	a0,a0,-8
    16a8:	a07c                	fsd	fa5,192(s0)
    16aa:	a9bd38e3          	0xa9bd38e3
    16ae:	2609                	addiw	a2,a2,2
    16b0:	8f18                	0x8f18
    16b2:	5c65                	li	s8,-7
    16b4:	3ecd                	addiw	t4,t4,-13
    16b6:	24a2                	fld	fs1,8(sp)
    16b8:	17e6                	slli	a5,a5,0x39
    16ba:	56a1                	li	a3,-24
    16bc:	4e44                	lw	s1,28(a2)
    16be:	4f90                	lw	a2,24(a5)
    16c0:	28bdf153          	0x28bdf153
    16c4:	4130                	lw	a2,64(a0)
    16c6:	0ac50a0f          	0xac50a0f
    16ca:	1cb4                	addi	a3,sp,632
    16cc:	9006                	0x9006
    16ce:	2d0c                	fld	fa1,24(a0)
    16d0:	3012                	fld	ft0,288(sp)
    16d2:	782c                	ld	a1,112(s0)
    16d4:	14c2                	slli	s1,s1,0x30
    16d6:	454d                	li	a0,19
    16d8:	bbfa                	fsd	ft10,496(sp)
    16da:	664924eb          	0x664924eb
    16de:	52de                	lw	t0,244(sp)
    16e0:	61f6                	ld	gp,344(sp)
    16e2:	a7d10f4f          	0xa7d10f4f
    16e6:	15c5                	addi	a1,a1,-15
    16e8:	687e                	ld	a6,472(sp)
    16ea:	4ed0                	lw	a2,28(a3)
    16ec:	4adc                	lw	a5,20(a3)
    16ee:	439a                	lw	t2,132(sp)
    16f0:	fe51                	bnez	a2,168c <input_data+0x234>
    16f2:	4da5                	li	s11,9
    16f4:	c3bd                	beqz	a5,175a <input_data+0x302>
    16f6:	2511                	addiw	a0,a0,4
    16f8:	100a                	0x100a
    16fa:	31ec                	fld	fa1,224(a1)
    16fc:	66076677          	0x66076677
    1700:	ceea                	sw	s10,92(sp)
    1702:	2cfe                	fld	fs9,472(sp)
    1704:	152e                	slli	a0,a0,0x2b
    1706:	66b5                	lui	a3,0xd
    1708:	de5c                	sw	a5,60(a2)
    170a:	3a4e                	fld	fs4,240(sp)
    170c:	e140                	sd	s0,128(a0)
    170e:	5c50                	lw	a2,60(s0)
    1710:	034d                	addi	t1,t1,19
    1712:	23a5                	addiw	t2,t2,9
    1714:	4569                	li	a0,26
    1716:	613d                	addi	sp,sp,480
    1718:	9f26                	add	t5,t5,s1
    171a:	2f24                	fld	fs1,88(a4)
    171c:	796a                	ld	s2,184(sp)
    171e:	5f84                	lw	s1,56(a5)
    1720:	2df3dfcb          	0x2df3dfcb
    1724:	16b9                	addi	a3,a3,-18
    1726:	0bd0                	addi	a2,sp,468
    1728:	4699                	li	a3,6
    172a:	4add                	li	s5,23
    172c:	a1f8                	fsd	fa4,192(a1)
    172e:	7eb8                	ld	a4,120(a3)
    1730:	2215                	addiw	tp,tp,5
    1732:	080c                	addi	a1,sp,16
    1734:	9608                	0x9608
    1736:	22c1                	addiw	t0,t0,16
    1738:	3888                	fld	fa0,48(s1)
    173a:	7e41                	lui	t3,0xffff0
    173c:	8b9f 6d56 d570      	0xd5706d568b9f
    1742:	33ac                	fld	fa1,96(a5)
    1744:	938e                	add	t2,t2,gp
    1746:	650a                	ld	a0,128(sp)
    1748:	983d                	andi	s0,s0,-17
    174a:	2c6a                	fld	fs8,152(sp)
    174c:	99ca                	add	s3,s3,s2
    174e:	4428                	lw	a0,72(s0)
    1750:	f095                	bnez	s1,1674 <input_data+0x21c>
    1752:	4252                	lw	tp,20(sp)
    1754:	b4a9                	j	119e <memcpy+0x106>
    1756:	1c88                	addi	a0,sp,624
    1758:	8ad5                	andi	a3,a3,21
    175a:	e5b747a7          	0xe5b747a7
    175e:	b7293b13          	sltiu	s6,s2,-1166
    1762:	745e                	ld	s0,496(sp)
    1764:	1ef490c3          	0x1ef490c3
    1768:	f658                	sd	a4,168(a2)
    176a:	635d                	lui	t1,0x17
    176c:	2deb91bf 20b378d4 	0x20b378d42deb91bf
    1774:	2a8f6b6f          	jal	s6,f7a1c <_gp+0xf1dc4>
    1778:	e759                	bnez	a4,1806 <input_data+0x3ae>
    177a:	ceb263c7          	0xceb263c7
    177e:	57b6                	lw	a5,108(sp)
    1780:	e800                	sd	s0,16(s0)
    1782:	4cb5                	li	s9,13
    1784:	3d98                	fld	fa4,56(a1)
    1786:	5ed1                	li	t4,-12
    1788:	6746                	ld	a4,80(sp)
    178a:	1268                	addi	a0,sp,300
    178c:	9561                	srai	a0,a0,0x38
    178e:	392e                	fld	fs2,232(sp)
    1790:	e231                	bnez	a2,17d4 <input_data+0x37c>
    1792:	0456                	slli	s0,s0,0x15
    1794:	dfd0                	sw	a2,60(a5)
    1796:	27f8                	fld	fa4,200(a5)
    1798:	2d4e                	fld	fs10,208(sp)
    179a:	3635100b          	0x3635100b
    179e:	5f46                	lw	t5,112(sp)
    17a0:	23fa                	fld	ft7,408(sp)
    17a2:	789c                	ld	a5,48(s1)
    17a4:	47c5                	li	a5,17
    17a6:	33eb476b          	0x33eb476b
    17aa:	779e                	ld	a5,480(sp)
    17ac:	00fc                	addi	a5,sp,76
    17ae:	3d62                	fld	fs10,56(sp)
    17b0:	02a2                	slli	t0,t0,0x8
    17b2:	6676                	ld	a2,344(sp)
    17b4:	476bead3          	0x476bead3
    17b8:	46dadd13          	0x46dadd13
    17bc:	66c4                	ld	s1,136(a3)
    17be:	7691                	lui	a3,0xfffe4
    17c0:	e555                	bnez	a0,186c <input_data+0x414>
    17c2:	3748                	fld	fa0,168(a4)
    17c4:	77b2                	ld	a5,296(sp)
    17c6:	eef76607          	0xeef76607
    17ca:	5324                	lw	s1,96(a4)
    17cc:	17e0                	addi	s0,sp,1004
    17ce:	2dd6                	fld	fs11,336(sp)
    17d0:	d7ff                	0xd7ff
    17d2:	7a02                	ld	s4,32(sp)
    17d4:	3950                	fld	fa2,176(a0)
    17d6:	5376722b          	custom1	tp,a2,s7,41
    17da:	24e0                	fld	fs0,200(s1)
    17dc:	5557c007          	0x5557c007
    17e0:	31ca                	fld	ft3,176(sp)
    17e2:	0281                	addi	t0,t0,0
    17e4:	94ba                	add	s1,s1,a4
    17e6:	41f6                	lw	gp,92(sp)
    17e8:	2422                	fld	fs0,8(sp)
    17ea:	229c0663          	beq	s8,s1,1a16 <input_data+0x5be>
    17ee:	477c                	lw	a5,76(a4)
    17f0:	0b0fe933          	0xb0fe933
    17f4:	6f793433          	0x6f793433
    17f8:	2cec                	fld	fa1,216(s1)
    17fa:	0c38                	addi	a4,sp,536
    17fc:	7909                	lui	s2,0xfffe2
    17fe:	6d55                	lui	s10,0x15
    1800:	cfc9                	beqz	a5,189a <input_data+0x442>
    1802:	9167388b          	custom0	17,a4,s6,72
    1806:	af6d3867          	0xaf6d3867
    180a:	4b3e                	lw	s6,204(sp)
    180c:	1545                	addi	a0,a0,-15
    180e:	07d5                	addi	a5,a5,21
    1810:	8f85                	sub	a5,a5,s1
    1812:	4eca                	lw	t4,144(sp)
    1814:	b0b9                	j	1062 <_init+0xce>
    1816:	56f8                	lw	a4,108(a3)
    1818:	d0d4                	sw	a3,36(s1)
    181a:	30f6                	fld	ft1,376(sp)
    181c:	6a74                	ld	a3,208(a2)
    181e:	32ce                	fld	ft5,240(sp)
    1820:	e3c1                	bnez	a5,18a0 <input_data+0x448>
    1822:	23fe                	fld	ft7,472(sp)
    1824:	ffb9                	bnez	a5,1782 <input_data+0x32a>
    1826:	013a                	slli	sp,sp,0xe
    1828:	6796bc67          	0x6796bc67
    182c:	bdad                	j	16a6 <input_data+0x24e>
    182e:	0236                	slli	tp,tp,0xd
    1830:	27d6                	fld	fa5,336(sp)
    1832:	7c7d                	lui	s8,0xfffff
    1834:	68b2                	ld	a7,264(sp)
    1836:	24b915db          	0x24b915db
    183a:	e0d668fb          	custom3	a7,a2,13,112
    183e:	f557254f          	0xf557254f
    1842:	cd5f2c2b          	custom1	24,t5,21,102
    1846:	30b8                	fld	fa4,96(s1)
    1848:	6d68                	ld	a0,216(a0)
    184a:	39c6                	fld	fs3,112(sp)
    184c:	44b079ab          	custom1	s3,zero,a1,34
    1850:	2be4                	fld	fs1,208(a5)
    1852:	41ae                	lw	gp,200(sp)
    1854:	3abd                	addiw	s5,s5,-17
    1856:	678e17cf          	0x678e17cf
    185a:	7bac                	ld	a1,112(a5)
    185c:	76de                	ld	a3,496(sp)
    185e:	7582                	ld	a1,32(sp)
    1860:	2c8f5cab          	0x2c8f5cab
    1864:	452947fb          	custom3	a5,18,18,34
    1868:	2ace                	fld	fs5,208(sp)
    186a:	679d                	lui	a5,0x7
    186c:	7558                	ld	a4,168(a0)
    186e:	7df8                	ld	a4,248(a1)
    1870:	3381                	addiw	t2,t2,-32
    1872:	7111                	addi	sp,sp,-256
    1874:	328d                	addiw	t0,t0,-29
    1876:	34f371bb          	0x34f371bb
    187a:	44e0                	lw	s0,76(s1)
    187c:	f79f 0704 1798      	0x17980704f79f
    1882:	7948                	ld	a0,176(a0)
    1884:	6961                	lui	s2,0x18
    1886:	4e72                	lw	t3,28(sp)
    1888:	9a45                	andi	a2,a2,-15
    188a:	59d9                	li	s3,-10
    188c:	79ea714f          	fnmadd.s	ft2,fs4,ft10,fa5
    1890:	ddde                	sw	s7,248(sp)
    1892:	2d9e                	fld	fs11,448(sp)
    1894:	592a                	lw	s2,168(sp)
    1896:	3d7d                	addiw	s10,s10,-1
    1898:	b06d                	j	1142 <memcpy+0xaa>
    189a:	48c5                	li	a7,17
    189c:	136948cb          	fnmsub.d	fa7,fs2,fs6,ft2,rmm
    18a0:	06f2                	slli	a3,a3,0x1c
    18a2:	723d                	lui	tp,0xfffef
    18a4:	6bd8                	ld	a4,144(a5)
    18a6:	00fa                	slli	ra,ra,0x1e
    18a8:	3e02                	fld	ft8,32(sp)
    18aa:	02d4                	addi	a3,sp,324
    18ac:	10ed                	addi	ra,ra,-5
    18ae:	5241                	li	tp,-16
    18b0:	a2c4                	fsd	fs1,128(a3)
    18b2:	48c8                	lw	a0,20(s1)
    18b4:	4d28                	lw	a0,88(a0)
    18b6:	2afa                	fld	fs5,408(sp)
    18b8:	5552d8af          	0x5552d8af
    18bc:	5cf8                	lw	a4,124(s1)
    18be:	5d8c                	lw	a1,56(a1)
    18c0:	93c9                	srli	a5,a5,0x32
    18c2:	3634                	fld	fa3,104(a2)
    18c4:	0c30a657          	0xc30a657
    18c8:	37a6bc03          	ld	s8,890(a3) # fffffffffffe437a <_gp+0xfffffffffffde722>
    18cc:	5d52b08f          	0x5d52b08f
    18d0:	145d8bd7          	0x145d8bd7
    18d4:	a2f2                	fsd	ft8,320(sp)
    18d6:	02d623ef          	jal	t2,64102 <_gp+0x5e4aa>
    18da:	0051                	0x51
    18dc:	2dde                	fld	fs11,464(sp)
    18de:	32a2                	fld	ft5,40(sp)
    18e0:	0ac3bca3          	sd	a2,185(t2) # fffffffffffff0b9 <_gp+0xffffffffffff9461>
    18e4:	b0c8                	fsd	fa0,160(s1)
    18e6:	583d                	li	a6,-17
    18e8:	1fbccd53          	0x1fbccd53
    18ec:	74bac3d7          	0x74bac3d7
    18f0:	d5d4                	sw	a3,44(a1)
    18f2:	0654                	addi	a3,sp,772
    18f4:	0d01                	addi	s10,s10,0
    18f6:	3d1a                	fld	fs10,416(sp)
    18f8:	7da5                	lui	s11,0xfffe9
    18fa:	37c5                	addiw	a5,a5,-15
    18fc:	686ebe97          	auipc	t4,0x686eb
    1900:	8ac2                	mv	s5,a6
    1902:	6599                	lui	a1,0x6
    1904:	d049                	beqz	s0,1886 <input_data+0x42e>
    1906:	d5415d7b          	0xd5415d7b
    190a:	bbe76f5b          	custom2	t5,a4,30,93
    190e:	21f8                	fld	fa4,192(a1)
    1910:	79d1                	lui	s3,0xffff4
    1912:	4c253e53          	0x4c253e53
    1916:	1060                	addi	s0,sp,44
    1918:	5cce                	lw	s9,240(sp)
    191a:	25de3513          	sltiu	a0,t3,605
    191e:	1e45                	addi	t3,t3,-15
    1920:	ef64                	sd	s1,216(a4)
    1922:	ab662f4b          	fnmsub.d	ft10,fa2,fs6,fs5,rdn
    1926:	1b78                	addi	a4,sp,444
    1928:	20ae                	fld	ft1,200(sp)
    192a:	464e                	lw	a2,208(sp)
    192c:	172d75a3          	0x172d75a3
    1930:	9e80                	0x9e80
    1932:	4261                	li	tp,24
    1934:	00d3e7bb          	0xd3e7bb
    1938:	6c2a                	ld	s8,136(sp)
    193a:	a05071d3          	0xa05071d3
    193e:	4085                	li	ra,1
    1940:	08ff                	0x8ff
    1942:	465f576b          	0x465f576b
    1946:	4c61                	li	s8,24
    1948:	cd3e                	sw	a5,152(sp)
    194a:	247e                	fld	fs0,472(sp)
    194c:	2ff2                	fld	ft11,280(sp)
    194e:	1640                	addi	s0,sp,804
    1950:	f16e                	sd	s11,160(sp)
    1952:	21e4                	fld	fs1,192(a1)
    1954:	5278adf3          	csrrs	s11,0x527,a7
    1958:	4afd                	li	s5,31
    195a:	3fff                	0x3fff
    195c:	aaad                	j	1ad6 <input_data+0x67e>
    195e:	d0832c73          	csrrs	s8,0xd08,t1
    1962:	4768253f 58a24cd9 	0x58a24cd94768253f
    196a:	09fd72f3          	csrrc	t0,0x9f,26
    196e:	08d4                	addi	a3,sp,84
    1970:	e83e                	sd	a5,16(sp)
    1972:	1b94                	addi	a3,sp,496
    1974:	6ce3fc13          	andi	s8,t2,1742
    1978:	af35                	j	20b4 <input_data+0xc5c>
    197a:	5dac                	lw	a1,120(a1)
    197c:	2416                	fld	fs0,320(sp)
    197e:	545d                	li	s0,-9
    1980:	2e9a                	fld	ft9,384(sp)
    1982:	82e3583b          	0x82e3583b
    1986:	4f5e                	lw	t5,212(sp)
    1988:	202fd7d7          	0x202fd7d7
    198c:	096e                	slli	s2,s2,0x1b
    198e:	e9f00f97          	auipc	t6,0xe9f00
    1992:	64bd                	lui	s1,0xf
    1994:	10e4ceaf          	0x10e4ceaf
    1998:	d0aa                	sw	a0,96(sp)
    199a:	4735                	li	a4,13
    199c:	7850                	ld	a2,176(s0)
    199e:	78e96a2b          	custom1	s4,s2,14,60
    19a2:	26ba                	fld	fa3,392(sp)
    19a4:	5579cfa7          	0x5579cfa7
    19a8:	d65f 43b2 a8b1      	0xa8b143b2d65f
    19ae:	601e3793          	sltiu	a5,t3,1537
    19b2:	45c8                	lw	a0,12(a1)
    19b4:	99ec                	0x99ec
    19b6:	3e85                	addiw	t4,t4,-31
    19b8:	fc5d                	bnez	s0,1976 <input_data+0x51e>
    19ba:	d200294b          	fnmsub.d	fs2,ft0,ft0,fs10,rdn
    19be:	574d6097          	auipc	ra,0x574d6
    19c2:	7966                	ld	s2,120(sp)
    19c4:	233d                	addiw	t1,t1,15
    19c6:	101e                	0x101e
    19c8:	24d5dd8b          	0x24d5dd8b
    19cc:	ed35                	bnez	a0,1a48 <input_data+0x5f0>
    19ce:	504d                	0x504d
    19d0:	b03a                	fsd	fa4,32(sp)
    19d2:	6998                	ld	a4,16(a1)
    19d4:	01d8e9c7          	fmsub.s	fs3,fa7,ft9,ft0,unknown
    19d8:	4fba                	lw	t6,140(sp)
    19da:	2711                	addiw	a4,a4,4
    19dc:	54ee                	lw	s1,248(sp)
    19de:	1121015b          	custom2	2,2,18,8
    19e2:	6511                	lui	a0,0x4
    19e4:	f61d                	bnez	a2,1912 <input_data+0x4ba>
    19e6:	33b6                	fld	ft7,360(sp)
    19e8:	a3b2                	fsd	fa2,448(sp)
    19ea:	5dff                	0x5dff
    19ec:	05ac                	addi	a1,sp,712
    19ee:	0d95                	addi	s11,s11,5
    19f0:	7afd1cd3          	0x7afd1cd3
    19f4:	ca46                	sw	a7,20(sp)
    19f6:	5a21                	li	s4,-24
    19f8:	9bd8                	0x9bd8
    19fa:	2ef6                	fld	ft9,344(sp)
    19fc:	6041                	0x6041
    19fe:	68d4                	ld	a3,144(s1)
    1a00:	4274                	lw	a3,68(a2)
    1a02:	5c99                	li	s9,-26
    1a04:	7b86eff3          	csrrs	t6,0x7b8,13
    1a08:	e378                	sd	a4,192(a4)
    1a0a:	25b4                	fld	fa3,72(a1)
    1a0c:	34127047          	0x34127047
    1a10:	8ed0                	0x8ed0
    1a12:	7cfe                	ld	s9,504(sp)
    1a14:	7008f7cb          	fnmsub.s	fa5,fa7,ft0,fa4
    1a18:	70b5                	lui	ra,0xfffed
    1a1a:	53ba                	lw	t2,172(sp)
    1a1c:	6db9d8c7          	0x6db9d8c7
    1a20:	f955                	bnez	a0,19d4 <input_data+0x57c>
    1a22:	5ff5                	li	t6,-3
    1a24:	dbe0                	sw	s0,116(a5)
    1a26:	db0a0b17          	auipc	s6,0xdb0a0
    1a2a:	0bb4                	addi	a3,sp,472
    1a2c:	a8fc                	fsd	fa5,208(s1)
    1a2e:	46b207bf d7423089 	0xd742308946b207bf
    1a36:	507c54af          	0x507c54af
    1a3a:	0d86                	slli	s11,s11,0x1
    1a3c:	7b2e                	ld	s6,232(sp)
    1a3e:	5595                	li	a1,-27
    1a40:	3b0a                	fld	fs6,160(sp)
    1a42:	0d31                	addi	s10,s10,12
    1a44:	e4b2                	sd	a2,72(sp)
    1a46:	139c                	addi	a5,sp,480
    1a48:	735e                	ld	t1,496(sp)
    1a4a:	30ee                	fld	ft1,248(sp)
    1a4c:	0f8b5fbf 538275d3 	0x538275d30f8b5fbf
    1a54:	366e                	fld	fa2,248(sp)
    1a56:	0c92                	slli	s9,s9,0x4
    1a58:	0ac0                	addi	s0,sp,340
    1a5a:	364469c7          	0x364469c7
    1a5e:	34de                	fld	fs1,496(sp)
    1a60:	f150                	sd	a2,160(a0)
    1a62:	6bb5                	lui	s7,0xd
    1a64:	1e48192b          	0x1e48192b
    1a68:	0f76                	slli	t5,t5,0x1d
    1a6a:	36cb2dbb          	0x36cb2dbb
    1a6e:	bfaa0197          	auipc	gp,0xbfaa0
    1a72:	12ff                	0x12ff
    1a74:	d420                	sw	s0,104(s0)
    1a76:	3fc03647          	0x3fc03647
    1a7a:	06fd                	addi	a3,a3,31
    1a7c:	8d3a                	mv	s10,a4
    1a7e:	3fa67bab          	custom1	s7,a2,s10,31
    1a82:	11f6                	slli	gp,gp,0x3d
    1a84:	1bb4383f 7a6c039a 	0x7a6c039a1bb4383f
    1a8c:	08d9                	addi	a7,a7,22
    1a8e:	a3054f97          	auipc	t6,0xa3054
    1a92:	2bf5                	addiw	s7,s7,29
    1a94:	b07f                	0xb07f
    1a96:	2e56                	fld	ft8,336(sp)
    1a98:	44630ba3          	sb	t1,1111(t1) # 17457 <_gp+0x117ff>
    1a9c:	01e6                	slli	gp,gp,0x19
    1a9e:	407d761b          	0x407d761b
    1aa2:	c554610f          	0xc554610f
    1aa6:	b4a35ba3          	0xb4a35ba3
    1aaa:	b76642d7          	0xb76642d7
    1aae:	52fa                	lw	t0,188(sp)
    1ab0:	6b51cb4f          	fnmadd.d	fs6,ft3,fs5,fa3,rmm
    1ab4:	2540                	fld	fs0,136(a0)
    1ab6:	d9bb2667          	0xd9bb2667
    1aba:	86fc4be3          	blt	s8,a5,1330 <strlen+0x9c>
    1abe:	71a0                	ld	s0,96(a1)
    1ac0:	2a85                	addiw	s5,s5,1
    1ac2:	648301af          	0x648301af
    1ac6:	5776                	lw	a4,124(sp)
    1ac8:	5f2d                	li	t5,-21
    1aca:	80f21633          	0x80f21633
    1ace:	49ca04ab          	custom1	9,20,28,36
    1ad2:	0816                	slli	a6,a6,0x5
    1ad4:	c5ee                	sw	s11,200(sp)
    1ad6:	3f4a                	fld	ft10,176(sp)
    1ad8:	5fc4                	lw	s1,60(a5)
    1ada:	fa540f83          	lb	t6,-91(s0)
    1ade:	469a                	lw	a3,132(sp)
    1ae0:	dde6                	sw	s9,248(sp)
    1ae2:	1122                	slli	sp,sp,0x28
    1ae4:	7ed5                	lui	t4,0xffff5
    1ae6:	44d5                	li	s1,21
    1ae8:	86e0                	0x86e0
    1aea:	6126                	ld	sp,72(sp)
    1aec:	7c45df3b          	0x7c45df3b
    1af0:	b6d4                	fsd	fa3,168(a3)
    1af2:	2faa                	fld	ft11,136(sp)
    1af4:	52670823          	sb	t1,1328(a4) # ffffffffffff8530 <_gp+0xffffffffffff28d8>
    1af8:	c122                	sw	s0,128(sp)
    1afa:	79f0                	ld	a2,240(a1)
    1afc:	37a5a727          	fsw	fs10,878(a1) # 636e <_gp+0x716>
    1b00:	d981                	beqz	a1,1a10 <input_data+0x5b8>
    1b02:	2e88050f          	0x2e88050f
    1b06:	3539                	addiw	a0,a0,-18
    1b08:	0db2                	slli	s11,s11,0xc
    1b0a:	10a5                	addi	ra,ra,-23
    1b0c:	ed86                	sd	ra,216(sp)
    1b0e:	26d8                	fld	fa4,136(a3)
    1b10:	3b24                	fld	fs1,112(a4)
    1b12:	0e38                	addi	a4,sp,792
    1b14:	b3cd                	j	18f6 <input_data+0x49e>
    1b16:	3834                	fld	fa3,112(s0)
    1b18:	da28                	sw	a0,112(a2)
    1b1a:	6ca2                	ld	s9,8(sp)
    1b1c:	d051                	beqz	s0,1aa0 <input_data+0x648>
    1b1e:	98346e3f 734737ff 	0x734737ff98346e3f
    1b26:	1a06                	slli	s4,s4,0x21
    1b28:	f31d                	bnez	a4,1a4e <input_data+0x5f6>
    1b2a:	20bc                	fld	fa5,64(s1)
    1b2c:	56d6                	lw	a3,116(sp)
    1b2e:	3d54                	fld	fa3,184(a0)
    1b30:	810a                	mv	sp,sp
    1b32:	2285                	addiw	t0,t0,1
    1b34:	1b69                	addi	s6,s6,-6
    1b36:	7ea5                	lui	t4,0xfffe9
    1b38:	b34e                	fsd	fs3,416(sp)
    1b3a:	347a                	fld	fs0,440(sp)
    1b3c:	4290                	lw	a2,0(a3)
    1b3e:	56155683          	lhu	a3,1377(a0) # 4561 <verify_data+0x1109>
    1b42:	5081                	li	ra,-32
    1b44:	ae74                	fsd	fa3,216(a2)
    1b46:	bb695c27          	0xbb695c27
    1b4a:	3324                	fld	fs1,96(a4)
    1b4c:	cc31                	beqz	s0,1ba8 <input_data+0x750>
    1b4e:	7eed                	lui	t4,0xffffb
    1b50:	8db4                	0x8db4
    1b52:	1c4b4667          	0x1c4b4667
    1b56:	2b5e                	fld	fs6,464(sp)
    1b58:	1c78                	addi	a4,sp,572
    1b5a:	6089                	lui	ra,0x2
    1b5c:	39c2eec3          	fmadd.s	ft9,ft5,ft8,ft7,unknown
    1b60:	48473db3          	0x48473db3
    1b64:	6762                	ld	a4,24(sp)
    1b66:	5120                	lw	s0,96(a0)
    1b68:	15f77ee7          	0x15f77ee7
    1b6c:	13e702e3          	beq	a4,t5,2490 <input_data+0x1038>
    1b70:	8266                	mv	tp,s9
    1b72:	027c                	addi	a5,sp,268
    1b74:	e6d4                	sd	a3,136(a3)
    1b76:	52dd                	li	t0,-9
    1b78:	5d347033          	0x5d347033
    1b7c:	3a0a8c2b          	custom1	24,21,0,29
    1b80:	4043fd5b          	custom2	s10,t2,tp,32
    1b84:	36bd5793          	0x36bd5793
    1b88:	a131                	j	1f94 <input_data+0xb3c>
    1b8a:	3ab263ab          	custom1	t2,tp,11,29
    1b8e:	413d                	li	sp,15
    1b90:	058545bf 7eb78eb9 	0x7eb78eb9058545bf
    1b98:	7ef8                	ld	a4,248(a3)
    1b9a:	42ad609b          	0x42ad609b
    1b9e:	3698                	fld	fa4,40(a3)
    1ba0:	0a6dc44f          	fnmadd.d	fs0,fs11,ft6,ft1,rmm
    1ba4:	befe                	fsd	ft11,376(sp)
    1ba6:	01a1                	addi	gp,gp,8
    1ba8:	306d                	0x306d
    1baa:	19f1                	addi	s3,s3,-4
    1bac:	4c2e                	lw	s8,200(sp)
    1bae:	14f73deb          	0x14f73deb
    1bb2:	63436d53          	0x63436d53
    1bb6:	1239                	addi	tp,tp,-18
    1bb8:	a26a                	fsd	fs10,256(sp)
    1bba:	13b2                	slli	t2,t2,0x2c
    1bbc:	5d0d                	li	s10,-29
    1bbe:	2b89                	addiw	s7,s7,2
    1bc0:	a80d                	j	1bf2 <input_data+0x79a>
    1bc2:	004b616b          	0x4b616b
    1bc6:	ec893213          	sltiu	tp,s2,-312
    1bca:	2dc4                	fld	fs1,152(a1)
    1bcc:	3ee4                	fld	fs1,248(a3)
    1bce:	fd240687          	0xfd240687
    1bd2:	78dd                	lui	a7,0xffff7
    1bd4:	0f89                	addi	t6,t6,2
    1bd6:	15ee                	slli	a1,a1,0x3b
    1bd8:	f891                	bnez	s1,1aec <input_data+0x694>
    1bda:	03337637          	lui	a2,0x3337
    1bde:	718f4d13          	xori	s10,t5,1816
    1be2:	2a12                	fld	fs4,256(sp)
    1be4:	8514                	0x8514
    1be6:	f67d0d83          	lb	s11,-153(s10) # 14f67 <_gp+0xf30f>
    1bea:	3fa4                	fld	fs1,120(a5)
    1bec:	67a4                	ld	s1,72(a5)
    1bee:	7c24                	ld	s1,120(s0)
    1bf0:	38b93c73          	csrrc	s8,0x38b,s2
    1bf4:	0f8982b7          	lui	t0,0xf898
    1bf8:	c726                	sw	s1,140(sp)
    1bfa:	fc69423b          	0xfc69423b
    1bfe:	d28770bf ea255235 	0xea255235d28770bf
    1c06:	0a7d                	addi	s4,s4,31
    1c08:	278e                	fld	fa5,192(sp)
    1c0a:	2374                	fld	fa3,192(a4)
    1c0c:	0ec2                	slli	t4,t4,0x10
    1c0e:	8b6a6f83          	lwu	t6,-1866(s4)
    1c12:	64ba                	ld	s1,392(sp)
    1c14:	a049                	j	1c96 <input_data+0x83e>
    1c16:	4cf2                	lw	s9,28(sp)
    1c18:	06c9                	addi	a3,a3,18
    1c1a:	0e9a                	slli	t4,t4,0x6
    1c1c:	4d4c799b          	0x4d4c799b
    1c20:	02a0                	addi	s0,sp,328
    1c22:	73bb6bf3          	csrrs	s7,0x73b,22
    1c26:	6fb1                	lui	t6,0xc
    1c28:	1086                	slli	ra,ra,0x21
    1c2a:	7439                	lui	s0,0xfffee
    1c2c:	9e52                	add	t3,t3,s4
    1c2e:	71b6                	ld	gp,360(sp)
    1c30:	23494e2b          	custom1	t3,18,20,17
    1c34:	b850                	fsd	fa2,176(s0)
    1c36:	4e3a                	lw	t3,140(sp)
    1c38:	1641                	addi	a2,a2,-16
    1c3a:	1e62                	slli	t3,t3,0x38
    1c3c:	e796                	sd	t0,456(sp)
    1c3e:	33d8                	fld	fa4,160(a5)
    1c40:	c4c2                	sw	a6,72(sp)
    1c42:	0439                	addi	s0,s0,14
    1c44:	c9c9                	beqz	a1,1cd6 <input_data+0x87e>
    1c46:	1e00                	addi	s0,sp,816
    1c48:	a0ff                	0xa0ff
    1c4a:	6485                	lui	s1,0x1
    1c4c:	5f8b586b          	0x5f8b586b
    1c50:	adb0                	fsd	fa2,88(a1)
    1c52:	486a                	lw	a6,152(sp)
    1c54:	4373c7ab          	custom1	a5,7,23,33
    1c58:	95c4                	0x95c4
    1c5a:	2dc9                	addiw	s11,s11,18
    1c5c:	c94a                	sw	s2,144(sp)
    1c5e:	234c                	fld	fa1,128(a4)
    1c60:	d44c                	sw	a1,44(s0)
    1c62:	66f8                	ld	a4,200(a3)
    1c64:	3893fc2f          	0x3893fc2f
    1c68:	68f47697          	auipc	a3,0x68f47
    1c6c:	9565                	srai	a0,a0,0x39
    1c6e:	1d14                	addi	a3,sp,688
    1c70:	9910                	0x9910
    1c72:	804f603f 6a306076 	0x6a306076804f603f
    1c7a:	9a0723e7          	0x9a0723e7
    1c7e:	78e2                	ld	a7,56(sp)
    1c80:	ba5a                	fsd	fs6,304(sp)
    1c82:	0af2                	slli	s5,s5,0x1c
    1c84:	cf00                	sw	s0,24(a4)
    1c86:	5d0e                	lw	s10,224(sp)
    1c88:	3ac8d43b          	0x3ac8d43b
    1c8c:	8a1a                	mv	s4,t1
    1c8e:	5aec                	lw	a1,116(a3)
    1c90:	3a49aebb          	0x3a49aebb
    1c94:	1980                	addi	s0,sp,240
    1c96:	19c9                	addi	s3,s3,-14
    1c98:	5b13e84b          	fnmsub.d	fa6,ft7,fa7,fa1,unknown
    1c9c:	06f5b7c3          	0x6f5b7c3
    1ca0:	0afe                	slli	s5,s5,0x1f
    1ca2:	3ae0                	fld	fs0,240(a3)
    1ca4:	4ec4                	lw	s1,28(a3)
    1ca6:	612c                	ld	a1,64(a0)
    1ca8:	415f 055e 9628      	0x9628055e415f
    1cae:	06ce                	slli	a3,a3,0x13
    1cb0:	0db8                	addi	a4,sp,728
    1cb2:	206c                	fld	fa1,192(s0)
    1cb4:	e815                	bnez	s0,1ce8 <input_data+0x890>
    1cb6:	280932f7          	0x280932f7
    1cba:	5552306b          	0x5552306b
    1cbe:	0a87054b          	fnmsub.d	fa0,fa4,fs0,ft1,rne
    1cc2:	4124                	lw	s1,64(a0)
    1cc4:	acb4                	fsd	fa3,88(s1)
    1cc6:	1220                	addi	s0,sp,296
    1cc8:	d140                	sw	s0,36(a0)
    1cca:	59b4                	lw	a3,112(a1)
    1ccc:	1a2c                	addi	a1,sp,312
    1cce:	3555                	addiw	a0,a0,-11
    1cd0:	6e3d0eeb          	0x6e3d0eeb
    1cd4:	beb6                	fsd	fa3,376(sp)
    1cd6:	5fd0                	lw	a2,60(a5)
    1cd8:	7fc4                	ld	s1,184(a5)
    1cda:	3d8e                	fld	fs11,224(sp)
    1cdc:	1c2f74ab          	custom1	s1,t5,sp,14
    1ce0:	babe                	fsd	fa5,368(sp)
    1ce2:	5ef8                	lw	a4,124(a3)
    1ce4:	3d4262f7          	0x3d4262f7
    1ce8:	1229                	addi	tp,tp,-22
    1cea:	d6074007          	0xd6074007
    1cee:	e65262c3          	0xe65262c3
    1cf2:	5add                	li	s5,-9
    1cf4:	1621                	addi	a2,a2,-24
    1cf6:	1712                	slli	a4,a4,0x24
    1cf8:	06622783          	lw	a5,102(tp) # fffffffffffef066 <_gp+0xfffffffffffe940e>
    1cfc:	e928                	sd	a0,80(a0)
    1cfe:	3dde                	fld	fs11,496(sp)
    1d00:	5026                	0x5026
    1d02:	a0ea2f97          	auipc	t6,0xa0ea2
    1d06:	a4ac589b          	0xa4ac589b
    1d0a:	6ff6                	ld	t6,344(sp)
    1d0c:	cf1d                	beqz	a4,1d4a <input_data+0x8f2>
    1d0e:	2c445ce7          	0x2c445ce7
    1d12:	792d                	lui	s2,0xfffeb
    1d14:	fd61                	bnez	a0,1cec <input_data+0x894>
    1d16:	163e                	slli	a2,a2,0x2f
    1d18:	0434                	addi	a3,sp,520
    1d1a:	7f24                	ld	s1,120(a4)
    1d1c:	61c6                	ld	gp,80(sp)
    1d1e:	0f3a17d7          	0xf3a17d7
    1d22:	4382                	lw	t2,0(sp)
    1d24:	ff5d                	bnez	a4,1ce2 <input_data+0x88a>
    1d26:	7524                	ld	s1,104(a0)
    1d28:	5c7c7ae7          	0x5c7c7ae7
    1d2c:	be92                	fsd	ft4,376(sp)
    1d2e:	0035                	0x35
    1d30:	37c94eb3          	0x37c94eb3
    1d34:	d215                	beqz	a2,1c58 <input_data+0x800>
    1d36:	7b68                	ld	a0,240(a4)
    1d38:	9af5                	andi	a3,a3,-3
    1d3a:	1dd8                	addi	a4,sp,756
    1d3c:	7b61                	lui	s6,0xffff8
    1d3e:	1fc6                	slli	t6,t6,0x31
    1d40:	91b1                	srli	a1,a1,0x2c
    1d42:	3fb4                	fld	fa3,120(a5)
    1d44:	7cce                	ld	s9,240(sp)
    1d46:	3b8a                	fld	fs7,160(sp)
    1d48:	5969bfbf 2e70078a 	0x2e70078a5969bfbf
    1d50:	ea69                	bnez	a2,1e22 <input_data+0x9ca>
    1d52:	c0af03f7          	0xc0af03f7
    1d56:	42df 2c45 2cab      	0x2cab2c4542df
    1d5c:	daf9                	beqz	a3,1d32 <input_data+0x8da>
    1d5e:	1df0                	addi	a2,sp,764
    1d60:	201f73bb          	0x201f73bb
    1d64:	c1b1                	beqz	a1,1da8 <input_data+0x950>
    1d66:	66270f7b          	custom3	30,14,2,51
    1d6a:	2ce6                	fld	fs9,88(sp)
    1d6c:	3571                	addiw	a0,a0,-4
    1d6e:	053d                	addi	a0,a0,15
    1d70:	0c4c                	addi	a1,sp,532
    1d72:	0cb12027          	fsw	fa1,192(sp)
    1d76:	f75463db          	custom2	t2,s0,21,123
    1d7a:	497d                	li	s2,31
    1d7c:	4ff0                	lw	a2,92(a5)
    1d7e:	190a                	slli	s2,s2,0x22
    1d80:	6941                	lui	s2,0x10
    1d82:	6474                	ld	a3,200(s0)
    1d84:	14a8aca7          	fsw	fa0,345(a7) # ffffffffffff7159 <_gp+0xffffffffffff1501>
    1d88:	5ffa6057          	0x5ffa6057
    1d8c:	0230                	addi	a2,sp,264
    1d8e:	5f38                	lw	a4,120(a4)
    1d90:	405d5a9b          	sraiw	s5,s10,0x5
    1d94:	20f1                	addiw	ra,ra,28
    1d96:	384a                	fld	fa6,176(sp)
    1d98:	a53a                	fsd	fa4,136(sp)
    1d9a:	fe496987          	0xfe496987
    1d9e:	bb2a2d97          	auipc	s11,0xbb2a2
    1da2:	26c969e7          	0x26c969e7
    1da6:	7f1633ab          	custom1	7,a2,a7,63
    1daa:	15ce                	slli	a1,a1,0x33
    1dac:	e474                	sd	a3,200(s0)
    1dae:	1221                	addi	tp,tp,-24
    1db0:	2630                	fld	fa2,72(a2)
    1db2:	148e                	slli	s1,s1,0x23
    1db4:	67d5                	lui	a5,0x15
    1db6:	511f dc38 567a      	0x567adc38511f
    1dbc:	90ea                	add	ra,ra,s10
    1dbe:	2515                	addiw	a0,a0,5
    1dc0:	042c2c93          	slti	s9,s8,66
    1dc4:	3fdd                	addiw	t6,t6,-9
    1dc6:	f8f2643f 25ea19f1 	0x25ea19f1f8f2643f
    1dce:	2901                	sext.w	s2,s2
    1dd0:	63be                	ld	t2,456(sp)
    1dd2:	1266                	slli	tp,tp,0x39
    1dd4:	eb98                	sd	a4,16(a5)
    1dd6:	5185                	li	gp,-31
    1dd8:	6d54fafb          	custom3	s5,s1,s5,54
    1ddc:	73da                	ld	t2,432(sp)
    1dde:	0f36                	slli	t5,t5,0xd
    1de0:	4814                	lw	a3,16(s0)
    1de2:	0b8e                	slli	s7,s7,0x3
    1de4:	929f 6d4a 9983      	0x99836d4a929f
    1dea:	3291                	addiw	t0,t0,-28
    1dec:	8185                	srli	a1,a1,0x1
    1dee:	8d110913          	addi	s2,sp,-1839
    1df2:	be830dc7          	0xbe830dc7
    1df6:	6892                	ld	a7,256(sp)
    1df8:	6d90fbd7          	0x6d90fbd7
    1dfc:	31bc1683          	lh	a3,795(s8) # fffffffffffff31b <_gp+0xffffffffffff96c3>
    1e00:	1500                	addi	s0,sp,672
    1e02:	0db4                	addi	a3,sp,728
    1e04:	f0f9                	bnez	s1,1dca <input_data+0x972>
    1e06:	98ae7a53          	0x98ae7a53
    1e0a:	142d                	addi	s0,s0,-21
    1e0c:	49b6                	lw	s3,76(sp)
    1e0e:	049e                	slli	s1,s1,0x7
    1e10:	00c56a53          	fadd.s	fs4,fa0,fa2,unknown
    1e14:	2b34                	fld	fa3,80(a4)
    1e16:	800e0223          	sb	zero,-2044(t3) # fffffffffffef804 <_gp+0xfffffffffffe9bac>
    1e1a:	35f0621b          	0x35f0621b
    1e1e:	597a                	lw	s2,188(sp)
    1e20:	34a2                	fld	fs1,40(sp)
    1e22:	1a26                	slli	s4,s4,0x29
    1e24:	592c584b          	fnmsub.s	fa6,fs8,fs2,fa1,unknown
    1e28:	19de                	slli	s3,s3,0x37
    1e2a:	16b218fb          	0x16b218fb
    1e2e:	56c5                	li	a3,-15
    1e30:	c342                	sw	a6,132(sp)
    1e32:	acda499b          	0xacda499b
    1e36:	4cb8                	lw	a4,88(s1)
    1e38:	0309                	addi	t1,t1,2
    1e3a:	1c05                	addi	s8,s8,-31
    1e3c:	71422f0f          	0x71422f0f
    1e40:	6781                	lui	a5,0x0
    1e42:	2da44367          	0x2da44367
    1e46:	69aa                	ld	s3,136(sp)
    1e48:	16be534b          	0x16be534b
    1e4c:	5faffcaf          	0x5faffcaf
    1e50:	f87d                	bnez	s0,1e46 <input_data+0x9ee>
    1e52:	1eb0                	addi	a2,sp,888
    1e54:	af76                	fsd	ft9,408(sp)
    1e56:	359a3b43          	0x359a3b43
    1e5a:	58f0598f          	0x58f0598f
    1e5e:	418e                	lw	gp,192(sp)
    1e60:	7a9e                	ld	s5,480(sp)
    1e62:	60ff                	0x60ff
    1e64:	4477c207          	0x4477c207
    1e68:	5d34                	lw	a3,120(a0)
    1e6a:	5a8a                	lw	s5,160(sp)
    1e6c:	386a4a27          	0x386a4a27
    1e70:	065a84b7          	lui	s1,0x65a8
    1e74:	181a                	slli	a6,a6,0x26
    1e76:	36ee                	fld	fa3,248(sp)
    1e78:	8142                	mv	sp,a6
    1e7a:	0ad2                	slli	s5,s5,0x14
    1e7c:	6704                	ld	s1,8(a4)
    1e7e:	5de6                	lw	s11,120(sp)
    1e80:	667e9cb3          	0x667e9cb3
    1e84:	5d161ea7          	0x5d161ea7
    1e88:	a925                	j	22c0 <input_data+0xe68>
    1e8a:	ce147273          	csrrc	tp,0xce1,8
    1e8e:	5a02                	lw	s4,32(sp)
    1e90:	65ff                	0x65ff
    1e92:	41b8                	lw	a4,64(a1)
    1e94:	952d                	srai	a0,a0,0x2b
    1e96:	4616                	lw	a2,68(sp)
    1e98:	b366                	fsd	fs9,416(sp)
    1e9a:	2fd8                	fld	fa4,152(a5)
    1e9c:	d360                	sw	s0,100(a4)
    1e9e:	0b15                	addi	s6,s6,5
    1ea0:	1b75                	addi	s6,s6,-3
    1ea2:	3f1e                	fld	ft10,480(sp)
    1ea4:	192a                	slli	s2,s2,0x2a
    1ea6:	6655                	lui	a2,0x15
    1ea8:	2134                	fld	fa3,64(a0)
    1eaa:	01e2                	slli	gp,gp,0x18
    1eac:	a632                	fsd	fa2,264(sp)
    1eae:	1b96                	slli	s7,s7,0x25
    1eb0:	6eff                	0x6eff
    1eb2:	4f9c                	lw	a5,24(a5)
    1eb4:	b6a6                	fsd	fs1,360(sp)
    1eb6:	02cd                	addi	t0,t0,19
    1eb8:	d099                	beqz	s1,1dbe <input_data+0x966>
    1eba:	0aa9                	addi	s5,s5,10
    1ebc:	50f6                	lw	ra,124(sp)
    1ebe:	536d                	li	t1,-5
    1ec0:	88d1                	andi	s1,s1,20
    1ec2:	afe90d43          	0xafe90d43
    1ec6:	07a1                	addi	a5,a5,8
    1ec8:	ef3e                	sd	a5,408(sp)
    1eca:	953f65cf          	0x953f65cf
    1ece:	803b370f          	0x803b370f
    1ed2:	7612                	ld	a2,288(sp)
    1ed4:	ce4c                	sw	a1,28(a2)
    1ed6:	5445                	li	s0,-15
    1ed8:	52680fd7          	0x52680fd7
    1edc:	45e2                	lw	a1,24(sp)
    1ede:	0c68                	addi	a0,sp,540
    1ee0:	482e                	lw	a6,200(sp)
    1ee2:	ae2c70cb          	0xae2c70cb
    1ee6:	ec2c7cab          	custom1	s9,s8,sp,118
    1eea:	6ae1                	lui	s5,0x18
    1eec:	e13c                	sd	a5,64(a0)
    1eee:	547e                	lw	s0,252(sp)
    1ef0:	a950                	fsd	fa2,144(a0)
    1ef2:	1ebe                	slli	t4,t4,0x2f
    1ef4:	7bc697fb          	0x7bc697fb
    1ef8:	fdc5                	bnez	a1,1eb0 <input_data+0xa58>
    1efa:	4d993b37          	lui	s6,0x4d993
    1efe:	83b2432f          	0x83b2432f
    1f02:	0e9f 9873 0803      	0x80398730e9f
    1f08:	b732                	fsd	fa2,424(sp)
    1f0a:	47e6                	lw	a5,88(sp)
    1f0c:	b9ad                	j	1b86 <input_data+0x72e>
    1f0e:	501d                	0x501d
    1f10:	3234                	fld	fa3,96(a2)
    1f12:	43e6                	lw	t2,88(sp)
    1f14:	a9e2                	fsd	fs8,208(sp)
    1f16:	26d5                	addiw	a3,a3,21
    1f18:	c7f5                	beqz	a5,2004 <input_data+0xbac>
    1f1a:	0151                	addi	sp,sp,20
    1f1c:	c33a                	sw	a4,132(sp)
    1f1e:	5b90                	lw	a2,48(a5)
    1f20:	8976                	mv	s2,t4
    1f22:	7fc0                	ld	s0,184(a5)
    1f24:	e0a8                	sd	a0,64(s1)
    1f26:	3471                	addiw	s0,s0,-4
    1f28:	73e9750b          	custom0	a0,s2,t5,57
    1f2c:	25d6                	fld	fa1,336(sp)
    1f2e:	071c                	addi	a5,sp,896
    1f30:	8c7a                	mv	s8,t5
    1f32:	3198                	fld	fa4,32(a1)
    1f34:	acbd                	j	21b2 <input_data+0xd5a>
    1f36:	5d64                	lw	s1,124(a0)
    1f38:	b01d                	j	175e <input_data+0x306>
    1f3a:	3438                	fld	fa4,104(s0)
    1f3c:	53c2                	lw	t2,48(sp)
    1f3e:	2728                	fld	fa0,72(a4)
    1f40:	90d4                	0x90d4
    1f42:	626c0d83          	lb	s11,1574(s8)
    1f46:	37e8                	fld	fa0,232(a5)
    1f48:	3740                	fld	fs0,168(a4)
    1f4a:	47a5                	li	a5,9
    1f4c:	73877afb          	custom3	s5,a4,s8,57
    1f50:	2c8c                	fld	fa1,24(s1)
    1f52:	780d                	lui	a6,0xfffe3
    1f54:	5c1f 4bf6 a764      	0xa7644bf65c1f
    1f5a:	41b5                	li	gp,13
    1f5c:	9850                	0x9850
    1f5e:	588e                	lw	a7,224(sp)
    1f60:	e798                	sd	a4,8(a5)
    1f62:	346c                	fld	fa1,232(s0)
    1f64:	660f2753          	0x660f2753
    1f68:	0b60                	addi	s0,sp,412
    1f6a:	26c6                	fld	fa3,80(sp)
    1f6c:	5aa8                	lw	a0,112(a3)
    1f6e:	3fb1                	addiw	t6,t6,-20
    1f70:	4af1                	li	s5,28
    1f72:	4eab19eb          	0x4eab19eb
    1f76:	119716cb          	fnmsub.s	fa3,fa4,fs9,ft2,rtz
    1f7a:	36d2                	fld	fa3,304(sp)
    1f7c:	b865                	j	1834 <input_data+0x3dc>
    1f7e:	7889                	lui	a7,0xfffe2
    1f80:	4eaa874f          	0x4eaa874f
    1f84:	731f 7f8d b247      	0xb2477f8d731f
    1f8a:	2e04                	fld	fs1,24(a2)
    1f8c:	38e6                	fld	fa7,120(sp)
    1f8e:	3da0                	fld	fs0,120(a1)
    1f90:	8d86                	mv	s11,ra
    1f92:	42d0                	lw	a2,4(a3)
    1f94:	8655                	srai	a2,a2,0x15
    1f96:	b06e1447          	fmsub.s	fs0,ft8,ft6,fs6,rtz
    1f9a:	142657af          	0x142657af
    1f9e:	6958                	ld	a4,144(a0)
    1fa0:	127d                	addi	tp,tp,-1
    1fa2:	02d4                	addi	a3,sp,324
    1fa4:	1808                	addi	a0,sp,48
    1fa6:	4e50                	lw	a2,28(a2)
    1fa8:	ff59                	bnez	a4,1f46 <input_data+0xaee>
    1faa:	17c9                	addi	a5,a5,-14
    1fac:	6a81                	lui	s5,0x0
    1fae:	5732                	lw	a4,44(sp)
    1fb0:	280b98c7          	fmsub.s	fa7,fs7,ft0,ft5,rtz
    1fb4:	c8a5                	beqz	s1,2024 <input_data+0xbcc>
    1fb6:	01e1                	addi	gp,gp,24
    1fb8:	b6ca                	fsd	fs2,360(sp)
    1fba:	0dba                	slli	s11,s11,0xe
    1fbc:	f698                	sd	a4,40(a3)
    1fbe:	0e4d                	addi	t3,t3,19
    1fc0:	39df 2335 12f4      	0x12f4233539df
    1fc6:	662e                	ld	a2,200(sp)
    1fc8:	dfc5                	beqz	a5,1f80 <input_data+0xb28>
    1fca:	31a6                	fld	ft3,104(sp)
    1fcc:	bb4a                	fsd	fs2,432(sp)
    1fce:	17bc                	addi	a5,sp,1000
    1fd0:	8905                	andi	a0,a0,1
    1fd2:	1f1f bef4 000d      	0xdbef41f1f
    1fd8:	3e5303f7          	0x3e5303f7
    1fdc:	4fe1                	li	t6,24
    1fde:	5c1f 89af 0d87      	0xd8789af5c1f
    1fe4:	6fc0                	ld	s0,152(a5)
    1fe6:	0c6c                	addi	a1,sp,540
    1fe8:	09c4                	addi	s1,sp,212
    1fea:	598e                	lw	s3,224(sp)
    1fec:	8c4e                	mv	s8,s3
    1fee:	600d                	0x600d
    1ff0:	53ad                	li	t2,-21
    1ff2:	7345                	lui	t1,0xffff1
    1ff4:	5eb1deab          	0x5eb1deab
    1ff8:	62a986eb          	0x62a986eb
    1ffc:	778c                	ld	a1,40(a5)
    1ffe:	684e                	ld	a6,208(sp)
    2000:	9ede                	add	t4,t4,s7
    2002:	52a0                	lw	s0,96(a3)
    2004:	7574                	ld	a3,232(a0)
    2006:	37c2                	fld	fa5,48(sp)
    2008:	53d9                	li	t2,-10
    200a:	0a5c                	addi	a5,sp,276
    200c:	7a22                	ld	s4,40(sp)
    200e:	29dd                	addiw	s3,s3,23
    2010:	108a                	slli	ra,ra,0x22
    2012:	14c0                	addi	s0,sp,612
    2014:	04da198b          	0x4da198b
    2018:	342ec987          	0x342ec987
    201c:	f6c6                	sd	a7,360(sp)
    201e:	0458                	addi	a4,sp,516
    2020:	c459                	beqz	s0,20ae <input_data+0xc56>
    2022:	7939                	lui	s2,0xfffee
    2024:	1a90                	addi	a2,sp,368
    2026:	4d9f b410 03dc      	0x3dcb4104d9f
    202c:	8b1a                	mv	s6,t1
    202e:	77d6                	ld	a5,368(sp)
    2030:	2af9                	addiw	s5,s5,30
    2032:	6279                	lui	tp,0x1e
    2034:	55e0                	lw	s0,108(a1)
    2036:	0378                	addi	a4,sp,396
    2038:	a3d2                	fsd	fs4,448(sp)
    203a:	5a9a6f8f          	0x5a9a6f8f
    203e:	f8480b5b          	custom2	22,16,4,124
    2042:	0e95                	addi	t4,t4,5
    2044:	c145                	beqz	a0,20e4 <input_data+0xc8c>
    2046:	3890                	fld	fa2,48(s1)
    2048:	e741                	bnez	a4,20d0 <input_data+0xc78>
    204a:	1314                	addi	a3,sp,416
    204c:	e58d                	bnez	a1,2076 <input_data+0xc1e>
    204e:	2b7a                	fld	fs6,408(sp)
    2050:	7b38                	ld	a4,112(a4)
    2052:	07f9                	addi	a5,a5,30
    2054:	aecc                	fsd	fa1,152(a3)
    2056:	17442c23          	sw	s4,376(s0) # fffffffffffee178 <_gp+0xfffffffffffe8520>
    205a:	12dd                	addi	t0,t0,-9
    205c:	0e38                	addi	a4,sp,792
    205e:	4705                	li	a4,1
    2060:	6b6b5947          	fmsub.d	fs2,fs6,fs6,fa3,unknown
    2064:	3bb4                	fld	fa3,112(a5)
    2066:	2ed0                	fld	fa2,152(a3)
    2068:	6c47c04b          	0x6c47c04b
    206c:	0e12                	slli	t3,t3,0x4
    206e:	7a54                	ld	a3,176(a2)
    2070:	3774479b          	0x3774479b
    2074:	7c82                	ld	s9,32(sp)
    2076:	51f651e7          	0x51f651e7
    207a:	121c                	addi	a5,sp,288
    207c:	3d32                	fld	fs10,296(sp)
    207e:	32d5                	addiw	t0,t0,-11
    2080:	fbb4                	sd	a3,112(a5)
    2082:	1b14                	addi	a3,sp,432
    2084:	1831                	addi	a6,a6,-20
    2086:	7f10                	ld	a2,56(a4)
    2088:	1f5a                	slli	t5,t5,0x36
    208a:	68ba                	ld	a7,392(sp)
    208c:	adc6                	fsd	fa7,216(sp)
    208e:	2dd11ff3          	csrrw	t6,0x2dd,sp
    2092:	6939                	lui	s2,0xe
    2094:	2488                	fld	fa0,8(s1)
    2096:	d9f32b53          	0xd9f32b53
    209a:	bdbc481b          	0xbdbc481b
    209e:	6ab9                	lui	s5,0xe
    20a0:	26e2                	fld	fa3,24(sp)
    20a2:	2eb2                	fld	ft9,264(sp)
    20a4:	7cd13583          	ld	a1,1997(sp)
    20a8:	9124                	0x9124
    20aa:	e0844ee7          	0xe0844ee7
    20ae:	326e                	fld	ft4,248(sp)
    20b0:	f425                	bnez	s0,2018 <input_data+0xbc0>
    20b2:	3f81                	addiw	t6,t6,-32
    20b4:	221bb1f3          	csrrc	gp,0x221,s7
    20b8:	680ae06b          	0x680ae06b
    20bc:	02ec                	addi	a1,sp,332
    20be:	3c49                	addiw	s8,s8,-14
    20c0:	fa5f 7577 9f22      	0x9f227577fa5f
    20c6:	2c9d                	addiw	s9,s9,7
    20c8:	14739627          	0x14739627
    20cc:	0b2a                	slli	s6,s6,0xa
    20ce:	2b1d                	addiw	s6,s6,7
    20d0:	42b9                	li	t0,14
    20d2:	3731                	addiw	a4,a4,-20
    20d4:	35ae                	fld	fa1,232(sp)
    20d6:	35c0                	fld	fs0,168(a1)
    20d8:	bcfc                	fsd	fa5,248(s1)
    20da:	16f966ef          	jal	a3,98a48 <_gp+0x92df0>
    20de:	1ff0                	addi	a2,sp,1020
    20e0:	7b35                	lui	s6,0xfffed
    20e2:	171a                	slli	a4,a4,0x26
    20e4:	1baab177          	0x1baab177
    20e8:	91ea                	add	gp,gp,s10
    20ea:	45c4                	lw	s1,12(a1)
    20ec:	39da                	fld	fs3,432(sp)
    20ee:	44cb4583          	lbu	a1,1100(s6) # fffffffffffed44c <_gp+0xfffffffffffe77f4>
    20f2:	eeb26bb7          	lui	s7,0xeeb26
    20f6:	73c1                	lui	t2,0xffff0
    20f8:	3aba90eb          	0x3aba90eb
    20fc:	518d9d7b          	0x518d9d7b
    2100:	0924                	addi	s1,sp,152
    2102:	64d2                	ld	s1,272(sp)
    2104:	861e                	mv	a2,t2
    2106:	62415d83          	lhu	s11,1572(sp)
    210a:	6fd5                	lui	t6,0x15
    210c:	0635                	addi	a2,a2,13
    210e:	4a75                	li	s4,29
    2110:	31f2                	fld	ft3,312(sp)
    2112:	65f1                	lui	a1,0x1c
    2114:	69213a4f          	fnmadd.s	fs4,ft2,fs2,fa3,rup
    2118:	1266                	slli	tp,tp,0x39
    211a:	6751                	lui	a4,0x14
    211c:	ddb0                	sw	a2,120(a1)
    211e:	5612                	lw	a2,36(sp)
    2120:	3bea                	fld	fs7,184(sp)
    2122:	6122                	ld	sp,8(sp)
    2124:	a826                	fsd	fs1,16(sp)
    2126:	7d7c                	ld	a5,248(a0)
    2128:	0d6a9e8b          	0xd6a9e8b
    212c:	05a2                	slli	a1,a1,0x8
    212e:	3594                	fld	fa3,40(a1)
    2130:	bf5f 3378 4c62      	0x4c623378bf5f
    2136:	55f0                	lw	a2,108(a1)
    2138:	7fc9                	lui	t6,0xffff2
    213a:	2090                	fld	fa2,0(s1)
    213c:	d4b4                	sw	a3,104(s1)
    213e:	287c75e3          	bleu	t2,s8,2bc8 <input_data+0x1770>
    2142:	104f7e27          	0x104f7e27
    2146:	48d2                	lw	a7,20(sp)
    2148:	7eec                	ld	a1,248(a3)
    214a:	1178                	addi	a4,sp,172
    214c:	bf85                	j	20bc <input_data+0xc64>
    214e:	5f76                	lw	t5,124(sp)
    2150:	791e                	ld	s2,480(sp)
    2152:	5d78                	lw	a4,124(a0)
    2154:	af9c                	fsd	fa5,24(a5)
    2156:	54ec                	lw	a1,108(s1)
    2158:	bad6                	fsd	fs5,368(sp)
    215a:	4ae2                	lw	s5,24(sp)
    215c:	4fc8                	lw	a0,28(a5)
    215e:	0e4c11cf          	0xe4c11cf
    2162:	65ce                	ld	a1,208(sp)
    2164:	3170694b          	fnmsub.s	fs2,ft0,fs7,ft6,unknown
    2168:	6b95                	lui	s7,0x5
    216a:	3526                	fld	fa0,104(sp)
    216c:	76e02b87          	flw	fs7,1902(zero)
    2170:	0354                	addi	a3,sp,388
    2172:	43ba                	lw	t2,140(sp)
    2174:	8dc1                	or	a1,a1,s0
    2176:	1630                	addi	a2,sp,808
    2178:	8bfd                	andi	a5,a5,31
    217a:	0e8b5aa3          	0xe8b5aa3
    217e:	3a98                	fld	fa4,48(a3)
    2180:	46fe6c83          	lwu	s9,1135(t3)
    2184:	9bfd                	andi	a5,a5,-1
    2186:	288a                	fld	fa7,128(sp)
    2188:	3401                	addiw	s0,s0,-32
    218a:	307d                	0x307d
    218c:	b7d5                	j	2170 <input_data+0xd18>
    218e:	1790                	addi	a2,sp,992
    2190:	4380                	lw	s0,0(a5)
    2192:	bfe56243          	0xbfe56243
    2196:	3d2c                	fld	fa1,120(a0)
    2198:	0d94                	addi	a3,sp,720
    219a:	ed447d33          	0xed447d33
    219e:	7f461927          	0x7f461927
    21a2:	1e58                	addi	a4,sp,820
    21a4:	a3bc                	fsd	fa5,64(a5)
    21a6:	333c                	fld	fa5,96(a4)
    21a8:	ee36                	sd	a3,280(sp)
    21aa:	796c                	ld	a1,240(a0)
    21ac:	d758                	sw	a4,44(a4)
    21ae:	3559                	addiw	a0,a0,-10
    21b0:	71bc                	ld	a5,96(a1)
    21b2:	a6b01d77          	0xa6b01d77
    21b6:	673c                	ld	a5,72(a4)
    21b8:	3f1e                	fld	ft10,480(sp)
    21ba:	1532                	slli	a0,a0,0x2c
    21bc:	1715                	addi	a4,a4,-27
    21be:	7fa6                	ld	t6,104(sp)
    21c0:	24f2                	fld	fs1,280(sp)
    21c2:	40ce                	lw	ra,208(sp)
    21c4:	aa91                	j	2318 <input_data+0xec0>
    21c6:	229c                	fld	fa5,0(a3)
    21c8:	0d777e03          	0xd777e03
    21cc:	1801                	addi	a6,a6,-32
    21ce:	5e3d                	li	t3,-17
    21d0:	11fa                	slli	gp,gp,0x3e
    21d2:	5a51                	li	s4,-12
    21d4:	5944ca9b          	0x5944ca9b
    21d8:	c086                	sw	ra,64(sp)
    21da:	6606                	ld	a2,64(sp)
    21dc:	4048                	lw	a0,4(s0)
    21de:	69c9                	lui	s3,0x12
    21e0:	2b61                	addiw	s6,s6,24
    21e2:	6d7411fb          	0x6d7411fb
    21e6:	c43f43bb          	0xc43f43bb
    21ea:	26ec                	fld	fa1,200(a3)
    21ec:	c100                	sw	s0,0(a0)
    21ee:	067f                	0x67f
    21f0:	d548                	sw	a0,44(a0)
    21f2:	65e9                	lui	a1,0x1a
    21f4:	4431                	li	s0,12
    21f6:	4fed                	li	t6,27
    21f8:	b562                	fsd	fs8,168(sp)
    21fa:	5162                	lw	sp,56(sp)
    21fc:	e886                	sd	ra,80(sp)
    21fe:	44de                	lw	s1,212(sp)
    2200:	0524                	addi	s1,sp,648
    2202:	47c2                	lw	a5,16(sp)
    2204:	e892                	sd	tp,80(sp)
    2206:	0b34                	addi	a3,sp,408
    2208:	760e                	ld	a2,224(sp)
    220a:	0f45                	addi	t5,t5,17
    220c:	25bbf907          	0x25bbf907
    2210:	0125630f          	0x125630f
    2214:	ec4e                	sd	s3,24(sp)
    2216:	6f28                	ld	a0,88(a4)
    2218:	d032                	sw	a2,32(sp)
    221a:	442d                	li	s0,11
    221c:	0e20a51b          	0xe20a51b
    2220:	e6c8                	sd	a0,136(a3)
    2222:	6851                	lui	a6,0x14
    2224:	4b8a                	lw	s7,128(sp)
    2226:	3312                	fld	ft6,288(sp)
    2228:	9c1c                	0x9c1c
    222a:	04c9                	addi	s1,s1,18
    222c:	6418748b          	custom0	s1,a6,ra,50
    2230:	0a4e                	slli	s4,s4,0x13
    2232:	4af4                	lw	a3,84(a3)
    2234:	52da5463          	ble	a3,s4,275c <input_data+0x1304>
    2238:	859f 5ecc 7333      	0x73335ecc859f
    223e:	3010                	fld	fa2,32(s0)
    2240:	4c14                	lw	a3,24(s0)
    2242:	35aa4f5b          	custom2	t5,20,26,26
    2246:	78de                	ld	a7,496(sp)
    2248:	b9e0                	fsd	fs0,240(a1)
    224a:	ac02624f          	0xac02624f
    224e:	5ae172ef          	jal	t0,197fc <_gp+0x13ba4>
    2252:	3d42                	fld	fs10,48(sp)
    2254:	4b8786af          	0x4b8786af
    2258:	076267bf 05b51220 	0x5b51220076267bf
    2260:	e546                	sd	a7,136(sp)
    2262:	3a367ad7          	0x3a367ad7
    2266:	24ec                	fld	fa1,200(s1)
    2268:	9cdc                	0x9cdc
    226a:	6481                	lui	s1,0x0
    226c:	9a26                	add	s4,s4,s1
    226e:	a6bd6c4f          	0xa6bd6c4f
    2272:	7e4a                	ld	t3,176(sp)
    2274:	5f2d8e87          	0x5f2d8e87
    2278:	a94d                	j	272a <input_data+0x12d2>
    227a:	6b4c                	ld	a1,144(a4)
    227c:	6591                	lui	a1,0x4
    227e:	ec5c0caf          	0xec5c0caf
    2282:	276a                	fld	fa4,152(sp)
    2284:	aca1                	j	24dc <input_data+0x1084>
    2286:	42f4                	lw	a3,68(a3)
    2288:	08b3d3db          	0x8b3d3db
    228c:	0231                	addi	tp,tp,12
    228e:	6b3238db          	custom2	17,tp,s3,53
    2292:	699d                	lui	s3,0x7
    2294:	c88e                	sw	gp,80(sp)
    2296:	3764                	fld	fs1,232(a4)
    2298:	c8f2                	sw	t3,80(sp)
    229a:	7fb1                	lui	t6,0xfffec
    229c:	1541dfdb          	0x1541dfdb
    22a0:	e246                	sd	a7,256(sp)
    22a2:	5ffe                	lw	t6,252(sp)
    22a4:	b4d1                	j	1d68 <input_data+0x910>
    22a6:	7745                	lui	a4,0xffff1
    22a8:	15fcce2f          	0x15fcce2f
    22ac:	3e1f 03b5 a229      	0xa22903b53e1f
    22b2:	69d5                	lui	s3,0x15
    22b4:	fafd                	bnez	a3,22aa <input_data+0xe52>
    22b6:	3b26                	fld	fs6,104(sp)
    22b8:	6481                	lui	s1,0x0
    22ba:	f4324fa3          	0xf4324fa3
    22be:	2982                	fld	fs3,0(sp)
    22c0:	b436                	fsd	fa3,40(sp)
    22c2:	13e5                	addi	t2,t2,-7
    22c4:	ab60                	fsd	fs0,208(a4)
    22c6:	22ea                	fld	ft5,152(sp)
    22c8:	a2f9                	j	2496 <input_data+0x103e>
    22ca:	69d8                	ld	a4,144(a1)
    22cc:	94ee                	add	s1,s1,s11
    22ce:	3041                	0x3041
    22d0:	058dfb67          	0x58dfb67
    22d4:	35dc                	fld	fa5,168(a1)
    22d6:	2ba8                	fld	fa0,80(a5)
    22d8:	3434                	fld	fa3,104(s0)
    22da:	90f058ef          	jal	a7,fffffffffff07be8 <_gp+0xfffffffffff01f90>
    22de:	48d27313          	andi	t1,tp,1165
    22e2:	0a60                	addi	s0,sp,284
    22e4:	bdd6                	fsd	fs5,248(sp)
    22e6:	144a                	slli	s0,s0,0x32
    22e8:	8062                	0x8062
    22ea:	1e46                	slli	t3,t3,0x31
    22ec:	18e0                	addi	s0,sp,124
    22ee:	159f fdc5 5fcb      	0x5fcbfdc5159f
    22f4:	7b46                	ld	s6,112(sp)
    22f6:	2df238d3          	0x2df238d3
    22fa:	5f5c                	lw	a5,60(a4)
    22fc:	a1ce                	fsd	fs3,192(sp)
    22fe:	18d2                	slli	a7,a7,0x34
    2300:	757d                	lui	a0,0xfffff
    2302:	2212                	fld	ft4,256(sp)
    2304:	50dfdaef          	jal	s5,100010 <_gp+0xfa3b8>
    2308:	c2dc                	sw	a5,4(a3)
    230a:	0fec                	addi	a1,sp,988
    230c:	0db6                	slli	s11,s11,0xd
    230e:	77ea                	ld	a5,184(sp)
    2310:	107f                	0x107f
    2312:	5db6                	lw	s11,108(sp)
    2314:	2fa9                	addiw	t6,t6,10
    2316:	231c                	fld	fa5,0(a4)
    2318:	d08a                	sw	sp,96(sp)
    231a:	78b0                	ld	a2,112(s1)
    231c:	9a25                	andi	a2,a2,-23
    231e:	6426                	ld	s0,72(sp)
    2320:	5b94                	lw	a3,48(a5)
    2322:	3688                	fld	fa0,40(a3)
    2324:	e6da                	sd	s6,328(sp)
    2326:	17c6                	slli	a5,a5,0x31
    2328:	b464                	fsd	fs1,232(s0)
    232a:	2f70                	fld	fa2,216(a4)
    232c:	d6f6                	sw	t4,108(sp)
    232e:	6c644f6b          	0x6c644f6b
    2332:	2909                	addiw	s2,s2,2
    2334:	25755203          	lhu	tp,599(a0) # fffffffffffff257 <_gp+0xffffffffffff95ff>
    2338:	227f96f7          	0x227f96f7
    233c:	0736                	slli	a4,a4,0xd
    233e:	7796                	ld	a5,352(sp)
    2340:	2dac                	fld	fa1,88(a1)
    2342:	4592                	lw	a1,4(sp)
    2344:	140a3777          	0x140a3777
    2348:	f3c1                	bnez	a5,22c8 <input_data+0xe70>
    234a:	61ce                	ld	gp,208(sp)
    234c:	6e26                	ld	t3,72(sp)
    234e:	6a02                	ld	s4,0(sp)
    2350:	f51e                	sd	t2,168(sp)
    2352:	6064                	ld	s1,192(s0)
    2354:	7c26                	ld	s8,104(sp)
    2356:	0b5f 939b 7556      	0x7556939b0b5f
    235c:	2a5f 7e88 5cd7      	0x5cd77e882a5f
    2362:	589601db          	custom2	3,12,9,44
    2366:	83c450a7          	0x83c450a7
    236a:	0021                	0x21
    236c:	5328610f          	0x5328610f
    2370:	fa75                	bnez	a2,2364 <input_data+0xf0c>
    2372:	741d                	lui	s0,0xfffe7
    2374:	aaf4                	fsd	fa3,208(a3)
    2376:	041e                	slli	s0,s0,0x7
    2378:	3385                	addiw	t2,t2,-31
    237a:	9b627f8f          	0x9b627f8f
    237e:	0026                	0x26
    2380:	2ddd                	addiw	s11,s11,23
    2382:	67c2                	ld	a5,16(sp)
    2384:	183e                	slli	a6,a6,0x2f
    2386:	5f71                	li	t5,-4
    2388:	8286                	mv	t0,ra
    238a:	47e0                	lw	s0,76(a5)
    238c:	57fc                	lw	a5,108(a5)
    238e:	3326                	fld	ft6,104(sp)
    2390:	e188                	sd	a0,0(a1)
    2392:	cea26ff3          	csrrs	t6,0xcea,4
    2396:	7548                	ld	a0,168(a0)
    2398:	29ad                	addiw	s3,s3,11
    239a:	f2a17c9b          	0xf2a17c9b
    239e:	6578                	ld	a4,200(a0)
    23a0:	b685                	j	1f00 <input_data+0xaa8>
    23a2:	2514                	fld	fa3,8(a0)
    23a4:	dae5                	beqz	a3,2394 <input_data+0xf3c>
    23a6:	470e                	lw	a4,192(sp)
    23a8:	88ae                	mv	a7,a1
    23aa:	414a                	lw	sp,144(sp)
    23ac:	7e1723f7          	0x7e1723f7
    23b0:	4797b60f          	0x4797b60f
    23b4:	22f9                	addiw	t0,t0,30
    23b6:	43fe                	lw	t2,220(sp)
    23b8:	8234                	0x8234
    23ba:	7b647c4b          	fnmsub.d	fs8,fs0,fs6,fa5
    23be:	42cb4cf3          	0x42cb4cf3
    23c2:	33f8                	fld	fa4,224(a5)
    23c4:	37b1                	addiw	a5,a5,-20
    23c6:	337a                	fld	ft6,440(sp)
    23c8:	4a41b0ab          	custom1	1,gp,tp,37
    23cc:	5511                	li	a0,-28
    23ce:	a39e5787          	0xa39e5787
    23d2:	259c                	fld	fa5,8(a1)
    23d4:	4f90                	lw	a2,24(a5)
    23d6:	453c                	lw	a5,72(a0)
    23d8:	202edda7          	0x202edda7
    23dc:	ee10                	sd	a2,24(a2)
    23de:	73d1                	lui	t2,0xffff4
    23e0:	2228                	fld	fa0,64(a2)
    23e2:	6ce0                	ld	s0,216(s1)
    23e4:	dcbd                	beqz	s1,2362 <input_data+0xf0a>
    23e6:	45f50f7b          	custom3	30,10,31,34
    23ea:	108a                	slli	ra,ra,0x22
    23ec:	5899                	li	a7,-26
    23ee:	7f99                	lui	t6,0xfffe6
    23f0:	56e2                	lw	a3,56(sp)
    23f2:	3a06                	fld	fs4,96(sp)
    23f4:	42dd5013          	srai	zero,s10,0x2d
    23f8:	5bc3d43b          	0x5bc3d43b
    23fc:	3271                	addiw	tp,tp,-4
    23fe:	dcd04fb7          	lui	t6,0xdcd04
    2402:	0b18                	addi	a4,sp,400
    2404:	bb55                	j	21b8 <input_data+0xd60>
    2406:	1cc8                	addi	a0,sp,628
    2408:	1c4d                	addi	s8,s8,-13
    240a:	56f8                	lw	a4,108(a3)
    240c:	1f64                	addi	s1,sp,956
    240e:	46e372b7          	lui	t0,0x46e37
    2412:	174a                	slli	a4,a4,0x32
    2414:	247f                	0x247f
    2416:	811043f3          	0x811043f3
    241a:	1edc                	addi	a5,sp,884
    241c:	29f1                	addiw	s3,s3,28
    241e:	d0ed692b          	custom1	s2,s10,14,104
    2422:	2b0c                	fld	fa1,16(a4)
    2424:	53807c37          	lui	s8,0x53807
    2428:	8f02                	jr	t5
    242a:	4c0565b7          	lui	a1,0x4c056
    242e:	1cfa                	slli	s9,s9,0x3e
    2430:	e641                	bnez	a2,24b8 <input_data+0x1060>
    2432:	5238                	lw	a4,96(a2)
    2434:	0c514963          	blt	sp,t0,2506 <input_data+0x10ae>
    2438:	0030356f          	jal	a0,5c3a <_end+0x43a>
    243c:	81de                	mv	gp,s7
    243e:	37e721af          	0x37e721af
    2442:	3bd32907          	flw	fs2,957(t1) # ffffffffffff13bd <_gp+0xfffffffffffeb765>
    2446:	48ee                	lw	a7,216(sp)
    2448:	7e7f282b          	custom1	16,t5,7,63
    244c:	e911                	bnez	a0,2460 <input_data+0x1008>
    244e:	bc781e93          	0xbc781e93
    2452:	f81f52e3          	ble	ra,t5,23d6 <input_data+0xf7e>
    2456:	1034                	addi	a3,sp,40
    2458:	540c                	lw	a1,40(s0)
    245a:	60b8                	ld	a4,64(s1)
    245c:	4e448da7          	0x4e448da7
    2460:	939c                	0x939c
    2462:	7ada                	ld	s5,432(sp)
    2464:	8e8d                	sub	a3,a3,a1
    2466:	188c                	addi	a1,sp,112
    2468:	efe9                	bnez	a5,2542 <input_data+0x10ea>
    246a:	1a16                	slli	s4,s4,0x25
    246c:	1e9ca763          	0x1e9ca763
    2470:	671f 1235 2f27      	0x2f271235671f
    2476:	661d                	lui	a2,0x7
    2478:	17155447          	0x17155447
    247c:	291f 7157 83a9      	0x83a97157291f
    2482:	ccf5266f          	jal	a2,fffffffffff55150 <_gp+0xfffffffffff4f4f8>
    2486:	496d                	li	s2,27
    2488:	63a5                	lui	t2,0x9
    248a:	1542                	slli	a0,a0,0x30
    248c:	a455                	j	2730 <input_data+0x12d8>
    248e:	0dd6                	slli	s11,s11,0x15
    2490:	8322                	mv	t1,s0
    2492:	6190                	ld	a2,0(a1)
    2494:	8242                	mv	tp,a6
    2496:	ed641203          	lh	tp,-298(s0) # fffffffffffe6ed6 <_gp+0xfffffffffffe127e>
    249a:	7cd8                	ld	a4,184(s1)
    249c:	a2b8                	fsd	fa4,64(a3)
    249e:	6530                	ld	a2,72(a0)
    24a0:	02a1                	addi	t0,t0,8
    24a2:	52e1                	li	t0,-8
    24a4:	a814                	fsd	fa3,16(s0)
    24a6:	6d49                	lui	s10,0x12
    24a8:	1554                	addi	a3,sp,676
    24aa:	47ba                	lw	a5,140(sp)
    24ac:	b802                	fsd	ft0,48(sp)
    24ae:	0309                	addi	t1,t1,2
    24b0:	7e0c                	ld	a1,56(a2)
    24b2:	4f6a                	lw	t5,152(sp)
    24b4:	5a46b2c3          	fmadd.d	ft5,fa3,ft4,fa1,rup
    24b8:	69d9                	lui	s3,0x16
    24ba:	3632                	fld	fa2,296(sp)
    24bc:	adc9                	j	2b8e <input_data+0x1736>
    24be:	7221                	lui	tp,0xfffe8
    24c0:	0b52                	slli	s6,s6,0x14
    24c2:	05a3216b          	0x5a3216b
    24c6:	3d91                	addiw	s11,s11,-28
    24c8:	4881f2b7          	lui	t0,0x4881f
    24cc:	06c34b8b          	custom0	s7,6,12,3
    24d0:	4f41                	li	t5,16
    24d2:	0fd74577          	0xfd74577
    24d6:	2fb8                	fld	fa4,88(a5)
    24d8:	227f                	0x227f
    24da:	3f1a                	fld	ft10,416(sp)
    24dc:	5cc9                	li	s9,-14
    24de:	19c1                	addi	s3,s3,-16
    24e0:	a605                	j	2800 <input_data+0x13a8>
    24e2:	7f10                	ld	a2,56(a4)
    24e4:	2449                	addiw	s0,s0,18
    24e6:	4609                	li	a2,2
    24e8:	3495                	addiw	s1,s1,-27
    24ea:	5f89                	li	t6,-30
    24ec:	b74e                	fsd	fs3,424(sp)
    24ee:	3462                	fld	fs0,56(sp)
    24f0:	1a9b193f 0f5c9eb7 	0xf5c9eb71a9b193f
    24f8:	21dc                	fld	fa5,128(a1)
    24fa:	2fb9                	addiw	t6,t6,14
    24fc:	2390                	fld	fa2,0(a5)
    24fe:	52b9                	li	t0,-18
    2500:	5dbc                	lw	a5,120(a1)
    2502:	777e                	ld	a4,504(sp)
    2504:	07e4                	addi	s1,sp,972
    2506:	f6013b8f          	0xf6013b8f
    250a:	5520                	lw	s0,104(a0)
    250c:	2930                	fld	fa2,80(a0)
    250e:	b2da0a7b          	custom3	20,20,13,89
    2512:	0476                	slli	s0,s0,0x1d
    2514:	0af0                	addi	a2,sp,348
    2516:	ef612593          	slti	a1,sp,-266
    251a:	4469                	li	s0,26
    251c:	e19d                	bnez	a1,2542 <input_data+0x10ea>
    251e:	06b6                	slli	a3,a3,0xd
    2520:	1d74                	addi	a3,sp,700
    2522:	3d4e                	fld	fs10,240(sp)
    2524:	2dc1                	addiw	s11,s11,16
    2526:	70c4                	ld	s1,160(s1)
    2528:	7398                	ld	a4,32(a5)
    252a:	7476                	ld	s0,376(sp)
    252c:	12d4                	addi	a3,sp,356
    252e:	1cb4                	addi	a3,sp,632
    2530:	1886                	slli	a7,a7,0x21
    2532:	1a04                	addi	s1,sp,304
    2534:	5ea0                	lw	s0,120(a3)
    2536:	82a85f6f          	jal	t5,fffffffffff87560 <_gp+0xfffffffffff81908>
    253a:	f449044f          	0xf449044f
    253e:	5e3d                	li	t3,-17
    2540:	1b717563          	bleu	s7,sp,26ea <input_data+0x1292>
    2544:	88e1                	andi	s1,s1,24
    2546:	7185                	lui	gp,0xfffe1
    2548:	f2c1                	bnez	a3,24c8 <input_data+0x1070>
    254a:	2edd                	addiw	t4,t4,23
    254c:	1fe2                	slli	t6,t6,0x38
    254e:	1571                	addi	a0,a0,-4
    2550:	c58d                	beqz	a1,257a <input_data+0x1122>
    2552:	82bc7257          	0x82bc7257
    2556:	003d                	0x3d
    2558:	5eb2                	lw	t4,44(sp)
    255a:	641f 5118 4430      	0x44305118641f
    2560:	4838                	lw	a4,80(s0)
    2562:	c6375727          	0xc6375727
    2566:	292d                	addiw	s2,s2,11
    2568:	50ec                	lw	a1,100(s1)
    256a:	b4405a5b          	0xb4405a5b
    256e:	15aa                	slli	a1,a1,0x2a
    2570:	f556                	sd	s5,168(sp)
    2572:	8743583b          	0x8743583b
    2576:	d5303e3b          	0xd5303e3b
    257a:	a7e9795b          	custom2	s2,s2,t5,83
    257e:	0d08                	addi	a0,sp,656
    2580:	e05e                	sd	s7,0(sp)
    2582:	3181                	addiw	gp,gp,-32
    2584:	d8e5                	beqz	s1,2574 <input_data+0x111c>
    2586:	3ad616c3          	fmadd.d	fa3,fa2,fa3,ft7,rtz
    258a:	0675                	addi	a2,a2,29
    258c:	f25c                	sd	a5,160(a2)
    258e:	057f                	0x57f
    2590:	cc9f 0cfa b38c      	0xb38c0cfacc9f
    2596:	5abc                	lw	a5,112(a3)
    2598:	71b9                	lui	gp,0xfffee
    259a:	8d403cdb          	custom2	25,zero,s4,70
    259e:	53de                	lw	t2,244(sp)
    25a0:	33226d3b          	0x33226d3b
    25a4:	ce81                	beqz	a3,25bc <input_data+0x1164>
    25a6:	7556                	ld	a0,368(sp)
    25a8:	0bc1                	addi	s7,s7,16
    25aa:	5700                	lw	s0,40(a4)
    25ac:	495f 502b 6ac2      	0x6ac2502b495f
    25b2:	2a4c                	fld	fa1,144(a2)
    25b4:	5e7e                	lw	t3,252(sp)
    25b6:	1f06                	slli	t5,t5,0x21
    25b8:	8d0d                	sub	a0,a0,a1
    25ba:	7a1a                	ld	s4,416(sp)
    25bc:	ac82                	fsd	ft0,88(sp)
    25be:	696d                	lui	s2,0x1b
    25c0:	3c6ee86b          	0x3c6ee86b
    25c4:	eb55                	bnez	a4,2678 <input_data+0x1220>
    25c6:	54be65e7          	0x54be65e7
    25ca:	3d2d                	addiw	s10,s10,-21
    25cc:	8b7a                	mv	s6,t5
    25ce:	5222                	lw	tp,40(sp)
    25d0:	e2f0                	sd	a2,192(a3)
    25d2:	5cfd                	li	s9,-1
    25d4:	8ed1                	or	a3,a3,a2
    25d6:	085b2057          	0x85b2057
    25da:	5b74                	lw	a3,116(a4)
    25dc:	0239                	addi	tp,tp,14
    25de:	1f79                	addi	t5,t5,-2
    25e0:	78276307          	0x78276307
    25e4:	13640e9b          	addiw	t4,s0,310
    25e8:	0be4                	addi	s1,sp,476
    25ea:	43cd                	li	t2,19
    25ec:	8c1c                	0x8c1c
    25ee:	1d7a704b          	0x1d7a704b
    25f2:	6f86                	ld	t6,64(sp)
    25f4:	6351                	lui	t1,0x14
    25f6:	2aac                	fld	fa1,80(a3)
    25f8:	09fe3077          	0x9fe3077
    25fc:	1e4c                	addi	a1,sp,820
    25fe:	bae34d03          	lbu	s10,-1106(t1) # 13bae <_gp+0xdf56>
    2602:	45df 5ebc 784d      	0x784d5ebc45df
    2608:	744d6397          	auipc	t2,0x744d6
    260c:	463a                	lw	a2,140(sp)
    260e:	634e                	ld	t1,208(sp)
    2610:	a105                	j	2a30 <input_data+0x15d8>
    2612:	6d5d                	lui	s10,0x17
    2614:	32ee431b          	0x32ee431b
    2618:	c920                	sw	s0,80(a0)
    261a:	1268                	addi	a0,sp,300
    261c:	6e48                	ld	a0,152(a2)
    261e:	1df4                	addi	a3,sp,764
    2620:	b7c8                	fsd	fa0,168(a5)
    2622:	7d82                	ld	s11,32(sp)
    2624:	3d99                	addiw	s11,s11,-26
    2626:	60d6                	ld	ra,336(sp)
    2628:	49c4                	lw	s1,20(a1)
    262a:	1ea6                	slli	t4,t4,0x29
    262c:	8a86                	mv	s5,ra
    262e:	3a2d                	addiw	s4,s4,-21
    2630:	0d8e43d3          	0xd8e43d3
    2634:	d5de                	sw	s7,232(sp)
    2636:	3661                	addiw	a2,a2,-8
    2638:	4040                	lw	s0,4(s0)
    263a:	2ed9                	addiw	t4,t4,22
    263c:	8f99                	sub	a5,a5,a4
    263e:	1ae8                	addi	a0,sp,380
    2640:	90c0                	0x90c0
    2642:	84c10ca3          	sb	a2,-1959(sp)
    2646:	7b4e                	ld	s6,240(sp)
    2648:	8f21                	xor	a4,a4,s0
    264a:	06fd                	addi	a3,a3,31
    264c:	736f35b7          	lui	a1,0x736f3
    2650:	c4ff                	0xc4ff
    2652:	c41b0c8f          	0xc41b0c8f
    2656:	092d7643          	fmadd.s	fa2,fs10,fs2,ft1
    265a:	3862                	fld	fa6,56(sp)
    265c:	a9d0                	fsd	fa2,144(a1)
    265e:	d94853fb          	0xd94853fb
    2662:	6202                	ld	tp,0(sp)
    2664:	43e409b7          	lui	s3,0x43e40
    2668:	2870b66f          	jal	a2,e0ee <_gp+0x8496>
    266c:	4c3ceec7          	0x4c3ceec7
    2670:	4dbe                	lw	s11,204(sp)
    2672:	2b26                	fld	fs6,72(sp)
    2674:	3f66                	fld	ft10,120(sp)
    2676:	0ba5                	addi	s7,s7,9
    2678:	1fe2                	slli	t6,t6,0x38
    267a:	5952                	lw	s2,52(sp)
    267c:	d0de                	sw	s7,96(sp)
    267e:	3b90                	fld	fa2,48(a5)
    2680:	d69d                	beqz	a3,25ae <input_data+0x1156>
    2682:	6a2e634b          	fnmsub.d	ft6,ft8,ft2,fa3,unknown
    2686:	6bb957d7          	0x6bb957d7
    268a:	5d11                	li	s10,-28
    268c:	6d30                	ld	a2,88(a0)
    268e:	0906                	slli	s2,s2,0x1
    2690:	daa0                	sw	s0,112(a3)
    2692:	52a12997          	auipc	s3,0x52a12
    2696:	60b9                	lui	ra,0xe
    2698:	b44a                	fsd	fs2,40(sp)
    269a:	2439                	addiw	s0,s0,14
    269c:	6f58                	ld	a4,152(a4)
    269e:	042a                	slli	s0,s0,0xa
    26a0:	3cf2                	fld	fs9,312(sp)
    26a2:	204c44af          	0x204c44af
    26a6:	3f66                	fld	ft10,120(sp)
    26a8:	a394                	fsd	fa3,0(a5)
    26aa:	4fc1                	li	t6,16
    26ac:	472e                	lw	a4,200(sp)
    26ae:	034e                	slli	t1,t1,0x13
    26b0:	8cce                	mv	s9,s3
    26b2:	4c2d                	li	s8,11
    26b4:	31e3fa47          	fmsub.s	fs4,ft7,ft10,ft6
    26b8:	7220fd73          	csrrc	s10,0x722,1
    26bc:	b8b0                	fsd	fa2,112(s1)
    26be:	3e8d                	addiw	t4,t4,-29
    26c0:	54b6                	lw	s1,108(sp)
    26c2:	09a0                	addi	s0,sp,216
    26c4:	deea                	sw	s10,124(sp)
    26c6:	04ca                	slli	s1,s1,0x12
    26c8:	625f 253c 47ff      	0x47ff253c625f
    26ce:	346a                	fld	fs0,184(sp)
    26d0:	3f95e34b          	0x3f95e34b
    26d4:	049e                	slli	s1,s1,0x7
    26d6:	51fc                	lw	a5,100(a1)
    26d8:	5d0e34db          	custom2	9,t3,a6,46
    26dc:	2382                	fld	ft7,0(sp)
    26de:	038a                	slli	t2,t2,0x2
    26e0:	399987cf          	fnmadd.s	fa5,fs3,fs9,ft7,rne
    26e4:	35d0                	fld	fa2,168(a1)
    26e6:	79d5                	lui	s3,0xffff5
    26e8:	2b82                	fld	fs7,0(sp)
    26ea:	4638                	lw	a4,72(a2)
    26ec:	4e25                	li	t3,9
    26ee:	4520                	lw	s0,72(a0)
    26f0:	dc36                	sw	a3,56(sp)
    26f2:	115c                	addi	a5,sp,164
    26f4:	0a50ba03          	ld	s4,165(ra) # e0a5 <_gp+0x844d>
    26f8:	b9a9                	j	2352 <input_data+0xefa>
    26fa:	ebc45297          	auipc	t0,0xebc45
    26fe:	26dd                	addiw	a3,a3,23
    2700:	56e2                	lw	a3,56(sp)
    2702:	6b6d                	lui	s6,0x1b
    2704:	7dfd                	lui	s11,0xfffff
    2706:	5cb9                	li	s9,-18
    2708:	18b0                	addi	a2,sp,120
    270a:	2530                	fld	fa2,72(a0)
    270c:	b1a2                	fsd	fs0,224(sp)
    270e:	5e28                	lw	a0,120(a2)
    2710:	624efe03          	0x624efe03
    2714:	10244d23          	0x10244d23
    2718:	14df5beb          	0x14df5beb
    271c:	46d09d13          	0x46d09d13
    2720:	3548b68b          	custom0	13,a7,s4,26
    2724:	0dde                	slli	s11,s11,0x17
    2726:	1fda                	slli	t6,t6,0x36
    2728:	9926                	add	s2,s2,s1
    272a:	3f00                	fld	fs0,56(a4)
    272c:	323a                	fld	ft4,424(sp)
    272e:	48c70dbf 133b7e3c 	0x133b7e3c48c70dbf
    2736:	2e6c                	fld	fa1,216(a2)
    2738:	cfda                	sw	s6,220(sp)
    273a:	a4ed0ef3          	0xa4ed0ef3
    273e:	063c                	addi	a5,sp,776
    2740:	d49f 4f2b b592      	0xb5924f2bd49f
    2746:	6f6a                	ld	t5,152(sp)
    2748:	6e24d8eb          	0x6e24d8eb
    274c:	6db5                	lui	s11,0xd
    274e:	0f6b128b          	0xf6b128b
    2752:	1e30                	addi	a2,sp,824
    2754:	845e                	mv	s0,s7
    2756:	491c6bc7          	fmsub.s	fs7,fs8,fa7,fs1,unknown
    275a:	2435                	addiw	s0,s0,13
    275c:	ecf0                	sd	a2,216(s1)
    275e:	5ce0                	lw	s0,124(s1)
    2760:	493e456f          	jal	a0,e73f2 <_gp+0xe179a>
    2764:	832c                	0x832c
    2766:	d0102aef          	jal	s5,fffffffffff05466 <_gp+0xffffffffffeff80e>
    276a:	7501                	lui	a0,0xfffe0
    276c:	de19                	beqz	a2,268a <input_data+0x1232>
    276e:	3c49                	addiw	s8,s8,-14
    2770:	b8f5                	j	206c <input_data+0xc14>
    2772:	47d2                	lw	a5,20(sp)
    2774:	21bf03af          	0x21bf03af
    2778:	3dfe                	fld	fs11,504(sp)
    277a:	18fa                	slli	a7,a7,0x3e
    277c:	7d20                	ld	s0,120(a0)
    277e:	99062bf3          	csrrs	s7,0x990,a2
    2782:	ceef1f03          	lh	t5,-786(t5) # 9cee <_gp+0x4096>
    2786:	f9ef67b7          	lui	a5,0xf9ef6
    278a:	5ff3644b          	0x5ff3644b
    278e:	56be                	lw	a3,236(sp)
    2790:	69c4                	ld	s1,144(a1)
    2792:	7e4a                	ld	t3,176(sp)
    2794:	6fa2                	ld	t6,8(sp)
    2796:	52b62b7b          	custom3	22,a2,11,41
    279a:	5d51                	li	s10,-12
    279c:	261f 2b0e 5867      	0x58672b0e261f
    27a2:	2c15                	addiw	s8,s8,5
    27a4:	34968f93          	addi	t6,a3,841 # 68f48fb1 <_gp+0x68f43359>
    27a8:	b46e                	fsd	fs11,40(sp)
    27aa:	3734                	fld	fa3,104(a4)
    27ac:	3b99408f          	0x3b99408f
    27b0:	94d2                	add	s1,s1,s4
    27b2:	7a3f4e8f          	0x7a3f4e8f
    27b6:	6ca90747          	0x6ca90747
    27ba:	615d                	addi	sp,sp,432
    27bc:	3372                	fld	ft6,312(sp)
    27be:	4bae                	lw	s7,200(sp)
    27c0:	6ad2                	ld	s5,272(sp)
    27c2:	f67f16a7          	0xf67f16a7
    27c6:	3e38                	fld	fa4,120(a2)
    27c8:	27ac473b          	0x27ac473b
    27cc:	3417d43b          	0x3417d43b
    27d0:	74f2                	ld	s1,312(sp)
    27d2:	2aca                	fld	fs5,144(sp)
    27d4:	c95e                	sw	s7,144(sp)
    27d6:	eda17f4b          	0xeda17f4b
    27da:	2d68                	fld	fa0,216(a0)
    27dc:	25c2                	fld	fa1,16(sp)
    27de:	5fa0                	lw	s0,120(a5)
    27e0:	e2fd                	bnez	a3,28c6 <input_data+0x146e>
    27e2:	540d27bb          	0x540d27bb
    27e6:	1e9c                	addi	a5,sp,880
    27e8:	930e                	add	t1,t1,gp
    27ea:	59a5                	li	s3,-23
    27ec:	9488                	0x9488
    27ee:	4349                	li	t1,18
    27f0:	6e11                	lui	t3,0x4
    27f2:	05ee                	slli	a1,a1,0x1b
    27f4:	deec                	sw	a1,124(a3)
    27f6:	2b16                	fld	fs6,320(sp)
    27f8:	1714                	addi	a3,sp,928
    27fa:	3e6d                	addiw	t3,t3,-5
    27fc:	7518                	ld	a4,40(a0)
    27fe:	20d0                	fld	fa2,128(s1)
    2800:	345c                	fld	fa5,168(s0)
    2802:	43c8408b          	custom0	ra,16,28,33
    2806:	1144                	addi	s1,sp,164
    2808:	68ec                	ld	a1,208(s1)
    280a:	0ce8                	addi	a0,sp,604
    280c:	c688                	sw	a0,8(a3)
    280e:	4602                	lw	a2,0(sp)
    2810:	5676                	lw	a2,124(sp)
    2812:	3268                	fld	fa0,224(a2)
    2814:	c924                	sw	s1,80(a0)
    2816:	5ca1                	li	s9,-24
    2818:	9562                	add	a0,a0,s8
    281a:	226a                	fld	ft4,152(sp)
    281c:	5b1f 2f1a d05b      	0xd05b2f1a5b1f
    2822:	2845                	addiw	a6,a6,17
    2824:	78f220af          	0x78f220af
    2828:	8960                	0x8960
    282a:	099f a911 0da5      	0xda5a911099f
    2830:	2c54a803          	lw	a6,709(s1) # 2c5 <_start+0xc5>
    2834:	9ad6                	add	s5,s5,s5
    2836:	50a2                	lw	ra,40(sp)
    2838:	3314                	fld	fa3,32(a4)
    283a:	7e90                	ld	a2,56(a3)
    283c:	a565                	j	2ee4 <input_data+0x1a8c>
    283e:	32cd                	addiw	t0,t0,-13
    2840:	2ba0                	fld	fs0,80(a5)
    2842:	4cf4                	lw	a3,92(s1)
    2844:	c174                	sw	a3,68(a0)
    2846:	1abe                	slli	s5,s5,0x2f
    2848:	4bc0                	lw	s0,20(a5)
    284a:	2af7746f          	jal	s0,7a2f8 <_gp+0x746a0>
    284e:	9973370b          	custom0	14,t1,s7,76
    2852:	3152                	fld	ft2,304(sp)
    2854:	aba4                	fsd	fs1,80(a5)
    2856:	431d                	li	t1,7
    2858:	b420                	fsd	fs0,104(s0)
    285a:	0bcc                	addi	a1,sp,468
    285c:	8f9a                	mv	t6,t1
    285e:	10c4                	addi	s1,sp,100
    2860:	45da2b4b          	0x45da2b4b
    2864:	7cb6                	ld	s9,360(sp)
    2866:	ed702d97          	auipc	s11,0xed702
    286a:	2381                	sext.w	t2,t2
    286c:	2954                	fld	fa3,144(a0)
    286e:	7ef4                	ld	a3,248(a3)
    2870:	1f9c                	addi	a5,sp,1008
    2872:	55a9                	li	a1,-22
    2874:	5646a03f 2d08d921 	0x2d08d9215646a03f
    287c:	a5cd                	j	2f5e <input_data+0x1b06>
    287e:	7f02                	ld	t5,32(sp)
    2880:	fa38                	sd	a4,112(a2)
    2882:	6d62                	ld	s10,24(sp)
    2884:	754a                	ld	a0,176(sp)
    2886:	89185c3f 35c46e96 	0x35c46e9689185c3f
    288e:	398c                	fld	fa1,48(a1)
    2890:	d6ad                	beqz	a3,27fa <input_data+0x13a2>
    2892:	2812                	fld	fa6,256(sp)
    2894:	3aae                	fld	fs5,232(sp)
    2896:	0ae2                	slli	s5,s5,0x18
    2898:	8aa1                	andi	a3,a3,8
    289a:	0ce6                	slli	s9,s9,0x19
    289c:	aeb6                	fsd	fa3,344(sp)
    289e:	4ef5                	li	t4,29
    28a0:	463a                	lw	a2,140(sp)
    28a2:	443a                	lw	s0,140(sp)
    28a4:	2e78                	fld	fa4,216(a2)
    28a6:	1b16                	slli	s6,s6,0x25
    28a8:	48bfb5ef          	jal	a1,fe532 <_gp+0xf88da>
    28ac:	e4a2                	sd	s0,72(sp)
    28ae:	5aa6                	lw	s5,104(sp)
    28b0:	d36e                	sw	s11,164(sp)
    28b2:	6b25                	lui	s6,0x9
    28b4:	f286                	sd	ra,352(sp)
    28b6:	5e79                	li	t3,-2
    28b8:	2c50                	fld	fa2,152(s0)
    28ba:	2f82                	fld	ft11,0(sp)
    28bc:	9de8                	0x9de8
    28be:	6c91                	lui	s9,0x4
    28c0:	e55e                	sd	s7,136(sp)
    28c2:	68357ed7          	0x68357ed7
    28c6:	3a04                	fld	fs1,48(a2)
    28c8:	cef1                	beqz	a3,29a4 <input_data+0x154c>
    28ca:	3b1e                	fld	fs6,480(sp)
    28cc:	a34d                	j	2e6e <input_data+0x1a16>
    28ce:	2880                	fld	fs0,16(s1)
    28d0:	74ec5c83          	lhu	s9,1870(s8) # 5380774e <_gp+0x53801af6>
    28d4:	5531                	li	a0,-20
    28d6:	7cd2                	ld	s9,304(sp)
    28d8:	1753184b          	0x1753184b
    28dc:	8e1a                	mv	t3,t1
    28de:	5fa0                	lw	s0,120(a5)
    28e0:	e330                	sd	a2,64(a4)
    28e2:	2262                	fld	ft4,24(sp)
    28e4:	436d                	li	t1,27
    28e6:	6610                	ld	a2,8(a2)
    28e8:	e22a                	sd	a0,256(sp)
    28ea:	1488                	addi	a0,sp,608
    28ec:	1664                	addi	s1,sp,812
    28ee:	42ec                	lw	a1,68(a3)
    28f0:	62e38bab          	custom1	23,7,14,49
    28f4:	2e2c                	fld	fa1,88(a2)
    28f6:	4f35                	li	t5,13
    28f8:	4258                	lw	a4,4(a2)
    28fa:	02e8                	addi	a0,sp,332
    28fc:	c368                	sw	a0,68(a4)
    28fe:	f5ee0ebf ae3b6d70 	0xae3b6d70f5ee0ebf
    2906:	5d39                	li	s10,-18
    2908:	47ea                	lw	a5,152(sp)
    290a:	52a2                	lw	t0,40(sp)
    290c:	000d                	0xd
    290e:	1cf5                	addi	s9,s9,-3
    2910:	d6fc                	sw	a5,108(a3)
    2912:	0234                	addi	a3,sp,264
    2914:	7742                	ld	a4,48(sp)
    2916:	1540                	addi	s0,sp,676
    2918:	0326                	slli	t1,t1,0x9
    291a:	63de                	ld	t2,464(sp)
    291c:	19a2b58b          	custom0	11,t0,s10,12
    2920:	5bd8                	lw	a4,52(a5)
    2922:	182e74c7          	fmsub.s	fs1,ft8,ft2,ft3
    2926:	6a60                	ld	s0,208(a2)
    2928:	6d9de20f          	0x6d9de20f
    292c:	ae28                	fsd	fa0,88(a2)
    292e:	5f21                	li	t5,-24
    2930:	119f8227          	0x119f8227
    2934:	10d2                	slli	ra,ra,0x34
    2936:	0b8f180b          	0xb8f180b
    293a:	7e0a                	ld	t3,160(sp)
    293c:	2220                	fld	fs0,64(a2)
    293e:	5a55                	li	s4,-11
    2940:	2062                	fld	ft0,24(sp)
    2942:	5be2                	lw	s7,56(sp)
    2944:	56126e87          	0x56126e87
    2948:	0341                	addi	t1,t1,16
    294a:	486d                	li	a6,27
    294c:	f0a0                	sd	s0,96(s1)
    294e:	f7b7649b          	0xf7b7649b
    2952:	5c26                	lw	s8,104(sp)
    2954:	420c                	lw	a1,0(a2)
    2956:	7190                	ld	a2,32(a1)
    2958:	7fd8                	ld	a4,184(a5)
    295a:	207a                	fld	ft0,408(sp)
    295c:	26e9                	addiw	a3,a3,26
    295e:	7b55                	lui	s6,0xffff5
    2960:	c97d                	beqz	a0,2a56 <input_data+0x15fe>
    2962:	64a6                	ld	s1,72(sp)
    2964:	6075                	0x6075
    2966:	544a                	lw	s0,176(sp)
    2968:	13ccfe2f          	0x13ccfe2f
    296c:	25aa979b          	0x25aa979b
    2970:	193b0a53          	fdiv.s	fs4,fs6,fs3,rne
    2974:	4f730137          	lui	sp,0x4f730
    2978:	3aed                	addiw	s5,s5,-5
    297a:	2085                	addiw	ra,ra,1
    297c:	6408                	ld	a0,8(s0)
    297e:	127e                	slli	tp,tp,0x3f
    2980:	6cd4                	ld	a3,152(s1)
    2982:	eb5f3947          	fmsub.d	fs2,ft10,fs5,ft9,rup
    2986:	5cd41633          	0x5cd41633
    298a:	79c3733f 1df96604 	0x1df9660479c3733f
    2992:	03e500af          	0x3e500af
    2996:	094a                	slli	s2,s2,0x12
    2998:	29c439a7          	fsd	ft8,659(s0)
    299c:	263e                	fld	fa2,456(sp)
    299e:	56df 2d0a 4efb      	0x4efb2d0a56df
    29a4:	2f1a                	fld	ft10,384(sp)
    29a6:	0a42                	slli	s4,s4,0x10
    29a8:	bfb6                	fsd	fa3,504(sp)
    29aa:	2799                	addiw	a5,a5,6
    29ac:	65a60287          	0x65a60287
    29b0:	3942                	fld	fs2,48(sp)
    29b2:	1675                	addi	a2,a2,-3
    29b4:	973c                	0x973c
    29b6:	57c5                	li	a5,-15
    29b8:	2e08                	fld	fa0,24(a2)
    29ba:	147c                	addi	a5,sp,556
    29bc:	9932                	add	s2,s2,a2
    29be:	51b0                	lw	a2,96(a1)
    29c0:	1efe                	slli	t4,t4,0x3f
    29c2:	0fd1                	addi	t6,t6,20
    29c4:	8a2c                	0x8a2c
    29c6:	7bf2                	ld	s7,312(sp)
    29c8:	6522                	ld	a0,8(sp)
    29ca:	6b7a                	ld	s6,408(sp)
    29cc:	4855                	li	a6,21
    29ce:	1ef2                	slli	t4,t4,0x3c
    29d0:	fea1                	bnez	a3,2928 <input_data+0x14d0>
    29d2:	5bb1                	li	s7,-20
    29d4:	4038                	lw	a4,64(s0)
    29d6:	7320                	ld	s0,96(a4)
    29d8:	3a7a                	fld	fs4,440(sp)
    29da:	468a                	lw	a3,128(sp)
    29dc:	58cb01ab          	custom1	3,22,12,44
    29e0:	9709                	srai	a4,a4,0x22
    29e2:	1d82                	slli	s11,s11,0x20
    29e4:	2fbefe13          	andi	t3,t4,763
    29e8:	5874                	lw	a3,116(s0)
    29ea:	0a8e                	slli	s5,s5,0x3
    29ec:	4d08aadb          	custom2	21,a7,16,38
    29f0:	8da5                	xor	a1,a1,s1
    29f2:	505e                	0x505e
    29f4:	5c6b23e3          	0x5c6b23e3
    29f8:	d515                	beqz	a0,2924 <input_data+0x14cc>
    29fa:	2995                	addiw	s3,s3,5
    29fc:	ffd4                	sd	a3,184(a5)
    29fe:	330e                	fld	ft6,224(sp)
    2a00:	76c9de3b          	0x76c9de3b
    2a04:	db78                	sw	a4,116(a4)
    2a06:	46e0                	lw	s0,76(a3)
    2a08:	0d36494b          	0xd36494b
    2a0c:	0957f94f          	fnmadd.s	fs2,fa5,fs5,ft1
    2a10:	4c36                	lw	s8,76(sp)
    2a12:	024d                	addi	tp,tp,19
    2a14:	379a                	fld	fa5,416(sp)
    2a16:	d2d71667          	0xd2d71667
    2a1a:	d9767be3          	bleu	s7,a2,27b0 <input_data+0x1358>
    2a1e:	7d5c                	ld	a5,184(a0)
    2a20:	14624fa3          	0x14624fa3
    2a24:	29a4b67b          	custom3	12,s1,s10,20
    2a28:	0ad6                	slli	s5,s5,0x15
    2a2a:	20a316b7          	lui	a3,0x20a31
    2a2e:	4798                	lw	a4,8(a5)
    2a30:	97d2                	add	a5,a5,s4
    2a32:	4c06                	lw	s8,64(sp)
    2a34:	394c                	fld	fa1,176(a0)
    2a36:	17bc                	addi	a5,sp,1000
    2a38:	2fc79aeb          	0x2fc79aeb
    2a3c:	cc41                	beqz	s0,2ad4 <input_data+0x167c>
    2a3e:	40d2                	lw	ra,20(sp)
    2a40:	dd86                	sw	ra,248(sp)
    2a42:	3276                	fld	ft4,376(sp)
    2a44:	a2ea                	fsd	fs10,320(sp)
    2a46:	6e30                	ld	a2,88(a2)
    2a48:	4cc2bb0b          	custom0	22,t0,a2,38
    2a4c:	537361cf          	fnmadd.d	ft3,ft6,fs7,fa0,unknown
    2a50:	5ed6                	lw	t4,116(sp)
    2a52:	5f92                	lw	t6,36(sp)
    2a54:	6fb9                	lui	t6,0xe
    2a56:	497e                	lw	s2,220(sp)
    2a58:	81e5                	srli	a1,a1,0x19
    2a5a:	6803304f          	fnmadd.s	ft0,ft6,ft0,fa3,rup
    2a5e:	fea4292b          	custom1	18,s0,10,127
    2a62:	b88a6ee3          	bltu	s4,s0,25fe <input_data+0x11a6>
    2a66:	2cbd                	addiw	s9,s9,15
    2a68:	91ec                	0x91ec
    2a6a:	100b4bc7          	fmsub.s	fs7,fs6,ft0,ft2,rmm
    2a6e:	3348                	fld	fa0,160(a4)
    2a70:	a1b8                	fsd	fa4,64(a1)
    2a72:	32b546e3          	blt	a0,a1,359e <verify_data+0x146>
    2a76:	7214                	ld	a3,32(a2)
    2a78:	4d02                	lw	s10,0(sp)
    2a7a:	3869                	addiw	a6,a6,-6
    2a7c:	f0ee                	sd	s11,96(sp)
    2a7e:	6c34                	ld	a3,88(s0)
    2a80:	0379                	addi	t1,t1,30
    2a82:	2c52                	fld	fs8,272(sp)
    2a84:	df4c                	sw	a1,60(a4)
    2a86:	7165                	addi	sp,sp,-400
    2a88:	58c2                	lw	a7,48(sp)
    2a8a:	4c11                	li	s8,4
    2a8c:	d711                	beqz	a4,2998 <input_data+0x1540>
    2a8e:	dc48778b          	custom0	a5,a6,tp,110
    2a92:	253a                	fld	fa0,392(sp)
    2a94:	3b66                	fld	fs6,120(sp)
    2a96:	7dac                	ld	a1,120(a1)
    2a98:	dd6a                	sw	s10,184(sp)
    2a9a:	c9d6745b          	custom2	s0,a2,t4,100
    2a9e:	397a                	fld	fs2,440(sp)
    2aa0:	d378                	sw	a4,100(a4)
    2aa2:	45cc                	lw	a1,12(a1)
    2aa4:	7ec6e397          	auipc	t2,0x7ec6e
    2aa8:	8964                	0x8964
    2aaa:	306a                	fld	ft0,184(sp)
    2aac:	895f 0679 56ec      	0x56ec0679895f
    2ab2:	3a74                	fld	fa3,240(a2)
    2ab4:	bc82                	fsd	ft0,120(sp)
    2ab6:	2a95                	addiw	s5,s5,5
    2ab8:	6413036f          	jal	t1,338f8 <_gp+0x2dca0>
    2abc:	e670                	sd	a2,200(a2)
    2abe:	7359                	lui	t1,0xffff6
    2ac0:	0e1e124f          	0xe1e124f
    2ac4:	d285                	beqz	a3,29e4 <input_data+0x158c>
    2ac6:	156e5bdb          	0x156e5bdb
    2aca:	3f8a                	fld	ft11,160(sp)
    2acc:	7672                	ld	a2,312(sp)
    2ace:	5fd2                	lw	t6,52(sp)
    2ad0:	5fea                	lw	t6,184(sp)
    2ad2:	429272d7          	0x429272d7
    2ad6:	79cd38eb          	0x79cd38eb
    2ada:	675a                	ld	a4,400(sp)
    2adc:	4595                	li	a1,5
    2ade:	00d9                	addi	ra,ra,22
    2ae0:	ad26                	fsd	fs1,152(sp)
    2ae2:	59ce                	lw	s3,240(sp)
    2ae4:	9e1e                	add	t3,t3,t2
    2ae6:	328d                	addiw	t0,t0,-29
    2ae8:	d58c                	sw	a1,40(a1)
    2aea:	463a                	lw	a2,140(sp)
    2aec:	490d                	li	s2,3
    2aee:	249c                	fld	fa5,8(s1)
    2af0:	6ca0                	ld	s0,88(s1)
    2af2:	5c312b9b          	0x5c312b9b
    2af6:	5a21                	li	s4,-24
    2af8:	08ea                	slli	a7,a7,0x1a
    2afa:	03c5                	addi	t2,t2,17
    2afc:	737c                	ld	a5,224(a4)
    2afe:	cfe139bf 099e6a54 	0x99e6a54cfe139bf
    2b06:	539c                	lw	a5,32(a5)
    2b08:	a0ae                	fsd	fa1,64(sp)
    2b0a:	50c9                	li	ra,-14
    2b0c:	62e46d6f          	jal	s10,4913a <_gp+0x434e2>
    2b10:	22c2                	fld	ft5,16(sp)
    2b12:	45f8                	lw	a4,76(a1)
    2b14:	0a4d                	addi	s4,s4,19
    2b16:	3e2a                	fld	ft8,168(sp)
    2b18:	d214                	sw	a3,32(a2)
    2b1a:	4e9c                	lw	a5,24(a3)
    2b1c:	1402                	slli	s0,s0,0x20
    2b1e:	447e                	lw	s0,220(sp)
    2b20:	7c93425b          	custom2	tp,6,9,62
    2b24:	ddb4                	sw	a3,120(a1)
    2b26:	479f 0b53 0ee7      	0xee70b53479f
    2b2c:	ffa0                	sd	s0,120(a5)
    2b2e:	3db1                	addiw	s11,s11,-20
    2b30:	49a5                	li	s3,9
    2b32:	2835                	addiw	a6,a6,13
    2b34:	f865                	bnez	s0,2b24 <input_data+0x16cc>
    2b36:	40fd                	li	ra,31
    2b38:	73d9c2c7          	fmsub.d	ft5,fs3,ft9,fa4,rmm
    2b3c:	74e5                	lui	s1,0xffff9
    2b3e:	37ac                	fld	fa1,104(a5)
    2b40:	7c6f2dab          	custom1	27,t5,6,62
    2b44:	64c0                	ld	s0,136(s1)
    2b46:	cec02c07          	flw	fs8,-788(zero)
    2b4a:	4dc9                	li	s11,18
    2b4c:	41a4                	lw	s1,64(a1)
    2b4e:	a371056f          	jal	a0,fffffffffff13584 <_gp+0xfffffffffff0d92c>
    2b52:	7cc865cf          	0x7cc865cf
    2b56:	647c                	ld	a5,200(s0)
    2b58:	15bb2fe7          	0x15bb2fe7
    2b5c:	6eea2803          	lw	a6,1774(s4)
    2b60:	4961                	li	s2,24
    2b62:	72e1                	lui	t0,0xffff8
    2b64:	360e2f13          	slti	t5,t3,864
    2b68:	40fed847          	fmsub.s	fa6,ft9,fa5,fs0,unknown
    2b6c:	99c5                	andi	a1,a1,-15
    2b6e:	ae6e3533          	0xae6e3533
    2b72:	60db7567          	0x60db7567
    2b76:	98ff6fb3          	0x98ff6fb3
    2b7a:	3741                	addiw	a4,a4,-16
    2b7c:	a5a0                	fsd	fs0,72(a1)
    2b7e:	4522                	lw	a0,8(sp)
    2b80:	70c8                	ld	a0,160(s1)
    2b82:	1f332b87          	flw	fs7,499(t1) # ffffffffffff61f3 <_gp+0xffffffffffff059b>
    2b86:	14d1                	addi	s1,s1,-12
    2b88:	12f40083          	lb	ra,303(s0)
    2b8c:	18cd                	addi	a7,a7,-13
    2b8e:	4e3b0d77          	0x4e3b0d77
    2b92:	71531ccf          	fnmadd.s	fs9,ft6,fs5,fa4,rtz
    2b96:	938a3dbf f69e0e65 	0xf69e0e65938a3dbf
    2b9e:	4c4a                	lw	s8,144(sp)
    2ba0:	4a5ba023          	sw	t0,1184(s7) # 54a0 <verify_data+0x2048>
    2ba4:	be14                	fsd	fa3,56(a2)
    2ba6:	6a980ebf 88496aea 	0x88496aea6a980ebf
    2bae:	2cd8                	fld	fa4,152(s1)
    2bb0:	112b5d0f          	0x112b5d0f
    2bb4:	d676                	sw	t4,44(sp)
    2bb6:	7b96                	ld	s7,352(sp)
    2bb8:	7988de27          	0x7988de27
    2bbc:	24d266c3          	0x24d266c3
    2bc0:	59f1                	li	s3,-4
    2bc2:	19d5                	addi	s3,s3,-11
    2bc4:	d75f 1dcb 8b75      	0x8b751dcbd75f
    2bca:	3e9d                	addiw	t4,t4,-25
    2bcc:	13bf00c7          	fmsub.d	ft1,ft10,fs11,ft2,rne
    2bd0:	24ff                	0x24ff
    2bd2:	32be                	fld	ft5,488(sp)
    2bd4:	345f 4d2e 9be5      	0x9be54d2e345f
    2bda:	663e                	ld	a2,456(sp)
    2bdc:	3ef5                	addiw	t4,t4,-3
    2bde:	451f 742a 3d5a      	0x3d5a742a451f
    2be4:	5dae                	lw	s11,232(sp)
    2be6:	78d8                	ld	a4,176(s1)
    2be8:	628bd913          	0x628bd913
    2bec:	6fc00817          	auipc	a6,0x6fc00
    2bf0:	c139                	beqz	a0,2c36 <input_data+0x17de>
    2bf2:	9338498f          	0x9338498f
    2bf6:	0f89                	addi	t6,t6,2
    2bf8:	3e27b777          	0x3e27b777
    2bfc:	8780                	0x8780
    2bfe:	5390                	lw	a2,32(a5)
    2c00:	4d81                	li	s11,0
    2c02:	2b84                	fld	fs1,16(a5)
    2c04:	96cd                	srai	a3,a3,0x33
    2c06:	6808                	ld	a0,16(s0)
    2c08:	21b4                	fld	fa3,64(a1)
    2c0a:	5c6e                	lw	s8,248(sp)
    2c0c:	378e                	fld	fa5,224(sp)
    2c0e:	67435fd3          	0x67435fd3
    2c12:	39c9                	addiw	s3,s3,-14
    2c14:	0f7c                	addi	a5,sp,924
    2c16:	2e6a                	fld	ft8,152(sp)
    2c18:	6e7e                	ld	t3,472(sp)
    2c1a:	6940                	ld	s0,144(a0)
    2c1c:	d24e                	sw	s3,36(sp)
    2c1e:	2b9d                	addiw	s7,s7,7
    2c20:	6aa2                	ld	s5,8(sp)
    2c22:	5f5e                	lw	t5,244(sp)
    2c24:	8ffa                	mv	t6,t5
    2c26:	74b0                	ld	a2,104(s1)
    2c28:	000a8b27          	0xa8b27
    2c2c:	6a3e                	ld	s4,456(sp)
    2c2e:	1a7c                	addi	a5,sp,316
    2c30:	4c38983f 4969523d 	0x4969523d4c38983f
    2c38:	04c5                	addi	s1,s1,17
    2c3a:	239c                	fld	fa5,0(a5)
    2c3c:	0d2d                	addi	s10,s10,11
    2c3e:	40ce                	lw	ra,208(sp)
    2c40:	0f637b73          	csrrc	s6,0xf6,6
    2c44:	da26                	sw	s1,52(sp)
    2c46:	3a007cc7          	fmsub.d	fs9,ft0,ft0,ft7
    2c4a:	5730                	lw	a2,104(a4)
    2c4c:	7b35733f 610f3a28 	0x610f3a287b35733f
    2c54:	2d73d15b          	0x2d73d15b
    2c58:	9f7d                	0x9f7d
    2c5a:	5c0d472b          	custom1	a4,26,0,46
    2c5e:	505e                	0x505e
    2c60:	c854                	sw	a3,20(s0)
    2c62:	6c9d                	lui	s9,0x7
    2c64:	8e32                	mv	t3,a2
    2c66:	6cdf a0e2 4248      	0x4248a0e26cdf
    2c6c:	5be8                	lw	a0,116(a5)
    2c6e:	7c80                	ld	s0,56(s1)
    2c70:	9914                	0x9914
    2c72:	3095                	addiw	ra,ra,-27
    2c74:	d7c8                	sw	a0,44(a5)
    2c76:	74b2                	ld	s1,296(sp)
    2c78:	4885                	li	a7,1
    2c7a:	40cd                	li	ra,19
    2c7c:	3491fb3f 73f00760 	0x73f007603491fb3f
    2c84:	9932                	add	s2,s2,a2
    2c86:	62bc                	ld	a5,64(a3)
    2c88:	1f8b77b7          	lui	a5,0x1f8b7
    2c8c:	082b2a17          	auipc	s4,0x82b2
    2c90:	5071                	0x5071
    2c92:	55cb1f23          	sh	t3,1374(s6) # ffffffffffff555e <_gp+0xfffffffffffef906>
    2c96:	19a67017          	auipc	zero,0x19a67
    2c9a:	3280                	fld	fs0,32(a3)
    2c9c:	29b6                	fld	fs3,328(sp)
    2c9e:	32c4                	fld	fs1,160(a3)
    2ca0:	99ac                	0x99ac
    2ca2:	50ad372b          	custom1	14,s10,a0,40
    2ca6:	5af33dd7          	0x5af33dd7
    2caa:	1b82                	slli	s7,s7,0x20
    2cac:	2e64                	fld	fs1,216(a2)
    2cae:	4f6e                	lw	t5,216(sp)
    2cb0:	1c49                	addi	s8,s8,-14
    2cb2:	1f54                	addi	a3,sp,948
    2cb4:	52d6793b          	0x52d6793b
    2cb8:	8fd1                	or	a5,a5,a2
    2cba:	433a                	lw	t1,140(sp)
    2cbc:	1b49                	addi	s6,s6,-14
    2cbe:	4775                	li	a4,29
    2cc0:	3085                	addiw	ra,ra,-31
    2cc2:	3339                	addiw	t1,t1,-18
    2cc4:	4eda                	lw	t4,148(sp)
    2cc6:	2a21                	addiw	s4,s4,8
    2cc8:	12d6                	slli	t0,t0,0x35
    2cca:	1629                	addi	a2,a2,-22
    2ccc:	da71                	beqz	a2,2ca0 <input_data+0x1848>
    2cce:	08ad                	addi	a7,a7,11
    2cd0:	9280                	0x9280
    2cd2:	270d                	addiw	a4,a4,3
    2cd4:	71490dbf 4f800661 	0x4f80066171490dbf
    2cdc:	41aaf2ef          	jal	t0,b20f6 <_gp+0xac49e>
    2ce0:	dab4                	sw	a3,112(a3)
    2ce2:	4c38                	lw	a4,88(s0)
    2ce4:	7c9296e3          	bne	t0,s1,3cb0 <verify_data+0x858>
    2ce8:	82a8                	0x82a8
    2cea:	1f1d4497          	auipc	s1,0x1f1d4
    2cee:	00c9                	addi	ra,ra,18
    2cf0:	c412                	sw	tp,8(sp)
    2cf2:	598a                	lw	s3,160(sp)
    2cf4:	a514                	fsd	fa3,8(a0)
    2cf6:	41be                	lw	gp,204(sp)
    2cf8:	5a5e                	lw	s4,244(sp)
    2cfa:	1472                	slli	s0,s0,0x3c
    2cfc:	c500                	sw	s0,8(a0)
    2cfe:	711f 79bb 601e      	0x601e79bb711f
    2d04:	0125                	addi	sp,sp,9
    2d06:	481f 3ffd 67c2      	0x67c23ffd481f
    2d0c:	52ca                	lw	t0,176(sp)
    2d0e:	61fd                	lui	gp,0x1f
    2d10:	c658                	sw	a4,12(a2)
    2d12:	3a42                	fld	fs4,48(sp)
    2d14:	8746                	mv	a4,a7
    2d16:	2ef5                	addiw	t4,t4,29
    2d18:	b5b6                	fsd	fa3,232(sp)
    2d1a:	09bc                	addi	a5,sp,216
    2d1c:	a17a                	fsd	ft10,128(sp)
    2d1e:	40d5                	li	ra,21
    2d20:	9f16                	add	t5,t5,t0
    2d22:	ef6e0bef          	jal	s7,fffffffffffe3418 <_gp+0xfffffffffffdd7c0>
    2d26:	64d4                	ld	a3,136(s1)
    2d28:	d1f1                	beqz	a1,2cec <input_data+0x1894>
    2d2a:	157e                	slli	a0,a0,0x3f
    2d2c:	9f9f 6a88 2442      	0x24426a889f9f
    2d32:	021f 6af4 3108      	0x31086af4021f
    2d38:	8282                	jr	t0
    2d3a:	6d54                	ld	a3,152(a0)
    2d3c:	a63a                	fsd	fa4,264(sp)
    2d3e:	51c9                	li	gp,-14
    2d40:	d17c                	sw	a5,100(a0)
    2d42:	493e3f67          	0x493e3f67
    2d46:	3a06                	fld	fs4,96(sp)
    2d48:	2998986b          	0x2998986b
    2d4c:	f9c1                	bnez	a1,2cdc <input_data+0x1884>
    2d4e:	379b0953          	0x379b0953
    2d52:	f5910a17          	auipc	s4,0xf5910
    2d56:	0ac2                	slli	s5,s5,0x10
    2d58:	8648                	0x8648
    2d5a:	06ad                	addi	a3,a3,11
    2d5c:	079f193f 0e683a1d 	0xe683a1d079f193f
    2d64:	c005                	beqz	s0,2d84 <input_data+0x192c>
    2d66:	777c                	ld	a5,232(a4)
    2d68:	01635b5b          	0x1635b5b
    2d6c:	770d9d97          	auipc	s11,0x770d9
    2d70:	6a49                	lui	s4,0x12
    2d72:	2be5                	addiw	s7,s7,25
    2d74:	039c                	addi	a5,sp,448
    2d76:	766e                	ld	a2,248(sp)
    2d78:	2534                	fld	fa3,72(a0)
    2d7a:	5d9e                	lw	s11,228(sp)
    2d7c:	8ae9                	andi	a3,a3,26
    2d7e:	b9e37b3b          	0xb9e37b3b
    2d82:	5b6b5737          	lui	a4,0x5b6b5
    2d86:	08da                	slli	a7,a7,0x16
    2d88:	81fd                	srli	a1,a1,0x1f
    2d8a:	24d8                	fld	fa4,136(s1)
    2d8c:	160e                	slli	a2,a2,0x23
    2d8e:	663d                	lui	a2,0xf
    2d90:	7b2b5f8b          	0x7b2b5f8b
    2d94:	b8ee                	fsd	fs11,112(sp)
    2d96:	7e44                	ld	s1,184(a2)
    2d98:	cd60                	sw	s0,92(a0)
    2d9a:	0bd0                	addi	a2,sp,468
    2d9c:	003e                	0x3e
    2d9e:	6d6d                	lui	s10,0x1b
    2da0:	503866b3          	0x503866b3
    2da4:	4d82                	lw	s11,0(sp)
    2da6:	f2147167          	0xf2147167
    2daa:	cad274eb          	0xcad274eb
    2dae:	4cf9                	li	s9,30
    2db0:	4efa053b          	0x4efa053b
    2db4:	58ee                	lw	a7,248(sp)
    2db6:	8a0b31e3          	0x8a0b31e3
    2dba:	25246e3f 70ab1dd3 	0x70ab1dd325246e3f
    2dc2:	0f155f57          	0xf155f57
    2dc6:	65ae                	ld	a1,200(sp)
    2dc8:	9731                	srai	a4,a4,0x2c
    2dca:	5f65                	li	t5,-7
    2dcc:	1692                	slli	a3,a3,0x24
    2dce:	170d                	addi	a4,a4,-29
    2dd0:	8d0c                	0x8d0c
    2dd2:	3d52                	fld	fs10,304(sp)
    2dd4:	e6d2                	sd	s4,328(sp)
    2dd6:	6320                	ld	s0,64(a4)
    2dd8:	4ed6bee3          	0x4ed6bee3
    2ddc:	86a0                	0x86a0
    2dde:	5864                	lw	s1,116(s0)
    2de0:	411c6f63          	bltu	s8,a7,31fe <input_data+0x1da6>
    2de4:	c3dd                	beqz	a5,2e8a <input_data+0x1a32>
    2de6:	6366                	ld	t1,88(sp)
    2de8:	91ec                	0x91ec
    2dea:	752c                	ld	a1,104(a0)
    2dec:	e53c                	sd	a5,72(a0)
    2dee:	3f68                	fld	fa0,248(a4)
    2df0:	67d54dcb          	0x67d54dcb
    2df4:	8de8                	0x8de8
    2df6:	11e4                	addi	s1,sp,236
    2df8:	0b3d                	addi	s6,s6,15
    2dfa:	24fc                	fld	fa5,200(s1)
    2dfc:	d51d                	beqz	a0,2d2a <input_data+0x18d2>
    2dfe:	1e08                	addi	a0,sp,816
    2e00:	172d                	addi	a4,a4,-21
    2e02:	7cdd                	lui	s9,0xffff7
    2e04:	3752e6c7          	0x3752e6c7
    2e08:	0f29                	addi	t5,t5,10
    2e0a:	1091                	addi	ra,ra,-28
    2e0c:	da45                	beqz	a2,2dbc <input_data+0x1964>
    2e0e:	8c9f63fb          	custom3	t2,t5,9,70
    2e12:	d1cb4a73          	0xd1cb4a73
    2e16:	55582fa7          	fsw	fs5,1375(a6) # 6fc0314b <_gp+0x6fbfd4f3>
    2e1a:	4656                	lw	a2,84(sp)
    2e1c:	02e12ea7          	fsw	fa4,61(sp) # 4f73003d <_gp+0x4f72a3e5>
    2e20:	6f3a5657          	0x6f3a5657
    2e24:	53ca3e2f          	0x53ca3e2f
    2e28:	c751                	beqz	a4,2eb4 <input_data+0x1a5c>
    2e2a:	7dc1                	lui	s11,0xffff0
    2e2c:	fee2                	sd	s8,376(sp)
    2e2e:	2e4b5f0b          	0x2e4b5f0b
    2e32:	2299                	addiw	t0,t0,6
    2e34:	86aa                	mv	a3,a0
    2e36:	6876                	ld	a6,344(sp)
    2e38:	fda0                	sd	s0,120(a1)
    2e3a:	712a4fd3          	0x712a4fd3
    2e3e:	da6636f7          	0xda6636f7
    2e42:	182653ab          	0x182653ab
    2e46:	11da                	slli	gp,gp,0x36
    2e48:	259f 503a f848      	0xf848503a259f
    2e4e:	4d60                	lw	s0,92(a0)
    2e50:	5068                	lw	a0,100(s0)
    2e52:	91897ee3          	bleu	s8,s2,276e <input_data+0x1316>
    2e56:	285d                	addiw	a6,a6,23
    2e58:	318c39e7          	0x318c39e7
    2e5c:	94b8                	0x94b8
    2e5e:	2c2d                	addiw	s8,s8,11
    2e60:	297efd5b          	custom2	s10,t4,s7,20
    2e64:	ceae                	sw	a1,92(sp)
    2e66:	175271f7          	0x175271f7
    2e6a:	3c96                	fld	fs9,352(sp)
    2e6c:	c5f0                	sw	a2,76(a1)
    2e6e:	28a6                	fld	fa7,72(sp)
    2e70:	caae                	sw	a1,84(sp)
    2e72:	1518                	addi	a4,sp,672
    2e74:	7078                	ld	a4,224(s0)
    2e76:	2159                	addiw	sp,sp,22
    2e78:	98ac                	0x98ac
    2e7a:	1eb8                	addi	a4,sp,888
    2e7c:	0dc0                	addi	s0,sp,724
    2e7e:	6e66                	ld	t3,88(sp)
    2e80:	184e1aef          	jal	s5,e4004 <_gp+0xde3ac>
    2e84:	93fd                	srli	a5,a5,0x3f
    2e86:	82f53067          	0x82f53067
    2e8a:	6ed8                	ld	a4,152(a3)
    2e8c:	07d4                	addi	a3,sp,964
    2e8e:	4192                	lw	gp,4(sp)
    2e90:	9829                	andi	s0,s0,-22
    2e92:	1db9                	addi	s11,s11,-18
    2e94:	8add                	andi	a3,a3,23
    2e96:	26f5                	addiw	a3,a3,29
    2e98:	ac55                	j	314c <input_data+0x1cf4>
    2e9a:	37572da3          	sw	s5,891(a4) # 5b6b537b <_gp+0x5b6af723>
    2e9e:	08fe                	slli	a7,a7,0x1f
    2ea0:	4dd8                	lw	a4,28(a1)
    2ea2:	1395                	addi	t2,t2,-27
    2ea4:	86b6                	mv	a3,a3
    2ea6:	0498                	addi	a4,sp,576
    2ea8:	679c                	ld	a5,8(a5)
    2eaa:	69d1                	lui	s3,0x14
    2eac:	ccb2                	sw	a2,88(sp)
    2eae:	6d6e                	ld	s10,216(sp)
    2eb0:	2885                	addiw	a7,a7,1
    2eb2:	2a1a                	fld	fs4,384(sp)
    2eb4:	49b0                	lw	a2,80(a1)
    2eb6:	49ed                	li	s3,27
    2eb8:	de75                	beqz	a2,2eb4 <input_data+0x1a5c>
    2eba:	3209                	addiw	tp,tp,-30
    2ebc:	c572                	sw	t3,136(sp)
    2ebe:	95023ed3          	0x95023ed3
    2ec2:	6ca9                	lui	s9,0xa
    2ec4:	29d70e33          	0x29d70e33
    2ec8:	a428                	fsd	fa0,72(s0)
    2eca:	04f0                	addi	a2,sp,588
    2ecc:	e848                	sd	a0,144(s0)
    2ece:	26e2                	fld	fa3,24(sp)
    2ed0:	9944                	0x9944
    2ed2:	339f f7b8 373f      	0x373ff7b8339f
    2ed8:	6b08                	ld	a0,16(a4)
    2eda:	4f09                	li	t5,2
    2edc:	3f29                	addiw	t5,t5,-22
    2ede:	682e                	ld	a6,200(sp)
    2ee0:	60d8                	ld	a4,128(s1)
    2ee2:	7ebd45f7          	0x7ebd45f7
    2ee6:	5ad6                	lw	s5,116(sp)
    2ee8:	6680                	ld	s0,8(a3)
    2eea:	1a72                	slli	s4,s4,0x3c
    2eec:	d196                	sw	t0,224(sp)
    2eee:	31cc                	fld	fa1,160(a1)
    2ef0:	d704                	sw	s1,40(a4)
    2ef2:	0051                	0x51
    2ef4:	69d2                	ld	s3,272(sp)
    2ef6:	7b48                	ld	a0,176(a4)
    2ef8:	83b4                	0x83b4
    2efa:	645e                	ld	s0,464(sp)
    2efc:	80f5                	srli	s1,s1,0x1d
    2efe:	7c05                	lui	s8,0xfffe1
    2f00:	887a                	mv	a6,t5
    2f02:	720d                	lui	tp,0xfffe3
    2f04:	05d1                	addi	a1,a1,20
    2f06:	42d638b3          	0x42d638b3
    2f0a:	6872                	ld	a6,280(sp)
    2f0c:	091f 0648 a6bb      	0xa6bb0648091f
    2f12:	6a98                	ld	a4,16(a3)
    2f14:	6f2a                	ld	t5,136(sp)
    2f16:	6a89                	lui	s5,0x2
    2f18:	9b08                	0x9b08
    2f1a:	5548                	lw	a0,44(a0)
    2f1c:	46f4                	lw	a3,76(a3)
    2f1e:	203e                	fld	ft0,456(sp)
    2f20:	3499a707          	flw	fa4,841(s3) # 14349 <_gp+0xe6f1>
    2f24:	de5d                	beqz	a2,2ee2 <input_data+0x1a8a>
    2f26:	292c                	fld	fa1,80(a0)
    2f28:	f2ea                	sd	s10,352(sp)
    2f2a:	0c11                	addi	s8,s8,4
    2f2c:	5f000727          	0x5f000727
    2f30:	96fd                	srai	a3,a3,0x3f
    2f32:	1f98                	addi	a4,sp,1008
    2f34:	0981                	addi	s3,s3,0
    2f36:	1700                	addi	s0,sp,928
    2f38:	3615d7bf 1695bf1f 	0x1695bf1f3615d7bf
    2f40:	1b1ae0d3          	fdiv.d	ft1,fs5,fa7,unknown
    2f44:	cd00                	sw	s0,24(a0)
    2f46:	0efd                	addi	t4,t4,31
    2f48:	5680bd3f 431ab1f5 	0x431ab1f55680bd3f
    2f50:	d932                	sw	a2,176(sp)
    2f52:	0144                	addi	s1,sp,132
    2f54:	6d64                	ld	s1,216(a0)
    2f56:	61ec                	ld	a1,192(a1)
    2f58:	2ff1affb          	custom3	31,gp,31,23
    2f5c:	2399                	addiw	t2,t2,6
    2f5e:	7a15                	lui	s4,0xfffe5
    2f60:	10ae                	slli	ra,ra,0x2b
    2f62:	36b0                	fld	fa2,104(a3)
    2f64:	e44c                	sd	a1,136(s0)
    2f66:	5a49                	li	s4,-14
    2f68:	8469                	srai	s0,s0,0x1a
    2f6a:	0850                	addi	a2,sp,20
    2f6c:	5c12                	lw	s8,36(sp)
    2f6e:	02e24423          	0x2e24423
    2f72:	ca7a06db          	custom2	13,20,7,101
    2f76:	6722                	ld	a4,8(sp)
    2f78:	6133ac8b          	custom0	25,t2,19,48
    2f7c:	03065ce3          	ble	a6,a2,37b4 <verify_data+0x35c>
    2f80:	5d24                	lw	s1,120(a0)
    2f82:	6806                	ld	a6,64(sp)
    2f84:	4e4c9107          	0x4e4c9107
    2f88:	7e40                	ld	s0,184(a2)
    2f8a:	4025                	0x4025
    2f8c:	4a88                	lw	a0,16(a3)
    2f8e:	6c7f                	0x6c7f
    2f90:	b6ea                	fsd	fs10,360(sp)
    2f92:	381d                	addiw	a6,a6,-25
    2f94:	3014dbb7          	lui	s7,0x3014d
    2f98:	2b0b5427          	0x2b0b5427
    2f9c:	ac1f 6d82 35ba      	0x35ba6d82ac1f
    2fa2:	2a0d                	addiw	s4,s4,3
    2fa4:	ee66                	sd	s9,280(sp)
    2fa6:	7c82                	ld	s9,32(sp)
    2fa8:	932c                	0x932c
    2faa:	1e6d                	addi	t3,t3,-5
    2fac:	c325                	beqz	a4,300c <input_data+0x1bb4>
    2fae:	0314                	addi	a3,sp,384
    2fb0:	36c6                	fld	fa3,112(sp)
    2fb2:	3fa13543          	0x3fa13543
    2fb6:	51e5                	li	gp,-7
    2fb8:	3eb0                	fld	fa2,120(a3)
    2fba:	3c06                	fld	fs8,96(sp)
    2fbc:	5d55                	li	s10,-11
    2fbe:	28d4                	fld	fa3,144(s1)
    2fc0:	57b4b82b          	custom1	16,s1,s11,43
    2fc4:	6251                	lui	tp,0x14
    2fc6:	5cb4                	lw	a3,120(s1)
    2fc8:	6559                	lui	a0,0x16
    2fca:	486c                	lw	a1,84(s0)
    2fcc:	a2b4                	fsd	fa3,64(a3)
    2fce:	54ed                	li	s1,-5
    2fd0:	272cdbc7          	0x272cdbc7
    2fd4:	9892                	add	a7,a7,tp
    2fd6:	52f5                	li	t0,-3
    2fd8:	398d5073          	csrwi	0x398,26
    2fdc:	240481ab          	custom1	3,9,0,18
    2fe0:	7db2                	ld	s11,296(sp)
    2fe2:	81a24c9b          	0x81a24c9b
    2fe6:	145a                	slli	s0,s0,0x36
    2fe8:	0002                	0x2
    2fea:	1189                	addi	gp,gp,-30
    2fec:	7b4a                	ld	s6,176(sp)
    2fee:	25be                	fld	fa1,456(sp)
    2ff0:	711c785b          	custom2	a6,s8,a7,56
    2ff4:	74f4                	ld	a3,232(s1)
    2ff6:	7180                	ld	s0,32(a1)
    2ff8:	1d65                	addi	s10,s10,-7
    2ffa:	3116                	fld	ft2,352(sp)
    2ffc:	b1aa                	fsd	fa0,224(sp)
    2ffe:	5e0d                	li	t3,-29
    3000:	d041                	beqz	s0,2f80 <input_data+0x1b28>
    3002:	7830                	ld	a2,112(s0)
    3004:	3c64                	fld	fs1,248(s0)
    3006:	6f09                	lui	t5,0x2
    3008:	226a2ea7          	fsw	ft6,573(s4) # fffffffffffe523d <_gp+0xfffffffffffdf5e5>
    300c:	3a76                	fld	fs4,376(sp)
    300e:	a14b3c5b          	custom2	24,s6,s4,80
    3012:	0ebc                	addi	a5,sp,856
    3014:	ff86                	sd	ra,504(sp)
    3016:	746525ef          	jal	a1,5575c <_gp+0x4fb04>
    301a:	7465                	lui	s0,0xffff9
    301c:	d780                	sw	s0,40(a5)
    301e:	564c                	lw	a1,44(a2)
    3020:	47c4                	lw	s1,12(a5)
    3022:	0670                	addi	a2,sp,780
    3024:	3c985217          	auipc	tp,0x3c985
    3028:	7a0e7c57          	0x7a0e7c57
    302c:	578e                	lw	a5,224(sp)
    302e:	3842                	fld	fa6,48(sp)
    3030:	def5                	beqz	a3,302c <input_data+0x1bd4>
    3032:	2ef0                	fld	fa2,216(a3)
    3034:	7796                	ld	a5,352(sp)
    3036:	00c2                	slli	ra,ra,0x10
    3038:	127e                	slli	tp,tp,0x3f
    303a:	32e0                	fld	fs0,224(a3)
    303c:	0138                	addi	a4,sp,136
    303e:	13e9                	addi	t2,t2,-6
    3040:	cf61                	beqz	a4,3118 <input_data+0x1cc0>
    3042:	0dea20fb          	custom3	1,s4,30,6
    3046:	daea40ef          	jal	fffffffffffa75f4 <_gp+0xfffffffffffa199c>
    304a:	1dac                	addi	a1,sp,760
    304c:	89e9                	andi	a1,a1,26
    304e:	c6977987          	0xc6977987
    3052:	5582                	lw	a1,32(sp)
    3054:	4ced7143          	0x4ced7143
    3058:	7e24                	ld	s1,120(a2)
    305a:	0486                	slli	s1,s1,0x1
    305c:	390b3b03          	ld	s6,912(s6)
    3060:	7ef912b7          	lui	t0,0x7ef91
    3064:	4b00                	lw	s0,16(a4)
    3066:	f23d1c73          	csrrw	s8,0xf23,s10
    306a:	38ca                	fld	fa7,176(sp)
    306c:	071f 6487 fb86      	0xfb866487071f
    3072:	1b60                	addi	s0,sp,444
    3074:	ddc4                	sw	s1,60(a1)
    3076:	2cd0                	fld	fa2,152(s1)
    3078:	0a74                	addi	a3,sp,284
    307a:	31d9                	addiw	gp,gp,-10
    307c:	7171                	addi	sp,sp,-176
    307e:	78df 5324 01b7      	0x1b7532478df
    3084:	c0ac                	sw	a1,64(s1)
    3086:	133c                	addi	a5,sp,424
    3088:	177e                	slli	a4,a4,0x3f
    308a:	4f96                	lw	t6,68(sp)
    308c:	2eea494b          	0x2eea494b
    3090:	1870                	addi	a2,sp,60
    3092:	06c5                	addi	a3,a3,17
    3094:	db9c                	sw	a5,48(a5)
    3096:	38ea                	fld	fa7,184(sp)
    3098:	0276                	slli	tp,tp,0x1d
    309a:	4e81                	li	t4,0
    309c:	5bb8                	lw	a4,112(a5)
    309e:	a4f94d77          	0xa4f94d77
    30a2:	77c2                	ld	a5,48(sp)
    30a4:	5c4d96b3          	0x5c4d96b3
    30a8:	ec61                	bnez	s0,3180 <input_data+0x1d28>
    30aa:	5d497a2b          	custom1	s4,s2,s4,46
    30ae:	809e2ba7          	fsw	fs1,-2025(t3) # 3817 <verify_data+0x3bf>
    30b2:	6a35                	lui	s4,0xd
    30b4:	4ee1                	li	t4,24
    30b6:	7c9d                	lui	s9,0xfffe7
    30b8:	fc5c                	sd	a5,184(s0)
    30ba:	6dec3b3b          	0x6dec3b3b
    30be:	74c8                	ld	a0,168(s1)
    30c0:	94c6                	add	s1,s1,a7
    30c2:	4fa9                	li	t6,10
    30c4:	4190                	lw	a2,0(a1)
    30c6:	2931                	addiw	s2,s2,12
    30c8:	a664                	fsd	fs1,200(a2)
    30ca:	681f b8f7 37c3      	0x37c3b8f7681f
    30d0:	1936                	slli	s2,s2,0x2d
    30d2:	42f8                	lw	a4,68(a3)
    30d4:	417f                	0x417f
    30d6:	0676                	slli	a2,a2,0x1d
    30d8:	54c2                	lw	s1,48(sp)
    30da:	5626                	lw	a2,104(sp)
    30dc:	d345                	beqz	a4,307c <input_data+0x1c24>
    30de:	0a1d                	addi	s4,s4,7
    30e0:	075a3493          	sltiu	s1,s4,117
    30e4:	6182a6ab          	custom1	13,t0,24,48
    30e8:	fe11                	bnez	a2,3004 <input_data+0x1bac>
    30ea:	2828                	fld	fa0,80(s0)
    30ec:	79c39977          	0x79c39977
    30f0:	2d2aea73          	csrrs	s4,0x2d2,21
    30f4:	0b6e                	slli	s6,s6,0x1b
    30f6:	1e8c                	addi	a1,sp,880
    30f8:	d1ee                	sw	s11,224(sp)
    30fa:	0721                	addi	a4,a4,8
    30fc:	705c                	ld	a5,160(s0)
    30fe:	91200377          	0x91200377
    3102:	88a17c9b          	0x88a17c9b
    3106:	1cfa                	slli	s9,s9,0x3e
    3108:	c63a                	sw	a4,12(sp)
    310a:	6089                	lui	ra,0x2
    310c:	19cee96b          	0x19cee96b
    3110:	a8ed                	j	320a <input_data+0x1db2>
    3112:	42fc3557          	0x42fc3557
    3116:	169e                	slli	a3,a3,0x27
    3118:	6f0e                	ld	t5,192(sp)
    311a:	70b5                	lui	ra,0xfffed
    311c:	ed6c                	sd	a1,216(a0)
    311e:	706e                	0x706e
    3120:	8f2e                	mv	t5,a1
    3122:	6ec8                	ld	a0,152(a3)
    3124:	3b7f                	0x3b7f
    3126:	2b3c39c7          	fmsub.d	fs3,fs8,fs3,ft5,rup
    312a:	af374957          	0xaf374957
    312e:	70b4                	ld	a3,96(s1)
    3130:	26d6                	fld	fa3,336(sp)
    3132:	750914f7          	0x750914f7
    3136:	0ccc                	addi	a1,sp,596
    3138:	4f7e                	lw	t5,220(sp)
    313a:	c8955c63          	ble	s1,a0,25d2 <input_data+0x117a>
    313e:	30b0125b          	0x30b0125b
    3142:	0191                	addi	gp,gp,4
    3144:	040ea107          	flw	ft2,64(t4) # ffffffffffffb040 <_gp+0xffffffffffff53e8>
    3148:	9a3e                	add	s4,s4,a5
    314a:	03435273          	csrrw	tp,0x34,6
    314e:	6816                	ld	a6,320(sp)
    3150:	ad38                	fsd	fa4,88(a0)
    3152:	40f9                	li	ra,30
    3154:	a545                	j	37f4 <verify_data+0x39c>
    3156:	da0162d3          	0xda0162d3
    315a:	7c11                	lui	s8,0xfffe4
    315c:	7015                	0x7015
    315e:	4216438f          	0x4216438f
    3162:	6ce86427          	0x6ce86427
    3166:	50713e9b          	0x50713e9b
    316a:	6ba6                	ld	s7,72(sp)
    316c:	8e36                	mv	t3,a3
    316e:	6621                	lui	a2,0x8
    3170:	3d39                	addiw	s10,s10,-18
    3172:	1f09                	addi	t5,t5,-30
    3174:	9675                	srai	a2,a2,0x3d
    3176:	fc0518e3          	bnez	a0,3146 <input_data+0x1cee>
    317a:	50c4                	lw	s1,36(s1)
    317c:	648d                	lui	s1,0x3
    317e:	25a2                	fld	fa1,8(sp)
    3180:	6f8c                	ld	a1,24(a5)
    3182:	b10867db          	custom2	a5,a6,16,88
    3186:	7bd6                	ld	s7,368(sp)
    3188:	65dd924f          	0x65dd924f
    318c:	23688f3b          	0x23688f3b
    3190:	b958                	fsd	fa4,176(a0)
    3192:	37da                	fld	fa5,432(sp)
    3194:	2c3cdaab          	0x2c3cdaab
    3198:	94e1                	srai	s1,s1,0x38
    319a:	7184                	ld	s1,32(a1)
    319c:	6341                	lui	t1,0x10
    319e:	c23634eb          	0xc23634eb
    31a2:	b1bf4ccf          	fnmadd.s	fs9,ft10,fs11,fs6,rmm
    31a6:	194e                	slli	s2,s2,0x33
    31a8:	8add                	andi	a3,a3,23
    31aa:	5948                	lw	a0,52(a0)
    31ac:	31766a3f 5282f6af 	0x5282f6af31766a3f
    31b4:	ab91                	j	3708 <verify_data+0x2b0>
    31b6:	0ee8                	addi	a0,sp,860
    31b8:	0919                	addi	s2,s2,6
    31ba:	0bed                	addi	s7,s7,27
    31bc:	29599857          	0x29599857
    31c0:	8572                	mv	a0,t3
    31c2:	5b04                	lw	s1,48(a4)
    31c4:	0211                	addi	tp,tp,4
    31c6:	572c                	lw	a1,104(a4)
    31c8:	d2ea                	sw	s10,100(sp)
    31ca:	6495                	lui	s1,0x5
    31cc:	be30                	fsd	fa2,120(a2)
    31ce:	b63144f3          	0xb63144f3
    31d2:	0e64                	addi	s1,sp,796
    31d4:	8a9e                	mv	s5,t2
    31d6:	fd9646fb          	custom3	a3,12,25,126
    31da:	4a86                	lw	s5,64(sp)
    31dc:	d916                	sw	t0,176(sp)
    31de:	7b0a                	ld	s6,160(sp)
    31e0:	9418                	0x9418
    31e2:	01a4                	addi	s1,sp,200
    31e4:	e7fa                	sd	t5,456(sp)
    31e6:	7015                	0x7015
    31e8:	a050                	fsd	fa2,128(s0)
    31ea:	03407643          	fmadd.d	fa2,ft0,fs4,ft0
    31ee:	063e                	slli	a2,a2,0xf
    31f0:	85ea                	mv	a1,s10
    31f2:	4eec                	lw	a1,92(a3)
    31f4:	a95e                	fsd	fs7,144(sp)
    31f6:	3aef40f3          	0x3aef40f3
    31fa:	e62853a3          	0xe62853a3
    31fe:	7316                	ld	t1,352(sp)
    3200:	2e160dbb          	0x2e160dbb
    3204:	452708a7          	0x452708a7
    3208:	9d30                	0x9d30
    320a:	218e                	fld	ft3,192(sp)
    320c:	b11e                	fsd	ft7,160(sp)
    320e:	3f7c                	fld	fa5,248(a4)
    3210:	8a44                	0x8a44
    3212:	19ad1def          	jal	s11,d43ac <_gp+0xce754>
    3216:	61e4                	ld	s1,192(a1)
    3218:	b8a4                	fsd	fs1,112(s1)
    321a:	b5d94e17          	auipc	t3,0xb5d94
    321e:	6728                	ld	a0,72(a4)
    3220:	73e6                	ld	t2,120(sp)
    3222:	57f4                	lw	a3,108(a5)
    3224:	5cb5                	li	s9,-19
    3226:	673824b3          	0x673824b3
    322a:	452c                	lw	a1,72(a0)
    322c:	375ced43          	0x375ced43
    3230:	2f3e                	fld	ft10,456(sp)
    3232:	0f22                	slli	t5,t5,0x8
    3234:	c5fc                	sw	a5,76(a1)
    3236:	6b3d                	lui	s6,0xf
    3238:	d05f 47da c656      	0xc65647dad05f
    323e:	189e                	slli	a7,a7,0x27
    3240:	2f60                	fld	fs0,216(a4)
    3242:	5eb9                	li	t4,-18
    3244:	69c06c73          	csrrs	s8,0x69c,0
    3248:	b6de                	fsd	fs7,360(sp)
    324a:	029e                	slli	t0,t0,0x7
    324c:	63bcc123          	0x63bcc123
    3250:	c1b4                	sw	a3,64(a1)
    3252:	318b28bb          	0x318b28bb
    3256:	99334b27          	0x99334b27
    325a:	7d19                	lui	s10,0xfffe6
    325c:	2e0b77ef          	jal	a5,ba53c <_gp+0xb48e4>
    3260:	49777d6b          	0x49777d6b
    3264:	d426                	sw	s1,40(sp)
    3266:	2d30                	fld	fa2,88(a0)
    3268:	318c2ea3          	sw	s8,797(s8) # fffffffffffe431d <_gp+0xfffffffffffde6c5>
    326c:	5faed877          	0x5faed877
    3270:	f09c                	sd	a5,32(s1)
    3272:	00ad62fb          	custom3	t0,s10,10,0
    3276:	0174                	addi	a3,sp,140
    3278:	6adf 5506 6f54      	0x6f5455066adf
    327e:	600e                	0x600e
    3280:	c4ff                	0xc4ff
    3282:	40b0                	lw	a2,64(s1)
    3284:	1040                	addi	s0,sp,36
    3286:	00c4                	addi	s1,sp,68
    3288:	d252                	sw	s4,36(sp)
    328a:	c77a1b2b          	0xc77a1b2b
    328e:	345f 3644 71e7      	0x71e73644345f
    3294:	4906                	lw	s2,64(sp)
    3296:	526d                	li	tp,-5
    3298:	8909                	andi	a0,a0,2
    329a:	743c                	ld	a5,104(s0)
    329c:	ffda                	sd	s6,504(sp)
    329e:	389f 5411 35e6      	0x35e65411389f
    32a4:	91a6                	add	gp,gp,s1
    32a6:	26402f2b          	custom1	30,zero,4,19
    32aa:	5e70                	lw	a2,124(a2)
    32ac:	d928                	sw	a0,112(a0)
    32ae:	0c85                	addi	s9,s9,1
    32b0:	422f2997          	auipc	s3,0x422f2
    32b4:	a9d0                	fsd	fa2,144(a1)
    32b6:	f68615bb          	0xf68615bb
    32ba:	0335                	addi	t1,t1,13
    32bc:	9db6                	add	s11,s11,a3
    32be:	84d02e07          	flw	ft8,-1971(zero) # 19a694e3 <_gp+0x19a6388b>
    32c2:	1c2d                	addi	s8,s8,-21
    32c4:	19f2                	slli	s3,s3,0x3c
    32c6:	4396                	lw	t2,68(sp)
    32c8:	663ef68b          	custom0	a3,t4,gp,51
    32cc:	657f                	0x657f
    32ce:	5624                	lw	s1,104(a2)
    32d0:	5bdbb757          	0x5bdbb757
    32d4:	2c11                	addiw	s8,s8,4
    32d6:	08e4                	addi	s1,sp,92
    32d8:	708e                	ld	ra,224(sp)
    32da:	39f0                	fld	fa2,240(a1)
    32dc:	5840                	lw	s0,52(s0)
    32de:	70d6                	ld	ra,368(sp)
    32e0:	58ab4ae3          	blt	s6,a0,4074 <verify_data+0xc1c>
    32e4:	5fae                	lw	t6,232(sp)
    32e6:	2632                	fld	fa2,264(sp)
    32e8:	c65d                	beqz	a2,3396 <input_data+0x1f3e>
    32ea:	57a2                	lw	a5,40(sp)
    32ec:	afc1                	j	3abc <verify_data+0x664>
    32ee:	4361268b          	custom0	13,sp,22,33
    32f2:	3aea                	fld	fs5,184(sp)
    32f4:	eae5                	bnez	a3,33e4 <input_data+0x1f8c>
    32f6:	29e8                	fld	fa0,208(a1)
    32f8:	9209                	srli	a2,a2,0x22
    32fa:	687e                	ld	a6,472(sp)
    32fc:	5c32                	lw	s8,44(sp)
    32fe:	765e                	ld	a2,496(sp)
    3300:	28ae                	fld	fa7,200(sp)
    3302:	297c                	fld	fa5,208(a0)
    3304:	fa95                	bnez	a3,3238 <input_data+0x1de0>
    3306:	6a49                	lui	s4,0x12
    3308:	e729                	bnez	a4,3352 <input_data+0x1efa>
    330a:	4e82                	lw	t4,0(sp)
    330c:	4cb0                	lw	a2,88(s1)
    330e:	689e                	ld	a7,448(sp)
    3310:	b1ee                	fsd	fs11,224(sp)
    3312:	83ba1fb7          	lui	t6,0x83ba1
    3316:	3fbe                	fld	ft11,488(sp)
    3318:	0ee21ec7          	0xee21ec7
    331c:	1f407de7          	0x1f407de7
    3320:	8c8c                	0x8c8c
    3322:	2d2d                	addiw	s10,s10,11
    3324:	97d6                	add	a5,a5,s5
    3326:	7db5                	lui	s11,0xfffed
    3328:	37ea                	fld	fa5,184(sp)
    332a:	10d0240f          	0x10d0240f
    332e:	7585                	lui	a1,0xfffe1
    3330:	58ce                	lw	a7,240(sp)
    3332:	5eaa                	lw	t4,168(sp)
    3334:	4e8e                	lw	t4,192(sp)
    3336:	76c05b67          	0x76c05b67
    333a:	252c                	fld	fa1,72(a0)
    333c:	53c8cb9b          	0x53c8cb9b
    3340:	748d9613          	0x748d9613
    3344:	7651                	lui	a2,0xffff4
    3346:	8c68408b          	custom0	ra,16,6,70
    334a:	52ac                	lw	a1,96(a3)
    334c:	86a9                	srai	a3,a3,0xa
    334e:	341a                	fld	fs0,416(sp)
    3350:	d8ac                	sw	a1,112(s1)
    3352:	5030                	lw	a2,96(s0)
    3354:	45a55e33          	0x45a55e33
    3358:	3159                	addiw	sp,sp,-10
    335a:	7782                	ld	a5,32(sp)
    335c:	27b1                	addiw	a5,a5,12
    335e:	43550df3          	0x43550df3
    3362:	1c36                	slli	s8,s8,0x2d
    3364:	2ad8                	fld	fa4,144(a3)
    3366:	2709                	addiw	a4,a4,2
    3368:	57cebc73          	csrrc	s8,0x57c,t4
    336c:	ed02                	sd	zero,152(sp)
    336e:	3b76                	fld	fs6,376(sp)
    3370:	2fcade4f          	0x2fcade4f
    3374:	7a54488b          	custom0	a7,8,5,61
    3378:	e0a1                	bnez	s1,33b8 <input_data+0x1f60>
    337a:	703e                	0x703e
    337c:	eae8                	sd	a0,208(a3)
    337e:	0b10                	addi	a2,sp,400
    3380:	52d9061b          	addiw	a2,s2,1325
    3384:	ac6e                	fsd	fs11,24(sp)
    3386:	66d9                	lui	a3,0x16
    3388:	5b28                	lw	a0,112(a4)
    338a:	34cd                	addiw	s1,s1,-13
    338c:	bd26                	fsd	fs1,184(sp)
    338e:	3925                	addiw	s2,s2,-23
    3390:	cbd4                	sw	a3,20(a5)
    3392:	7a70                	ld	a2,240(a2)
    3394:	b6cd                	j	2f76 <input_data+0x1b1e>
    3396:	fc8e039b          	addiw	t2,t3,-56
    339a:	5515                	li	a0,-27
    339c:	45288ea3          	sb	s2,1117(a7) # fffffffffffe245d <_gp+0xfffffffffffdc805>
    33a0:	c129                	beqz	a0,33e2 <input_data+0x1f8a>
    33a2:	a88b6cef          	jal	s9,fffffffffffb962a <_gp+0xfffffffffffb39d2>
    33a6:	53f8                	lw	a4,100(a5)
    33a8:	1629                	addi	a2,a2,-22
    33aa:	6460                	ld	s0,200(s0)
    33ac:	b922                	fsd	fs0,176(sp)
    33ae:	03ad                	addi	t2,t2,11
    33b0:	324f49f7          	0x324f49f7
    33b4:	bdbd                	j	3232 <input_data+0x1dda>
    33b6:	f6433c4b          	0xf6433c4b
    33ba:	5aad                	li	s5,-21
    33bc:	5f29                	li	t5,-22
    33be:	5e48                	lw	a0,60(a2)
    33c0:	2d7f                	0x2d7f
    33c2:	3618                	fld	fa4,40(a2)
    33c4:	1f55                	addi	t5,t5,-11
    33c6:	7894                	ld	a3,48(s1)
    33c8:	430fbce7          	0x430fbce7
    33cc:	8204                	0x8204
    33ce:	4e34                	lw	a3,88(a2)
    33d0:	c149                	beqz	a0,3452 <input_data+0x1ffa>
    33d2:	fdf6576b          	0xfdf6576b
    33d6:	734b39d3          	0x734b39d3
    33da:	04d2                	slli	s1,s1,0x14
    33dc:	35e2                	fld	fa1,56(sp)
    33de:	5625                	li	a2,-23
    33e0:	a794                	fsd	fa3,8(a5)
    33e2:	13fe                	slli	t2,t2,0x3f
    33e4:	47e8                	lw	a0,76(a5)
    33e6:	1e6d                	addi	t3,t3,-5
    33e8:	efda                	sd	s6,472(sp)
    33ea:	0588                	addi	a0,sp,704
    33ec:	b61d                	j	2f12 <input_data+0x1aba>
    33ee:	6226                	ld	tp,72(sp)
    33f0:	bb78                	fsd	fa4,240(a4)
    33f2:	6266                	ld	tp,88(sp)
    33f4:	5b668c23          	sb	s6,1464(a3) # 165b8 <_gp+0x10960>
    33f8:	b0dc                	fsd	fa5,160(s1)
    33fa:	0ffa                	slli	t6,t6,0x1e
    33fc:	347e3b97          	auipc	s7,0x347e3
    3400:	465d649b          	0x465d649b
    3404:	bc8d                	j	2e76 <input_data+0x1a1e>
    3406:	6f59                	lui	t5,0x16
    3408:	685d77c3          	fmadd.s	fa5,fs10,ft5,fa3
    340c:	9740                	0x9740
    340e:	17ed                	addi	a5,a5,-5
    3410:	2c8c                	fld	fa1,24(s1)
    3412:	2031                	0x2031
    3414:	a141                	j	3894 <verify_data+0x43c>
    3416:	0f163cf7          	0xf163cf7
    341a:	1b81                	addi	s7,s7,-32
    341c:	48deb2b3          	0x48deb2b3
    3420:	1b350fbf 05a5ef07 	0x5a5ef071b350fbf
    3428:	44f2                	lw	s1,28(sp)
    342a:	4961                	li	s2,24
    342c:	3900                	fld	fs0,48(a0)
    342e:	a4257fdb          	custom2	t6,a0,sp,82
    3432:	7329                	lui	t1,0xfffea
    3434:	12e0                	addi	s0,sp,364
    3436:	c44211eb          	0xc44211eb
    343a:	7a88                	ld	a0,48(a3)
    343c:	c985                	beqz	a1,346c <verify_data+0x14>
    343e:	3a76                	fld	fs4,376(sp)
    3440:	4e03cf67          	0x4e03cf67
    3444:	e4c1                	bnez	s1,34cc <verify_data+0x74>
    3446:	3c39                	addiw	s8,s8,-18
    3448:	167d                	addi	a2,a2,-1
    344a:	5370                	lw	a2,100(a4)
    344c:	36f5                	addiw	a3,a3,-3
    344e:	4896                	lw	a7,68(sp)
    3450:	66c0                	ld	s0,136(a3)
    3452:	37b6                	fld	fa5,360(sp)
    3454:	935e                	add	t1,t1,s7
    3456:	3460                	fld	fs0,232(s0)

0000000000003458 <verify_data>:
    3458:	000a8b27          	0xa8b27
    345c:	bef4                	fsd	fa3,248(a3)
    345e:	000d                	0xd
    3460:	83c4                	0x83c4
    3462:	0021                	0x21
    3464:	9b62                	add	s6,s6,s8
    3466:	0026                	0x26
    3468:	0030356f          	jal	a0,6c6a <_gp+0x1012>
    346c:	be92                	fsd	ft4,376(sp)
    346e:	0035                	0x35
    3470:	0039e5ef          	jal	a1,a1c72 <_gp+0x9c01a>
    3474:	82bc                	0x82bc
    3476:	003d                	0x3d
    3478:	02d6                	slli	t0,t0,0x15
    347a:	0051                	0x51
    347c:	d704                	sw	s1,40(a4)
    347e:	0051                	0x51
    3480:	00949033          	sll	zero,s1,s1
    3484:	1df9                	addi	s11,s11,-2
    3486:	779600af          	0x779600af
    348a:	00c2                	slli	ra,ra,0x10
    348c:	1040                	addi	s0,sp,36
    348e:	00c4                	addi	s1,sp,68
    3490:	00c56a53          	fadd.s	fs4,fa0,fa2,unknown
    3494:	1f1d                	addi	t5,t5,-25
    3496:	00c9                	addi	ra,ra,18
    3498:	00d3e7bb          	0xd3e7bb
    349c:	8b4c                	0x8b4c
    349e:	459500d7          	0x459500d7
    34a2:	00d9                	addi	ra,ra,22
    34a4:	6bd8                	ld	a4,144(a5)
    34a6:	00fa                	slli	ra,ra,0x1e
    34a8:	0125630f          	0x125630f
    34ac:	ffb9                	bnez	a5,340a <input_data+0x1fb2>
    34ae:	013a                	slli	sp,sp,0xe
    34b0:	d932                	sw	a2,176(sp)
    34b2:	0144                	addi	s1,sp,132
    34b4:	c7f5                	beqz	a5,35a0 <verify_data+0x148>
    34b6:	0151                	addi	sp,sp,20
    34b8:	54ee                	lw	s1,248(sp)
    34ba:	5b5b015b          	custom2	2,22,21,45
    34be:	00ad0163          	beq	s10,a0,34c0 <verify_data+0x68>
    34c2:	0174                	addi	a3,sp,140
    34c4:	fa95                	bnez	a3,33f8 <input_data+0x1fa0>
    34c6:	018a                	slli	gp,gp,0x2
    34c8:	30b0                	fld	fa2,96(s1)
    34ca:	0191                	addi	gp,gp,4
    34cc:	019736cb          	fnmsub.s	fa3,fa4,fs9,ft0,rup
    34d0:	befe                	fsd	ft11,376(sp)
    34d2:	01a1                	addi	gp,gp,8
    34d4:	9418                	0x9418
    34d6:	01a4                	addi	s1,sp,200
    34d8:	2a85                	addiw	s5,s5,1
    34da:	532401af          	0x532401af
    34de:	e9c701b7          	lui	gp,0xe9c70
    34e2:	01d8                	addi	a4,sp,196
    34e4:	01db5cd7          	0x1db5cd7
    34e8:	c8a5                	beqz	s1,3558 <verify_data+0x100>
    34ea:	01e1                	addi	gp,gp,24
    34ec:	2134                	fld	fa3,64(a0)
    34ee:	01e2                	slli	gp,gp,0x18
    34f0:	2442                	fld	fs0,16(sp)
    34f2:	021f 2b34 0223      	0x2232b34021f
    34f8:	d6fc                	sw	a5,108(a3)
    34fa:	0234                	addi	a3,sp,264
    34fc:	bdad                	j	3376 <input_data+0x1f1e>
    34fe:	0236                	slli	tp,tp,0xd
    3500:	4c36                	lw	s8,76(sp)
    3502:	024d                	addi	tp,tp,19
    3504:	8266                	mv	tp,s9
    3506:	027c                	addi	a5,sp,268
    3508:	31ca                	fld	ft3,176(sp)
    350a:	0281                	addi	t0,t0,0
    350c:	b6de                	fsd	fs7,360(sp)
    350e:	029e                	slli	t0,t0,0x7
    3510:	b6a6                	fsd	fs1,360(sp)
    3512:	02cd                	addi	t0,t0,19
    3514:	127d                	addi	tp,tp,-1
    3516:	02d4                	addi	a3,sp,324
    3518:	3e02                	fld	ft8,32(sp)
    351a:	02d4                	addi	a3,sp,324
    351c:	02e12ea7          	fsw	fa4,61(sp)
    3520:	4258                	lw	a4,4(a2)
    3522:	02e8                	addi	a0,sp,332
    3524:	03065ce3          	ble	a6,a2,3d5c <verify_data+0x904>
    3528:	b802                	fsd	ft0,48(sp)
    352a:	0309                	addi	t1,t1,2
    352c:	c325                	beqz	a4,358c <verify_data+0x134>
    352e:	0314                	addi	a3,sp,384
    3530:	f686                	sd	ra,360(sp)
    3532:	0335                	addi	t1,t1,13
    3534:	472e                	lw	a4,200(sp)
    3536:	034e                	slli	t1,t1,0x13
    3538:	705c                	ld	a5,160(s0)
    353a:	55e00377          	0x55e00377
    353e:	0378                	addi	a4,sp,396
    3540:	2382                	fld	ft7,0(sp)
    3542:	038a                	slli	t2,t2,0x2
    3544:	b6cd                	j	3126 <input_data+0x1cce>
    3546:	b922039b          	addiw	t2,tp,-1134
    354a:	03ad                	addi	t2,t2,11
    354c:	3e1f 03b5 08ea      	0x8ea03b53e1f
    3552:	03c5                	addi	t2,t2,17
    3554:	b410                	fsd	fa2,40(s0)
    3556:	03dc                	addi	a5,sp,452
    3558:	ea69                	bnez	a2,362a <verify_data+0x1d2>
    355a:	a10703f7          	0xa10703f7
    355e:	040e                	slli	s0,s0,0x3
    3560:	aaf4                	fsd	fa3,208(a3)
    3562:	041e                	slli	s0,s0,0x7
    3564:	6f58                	ld	a4,152(a4)
    3566:	042a                	slli	s0,s0,0xa
    3568:	042c2c93          	slti	s9,s8,66
    356c:	c4c2                	sw	a6,72(sp)
    356e:	0439                	addi	s0,s0,14
    3570:	82a8                	0x82a8
    3572:	e231044f          	fnmadd.d	fs0,ft2,ft3,ft8,rne
    3576:	0456                	slli	s0,s0,0x15
    3578:	f6c6                	sd	a7,360(sp)
    357a:	0458                	addi	a4,sp,516
    357c:	b2da                	fsd	fs6,352(sp)
    357e:	0476                	slli	s0,s0,0x1d
    3580:	7e24                	ld	s1,120(a2)
    3582:	0486                	slli	s1,s1,0x1
    3584:	86b6                	mv	a3,a3
    3586:	0498                	addi	a4,sp,576
    3588:	49b6                	lw	s3,76(sp)
    358a:	049e                	slli	s1,s1,0x7
    358c:	80f2                	mv	ra,t3
    358e:	9c1c04ab          	custom1	9,24,1,78
    3592:	04c9                	addi	s1,s1,18
    3594:	deea                	sw	s10,124(sp)
    3596:	04ca                	slli	s1,s1,0x12
    3598:	04d2734b          	0x4d2734b
    359c:	04da198b          	0x4da198b
    35a0:	a428                	fsd	fa0,72(s0)
    35a2:	04f0                	addi	a2,sp,588
    35a4:	d981                	beqz	a1,34b4 <verify_data+0x5c>
    35a6:	3571050f          	0x3571050f
    35aa:	053d                	addi	a0,a0,15
    35ac:	5552                	lw	a0,52(sp)
    35ae:	24a4054b          	0x24a4054b
    35b2:	0554                	addi	a3,sp,644
    35b4:	415f 055e 41a4      	0x41a4055e415f
    35ba:	f25c056f          	jal	a0,fffffffffffc44de <_gp+0xfffffffffffbe886>
    35be:	057f                	0x57f
    35c0:	058545bf 0588efda 	0x588efda058545bf
    35c8:	058dfb67          	0x58dfb67
    35cc:	05a5ef07          	0x5a5ef07
    35d0:	1220                	addi	s0,sp,296
    35d2:	05b5                	addi	a1,a1,13
    35d4:	6e11                	lui	t3,0x4
    35d6:	05ee                	slli	a1,a1,0x1b
    35d8:	a4ed                	j	38c2 <verify_data+0x46a>
    35da:	063c                	addi	a5,sp,776
    35dc:	0340                	addi	s0,sp,388
    35de:	063e                	slli	a2,a2,0xf
    35e0:	091f 0648 d5d4      	0xd5d40648091f
    35e6:	0654                	addi	a3,sp,772
    35e8:	065a84b7          	lui	s1,0x65a8
    35ec:	06622783          	lw	a5,102(tp) # 3c98808a <_gp+0x3c982432>
    35f0:	2422                	fld	fs0,8(sp)
    35f2:	47c40663          	beq	s0,t3,3a5e <verify_data+0x606>
    35f6:	0670                	addi	a2,sp,780
    35f8:	3ad6                	fld	fs5,368(sp)
    35fa:	0675                	addi	a2,a2,29
    35fc:	417f                	0x417f
    35fe:	0676                	slli	a2,a2,0x1d
    3600:	895f 0679 c100      	0xc1000679895f
    3606:	067f                	0x67f
    3608:	3ee4                	fld	fs1,248(a3)
    360a:	86480687          	0x86480687
    360e:	06ad                	addi	a3,a3,11
    3610:	e19d                	bnez	a1,3636 <verify_data+0x1de>
    3612:	06b6                	slli	a3,a3,0xd
    3614:	06c34b8b          	custom0	s7,6,12,3
    3618:	1870                	addi	a2,sp,60
    361a:	06c5                	addi	a3,a3,17
    361c:	9628                	0x9628
    361e:	06ce                	slli	a3,a3,0x13
    3620:	02e2                	slli	t0,t0,0x18
    3622:	b7c306db          	custom2	13,6,28,91
    3626:	06f5                	addi	a3,a3,29
    3628:	3fc0                	fld	fs0,184(a5)
    362a:	06fd                	addi	a3,a3,31
    362c:	8f21                	xor	a4,a4,s0
    362e:	06fd                	addi	a3,a3,31
    3630:	f79f 0704 25d6      	0x25d60704f79f
    3636:	071c                	addi	a5,sp,896
    3638:	d1ee                	sw	s11,224(sp)
    363a:	0721                	addi	a4,a4,8
    363c:	07477a3f 075a3493 	0x75a349307477a3f
    3644:	076267bf 079f193f 	0x79f193f076267bf
    364c:	afe9                	j	3e26 <verify_data+0x9ce>
    364e:	07a1                	addi	a5,a5,8
    3650:	a8fc                	fsd	fa5,208(s1)
    3652:	154507bf 7b3807d5 	0x7b3807d5154507bf
    365a:	07f9                	addi	a5,a5,30
    365c:	08039873          	csrrw	a6,0x80,t2
    3660:	2215                	addiw	tp,tp,5
    3662:	080c                	addi	a1,sp,16
    3664:	49ca                	lw	s3,144(sp)
    3666:	0816                	slli	a6,a6,0x5
    3668:	082b2a17          	auipc	s4,0x82b2
    366c:	9b68                	0x9b68
    366e:	0836                	slli	a6,a6,0xd
    3670:	8469                	srai	s0,s0,0x1a
    3672:	0850                	addi	a2,sp,20
    3674:	08606c9b          	0x8606c9b
    3678:	da71                	beqz	a2,364c <verify_data+0x1f4>
    367a:	08ad                	addi	a7,a7,11
    367c:	08b3d3db          	0x8b3d3db
    3680:	09fd                	addi	s3,s3,31
    3682:	08d4                	addi	a3,sp,84
    3684:	08da5b6b          	0x8da5b6b
    3688:	2c11                	addiw	s8,s8,4
    368a:	08e4                	addi	s1,sp,92
    368c:	08fe3757          	0x8fe3757
    3690:	6d30                	ld	a2,88(a0)
    3692:	0906                	slli	s2,s2,0x1
    3694:	8185                	srli	a1,a1,0x1
    3696:	03e50913          	addi	s2,a0,62 # 1603e <_gp+0x103e6>
    369a:	094a                	slli	s2,s2,0x12
    369c:	f9c1                	bnez	a1,362c <verify_data+0x1d4>
    369e:	f94f0953          	0xf94f0953
    36a2:	89600957          	0x89600957
    36a6:	099f 54b6 09a0      	0x9a054b6099f
    36ac:	b5b6                	fsd	fa3,232(sp)
    36ae:	09bc                	addi	a5,sp,216
    36b0:	09fe3077          	0x9fe3077
    36b4:	4130                	lw	a2,64(a0)
    36b6:	379b0a0f          	0x379b0a0f
    36ba:	d3450a17          	auipc	s4,0xd3450
    36be:	0a1d                	addi	s4,s4,7
    36c0:	4a15                	li	s4,5
    36c2:	0a26                	slli	s4,s4,0x9
    36c4:	2f1a                	fld	ft10,384(sp)
    36c6:	0a42                	slli	s4,s4,0x10
    36c8:	0a50ba03          	ld	s4,165(ra) # fffffffffffed0a5 <_gp+0xfffffffffffe744d>
    36cc:	53d9                	li	t2,-10
    36ce:	0a5c                	addi	a5,sp,276
    36d0:	48d2                	lw	a7,20(sp)
    36d2:	0a60                	addi	s0,sp,284
    36d4:	0a6dc44f          	fnmadd.d	fs0,fs11,ft6,ft1,rmm
    36d8:	c97f                	0xc97f
    36da:	0a79                	addi	s4,s4,30
    36dc:	2930                	fld	fa2,80(a0)
    36de:	ea250a7b          	custom3	20,10,2,117
    36e2:	0a7d                	addi	s4,s4,31
    36e4:	5874                	lw	a3,116(s0)
    36e6:	0a8e                	slli	s5,s5,0x3
    36e8:	d099                	beqz	s1,35ee <verify_data+0x196>
    36ea:	0aa9                	addi	s5,s5,10
    36ec:	f591                	bnez	a1,35f8 <verify_data+0x1a0>
    36ee:	0ac2                	slli	s5,s5,0x10
    36f0:	0ac3bca3          	sd	a2,185(t2) # 7ec70b5d <_gp+0x7ec6af05>
    36f4:	8142                	mv	sp,a6
    36f6:	0ad2                	slli	s5,s5,0x14
    36f8:	3aae                	fld	fs5,232(sp)
    36fa:	0ae2                	slli	s5,s5,0x18
    36fc:	ba5a                	fsd	fs6,304(sp)
    36fe:	0af2                	slli	s5,s5,0x1c
    3700:	0b0fe933          	0xb0fe933
    3704:	eae8                	sd	a0,208(a3)
    3706:	0b10                	addi	a2,sp,400
    3708:	d360                	sw	s0,100(a4)
    370a:	0b15                	addi	s6,s6,5
    370c:	dbe0                	sw	s0,116(a5)
    370e:	dcd00b17          	auipc	s6,0xdcd00
    3712:	0b18                	addi	a4,sp,400
    3714:	e892                	sd	tp,80(sp)
    3716:	0b34                	addi	a3,sp,408
    3718:	0b5676e3          	bleu	s5,a2,3fc4 <verify_data+0xb6c>
    371c:	5a9a                	lw	s5,164(sp)
    371e:	7c260b5b          	custom2	22,12,2,62
    3722:	0b5f 4814 0b8e      	0xb8e48140b5f
    3728:	3f66                	fld	ft10,120(sp)
    372a:	0ba5                	addi	s7,s7,9
    372c:	db0a                	sw	sp,180(sp)
    372e:	0bb4                	addi	a3,sp,472
    3730:	b420                	fsd	fs0,104(s0)
    3732:	0bcc                	addi	a1,sp,468
    3734:	16b9                	addi	a3,a3,-18
    3736:	0bd0                	addi	a2,sp,468
    3738:	cd60                	sw	s0,92(a0)
    373a:	0bd0                	addi	a2,sp,468
    373c:	0919                	addi	s2,s2,6
    373e:	0bed                	addi	s7,s7,27
    3740:	9f16                	add	t5,t5,t0
    3742:	f2ea0bef          	jal	s7,fffffffffffa3e70 <_gp+0xfffffffffff9e218>
    3746:	0c11                	addi	s8,s8,4
    3748:	0c30a657          	0xc30a657
    374c:	2cec                	fld	fa1,216(s1)
    374e:	0c38                	addi	a4,sp,536
    3750:	0c514963          	blt	sp,t0,3822 <verify_data+0x3ca>
    3754:	45e2                	lw	a1,24(sp)
    3756:	0c68                	addi	a0,sp,540
    3758:	6fc0                	ld	s0,152(a5)
    375a:	0c6c                	addi	a1,sp,540
    375c:	d928                	sw	a0,112(a0)
    375e:	0c85                	addi	s9,s9,1
    3760:	c4ff                	0xc4ff
    3762:	366e0c8f          	0x366e0c8f
    3766:	0c92                	slli	s9,s9,0x4
    3768:	90c0                	0x90c0
    376a:	65910ca3          	sb	s9,1625(sp)
    376e:	75090caf          	0x75090caf
    3772:	0ccc                	addi	a1,sp,596
    3774:	ea80                	sd	s0,16(a3)
    3776:	0cd0                	addi	a2,sp,596
    3778:	8aa1                	andi	a3,a3,8
    377a:	0ce6                	slli	s9,s9,0x19
    377c:	68ec                	ld	a1,208(s1)
    377e:	0ce8                	addi	a0,sp,604
    3780:	cc9f 0cfa a7e9      	0xa7e90cfacc9f
    3786:	0d08                	addi	a0,sp,656
    3788:	3b0a                	fld	fs6,160(sp)
    378a:	0d31                	addi	s10,s10,12
    378c:	0d36494b          	0xd36494b
    3790:	88d1                	andi	s1,s1,20
    3792:	9e8b0d43          	0x9e8b0d43
    3796:	0d6a                	slli	s10,s10,0x1a
    3798:	18cd                	addi	a7,a7,-13
    379a:	7e030d77          	0x7e030d77
    379e:	85140d77          	0x85140d77
    37a2:	90d40d83          	lb	s11,-1779(s0) # ffffffffffff890d <_gp+0xffffffffffff2cb5>
    37a6:	507c0d83          	lb	s11,1287(s8)
    37aa:	0d86                	slli	s11,s11,0x1
    37ac:	0d8789af          	0xd8789af
    37b0:	0d8e43d3          	0xd8e43d3
    37b4:	05ac                	addi	a1,sp,712
    37b6:	0d95                	addi	s11,s11,5
    37b8:	a911                	j	3bcc <verify_data+0x774>
    37ba:	0da5                	addi	s11,s11,9
    37bc:	1500                	addi	s0,sp,672
    37be:	0db4                	addi	a3,sp,728
    37c0:	b6ca                	fsd	fs2,360(sp)
    37c2:	0dba                	slli	s11,s11,0xe
    37c4:	323a                	fld	ft4,424(sp)
    37c6:	8d110dbf a4550dc7 	0xa4550dc78d110dbf
    37ce:	0dd6                	slli	s11,s11,0x15
    37d0:	27b1                	addiw	a5,a5,12
    37d2:	124f0df3          	0x124f0df3
    37d6:	0e1e                	slli	t3,t3,0x7
    37d8:	0e20a51b          	0xe20a51b
    37dc:	d8e0                	sw	s0,116(s1)
    37de:	3b240e33          	0x3b240e33
    37e2:	0e38                	addi	a4,sp,792
    37e4:	f698                	sd	a4,40(a3)
    37e6:	0e4d                	addi	t3,t3,19
    37e8:	0e578ce3          	beq	a5,t0,40e0 <verify_data+0xc88>
    37ec:	b631                	j	32f8 <input_data+0x1ea0>
    37ee:	0e64                	addi	s1,sp,796
    37f0:	938a                	add	t2,t2,sp
    37f2:	0e65                	addi	t3,t3,25
    37f4:	3a1d                	addiw	s4,s4,-25
    37f6:	0e68                	addi	a0,sp,796
    37f8:	f848                	sd	a0,176(s0)
    37fa:	0e95                	addi	t4,t4,5
    37fc:	06c9                	addi	a3,a3,18
    37fe:	0e9a                	slli	t4,t4,0x6
    3800:	83b2                	mv	t2,a2
    3802:	0e9f a14b 0ebc      	0xebca14b0e9f
    3808:	be14                	fsd	fa3,56(a2)
    380a:	c3680ebf 1ec70ebf 	0x1ec70ebfc3680ebf
    3812:	0ee2                	slli	t4,t4,0x18
    3814:	0ee70b53          	0xee70b53
    3818:	ab91                	j	3d6c <verify_data+0x914>
    381a:	0ee8                	addi	a0,sp,860
    381c:	db66                	sw	s9,180(sp)
    381e:	0ef1                	addi	t4,t4,28
    3820:	cfda                	sw	s6,220(sp)
    3822:	cd000ef3          	0xcd000ef3
    3826:	0efd                	addi	t4,t4,31
    3828:	2f3e                	fld	ft10,456(sp)
    382a:	0f22                	slli	t5,t5,0x8
    382c:	73da                	ld	t2,432(sp)
    382e:	0f36                	slli	t5,t5,0xd
    3830:	760e                	ld	a2,224(sp)
    3832:	0f45                	addi	t5,t5,17
    3834:	61f6                	ld	gp,344(sp)
    3836:	9eb70f4f          	0x9eb70f4f
    383a:	0f5c                	addi	a5,sp,916
    383c:	0f637b73          	csrrc	s6,0xf6,6
    3840:	c1b1                	beqz	a1,3884 <verify_data+0x42c>
    3842:	dcbd0f7b          	custom3	30,26,11,110
    3846:	5fc40f7b          	custom3	30,8,28,47
    384a:	82b70f83          	lb	t6,-2005(a4)
    384e:	0f89                	addi	t6,t6,2
    3850:	9338                	0x9338
    3852:	0f89                	addi	t6,t6,2
    3854:	0f8b5fbf 0f97096e 	0xf97096e0f8b5fbf
    385c:	1efe                	slli	t4,t4,0x3f
    385e:	0fd1                	addi	t6,t6,20
    3860:	c2dc                	sw	a5,4(a3)
    3862:	0fec                	addi	a1,sp,988
    3864:	b0dc                	fsd	fa5,160(s1)
    3866:	0ffa                	slli	t6,t6,0x1e
    3868:	2d4e                	fld	fs10,208(sp)
    386a:	233d100b          	0x233d100b
    386e:	101e                	0x101e
    3870:	10244d23          	0x10244d23
    3874:	f81f 1034 4c25      	0x4c251034f81f
    387a:	1060                	addi	s0,sp,44
    387c:	45f5                	li	a1,29
    387e:	108a                	slli	ra,ra,0x22
    3880:	0f29                	addi	t5,t5,10
    3882:	1091                	addi	ra,ra,-28
    3884:	0db2                	slli	s11,s11,0xc
    3886:	10a5                	addi	ra,ra,-23
    3888:	8f9a                	mv	t6,t1
    388a:	10c4                	addi	s1,sp,100
    388c:	10e4ceaf          	0x10e4ceaf
    3890:	8979                	andi	a0,a0,30
    3892:	dde610f7          	0xdde610f7
    3896:	1122                	slli	sp,sp,0x28
    3898:	112b5d0f          	0x112b5d0f
    389c:	43c8                	lw	a0,4(a5)
    389e:	1144                	addi	s1,sp,164
    38a0:	dc36                	sw	a3,56(sp)
    38a2:	115c                	addi	a5,sp,164
    38a4:	7eec                	ld	a1,248(a3)
    38a6:	1178                	addi	a4,sp,172
    38a8:	0002                	0x2
    38aa:	1189                	addi	gp,gp,-30
    38ac:	119f8227          	0x119f8227
    38b0:	4fc8                	lw	a0,28(a5)
    38b2:	182611cf          	fnmadd.s	ft3,fa2,ft2,ft3,rtz
    38b6:	11da                	slli	gp,gp,0x36
    38b8:	8de8                	0x8de8
    38ba:	11e4                	addi	s1,sp,236
    38bc:	12e0                	addi	s0,sp,364
    38be:	3fa611eb          	0x3fa611eb
    38c2:	11f6                	slli	gp,gp,0x3d
    38c4:	04bd                	addi	s1,s1,15
    38c6:	2b6111fb          	0x2b6111fb
    38ca:	824211fb          	0x824211fb
    38ce:	51f61203          	lh	tp,1311(a2) # ffffffffffff451f <_gp+0xfffffffffffee8c7>
    38d2:	121c                	addi	a5,sp,288
    38d4:	acb4                	fsd	fa3,88(s1)
    38d6:	1220                	addi	s0,sp,296
    38d8:	e474                	sd	a3,200(s0)
    38da:	1221                	addi	tp,tp,-24
    38dc:	321c                	fld	fa5,32(a2)
    38de:	1225                	addi	tp,tp,-23
    38e0:	671f 1235 6343      	0x63431235671f
    38e6:	1239                	addi	tp,tp,-18
    38e8:	c895                	beqz	s1,391c <verify_data+0x4c4>
    38ea:	63be125b          	0x63be125b
    38ee:	1266                	slli	tp,tp,0x39
    38f0:	6746                	ld	a4,80(sp)
    38f2:	1268                	addi	a0,sp,300
    38f4:	c920                	sw	s0,80(a0)
    38f6:	1268                	addi	a0,sp,300
    38f8:	6408                	ld	a0,8(s0)
    38fa:	127e                	slli	tp,tp,0x3f
    38fc:	6db5                	lui	s11,0xd
    38fe:	1744128b          	0x1744128b
    3902:	12dd                	addi	t0,t0,-9
    3904:	12f40083          	lb	ra,303(s0)
    3908:	bfaa                	fsd	fa0,504(sp)
    390a:	12ff                	0x12ff
    390c:	e741                	bnez	a4,3994 <verify_data+0x53c>
    390e:	1314                	addi	a3,sp,416
    3910:	c0ac                	sw	a1,64(s1)
    3912:	133c                	addi	a5,sp,424
    3914:	2441                	addiw	s0,s0,16
    3916:	0e9b1353          	0xe9b1353
    391a:	1364                	addi	s1,sp,428
    391c:	136948cb          	fnmsub.d	fa7,fs2,fs6,ft2,rmm
    3920:	4dd8                	lw	a4,28(a1)
    3922:	1395                	addi	t2,t2,-27
    3924:	e4b2                	sd	a2,72(sp)
    3926:	139c                	addi	a5,sp,480
    3928:	db86                	sw	ra,244(sp)
    392a:	a26a13a7          	0xa26a13a7
    392e:	13b2                	slli	t2,t2,0x2c
    3930:	13bf00c7          	fmsub.d	ft1,ft10,fs11,ft2,rne
    3934:	13ccfe2f          	0x13ccfe2f
    3938:	b436                	fsd	fa3,40(sp)
    393a:	13e5                	addi	t2,t2,-7
    393c:	13e702e3          	beq	a4,t5,4260 <verify_data+0xe08>
    3940:	0138                	addi	a4,sp,136
    3942:	13e9                	addi	t2,t2,-6
    3944:	a794                	fsd	fa3,8(a5)
    3946:	13fe                	slli	t2,t2,0x3f
    3948:	140a3777          	0x140a3777
    394c:	98ae                	add	a7,a7,a1
    394e:	142d                	addi	s0,s0,-21
    3950:	8655                	srai	a2,a2,0x15
    3952:	bdd61447          	0xbdd61447
    3956:	144a                	slli	s0,s0,0x32
    3958:	81a2                	mv	gp,s0
    395a:	145a                	slli	s0,s0,0x36
    395c:	145d8bd7          	0x145d8bd7
    3960:	14624fa3          	0x14624fa3
    3964:	5a5e                	lw	s4,244(sp)
    3966:	1472                	slli	s0,s0,0x3c
    3968:	14739627          	0x14739627
    396c:	2e08                	fld	fa0,24(a2)
    396e:	147c                	addi	a5,sp,556
    3970:	e22a                	sd	a0,256(sp)
    3972:	1488                	addi	a0,sp,608
    3974:	2630                	fld	fa2,72(a2)
    3976:	148e                	slli	s1,s1,0x23
    3978:	14a8aca7          	fsw	fa0,345(a7)
    397c:	108a                	slli	ra,ra,0x22
    397e:	14c0                	addi	s0,sp,612
    3980:	14d11f33          	0x14d11f33
    3984:	14df5beb          	0x14df5beb
    3988:	26d6                	fld	fa3,336(sp)
    398a:	caae14f7          	0xcaae14f7
    398e:	1518                	addi	a4,sp,672
    3990:	3f1e                	fld	ft10,480(sp)
    3992:	1532                	slli	a0,a0,0x2c
    3994:	7742                	ld	a4,48(sp)
    3996:	1540                	addi	s0,sp,676
    3998:	1541dfdb          	0x1541dfdb
    399c:	63a5                	lui	t2,0x9
    399e:	1542                	slli	a0,a0,0x30
    39a0:	1fe2                	slli	t6,t6,0x38
    39a2:	1571                	addi	a0,a0,-4
    39a4:	d1f1                	beqz	a1,3968 <verify_data+0x510>
    39a6:	157e                	slli	a0,a0,0x3f
    39a8:	18e0                	addi	s0,sp,124
    39aa:	159f b440 15aa      	0x15aab440159f
    39b0:	15bb2fe7          	0x15bb2fe7
    39b4:	a9d0                	fsd	fa2,144(a1)
    39b6:	a7d115bb          	0xa7d115bb
    39ba:	15c5                	addi	a1,a1,-15
    39bc:	7f16                	ld	t5,352(sp)
    39be:	15ce                	slli	a1,a1,0x33
    39c0:	68b2                	ld	a7,264(sp)
    39c2:	0f8915db          	0xf8915db
    39c6:	15ee                	slli	a1,a1,0x3b
    39c8:	15f77ee7          	0x15f77ee7
    39cc:	15fcce2f          	0x15fcce2f
    39d0:	12d6                	slli	t0,t0,0x35
    39d2:	1629                	addi	a2,a2,-22
    39d4:	8dc1                	or	a1,a1,s0
    39d6:	1630                	addi	a2,sp,808
    39d8:	5f2d                	li	t5,-21
    39da:	eb5f1633          	0xeb5f1633
    39de:	fd611633          	0xfd611633
    39e2:	163e                	slli	a2,a2,0x2f
    39e4:	2ff2                	fld	ft11,280(sp)
    39e6:	1640                	addi	s0,sp,804
    39e8:	379a                	fld	fa5,416(sp)
    39ea:	39421667          	0x39421667
    39ee:	1675                	addi	a2,a2,-3
    39f0:	bf1f 1695 42fc      	0x42fc1695bf1f
    39f6:	169e                	slli	a3,a3,0x27
    39f8:	6ad2                	ld	s5,272(sp)
    39fa:	0ad616a7          	0xad616a7
    39fe:	534b16b7          	lui	a3,0x534b1
    3a02:	16be                	slli	a3,a3,0x2f
    3a04:	d8e5                	beqz	s1,39f4 <verify_data+0x59c>
    3a06:	4eab16c3          	0x4eab16c3
    3a0a:	098116cb          	fnmsub.s	fa3,ft2,fs8,ft1,rtz
    3a0e:	1700                	addi	s0,sp,928
    3a10:	1692                	slli	a3,a3,0x24
    3a12:	170d                	addi	a4,a4,-29
    3a14:	1621                	addi	a2,a2,-24
    3a16:	1712                	slli	a4,a4,0x24
    3a18:	17155447          	0x17155447
    3a1c:	7b35                	lui	s6,0xfffed
    3a1e:	171a                	slli	a4,a4,0x26
    3a20:	172d75a3          	0x172d75a3
    3a24:	3a26                	fld	fs4,104(sp)
    3a26:	46e31733          	0x46e31733
    3a2a:	174a                	slli	a4,a4,0x32
    3a2c:	1753184b          	0x1753184b
    3a30:	b7d5                	j	3a14 <verify_data+0x5bc>
    3a32:	1790                	addi	a2,sp,992
    3a34:	394c                	fld	fa1,176(a0)
    3a36:	17bc                	addi	a5,sp,1000
    3a38:	bb4a                	fsd	fs2,432(sp)
    3a3a:	17bc                	addi	a5,sp,1000
    3a3c:	e6da                	sd	s6,328(sp)
    3a3e:	17c6                	slli	a5,a5,0x31
    3a40:	ff59                	bnez	a4,39de <verify_data+0x586>
    3a42:	17c9                	addi	a5,a5,-14
    3a44:	3abd                	addiw	s5,s5,-17
    3a46:	61c617cf          	fnmadd.s	fa5,fa2,ft8,fa2,rtz
    3a4a:	974017d7          	0x974017d7
    3a4e:	17ed                	addi	a5,a5,-5
    3a50:	eeec                	sd	a1,216(a3)
    3a52:	1802                	slli	a6,a6,0x20
    3a54:	10d2                	slli	ra,ra,0x34
    3a56:	1aef180b          	0x1aef180b
    3a5a:	184e                	slli	a6,a6,0x33
    3a5c:	8e8d                	sub	a3,a3,a1
    3a5e:	188c                	addi	a1,sp,112
    3a60:	c656                	sw	s5,12(sp)
    3a62:	189e                	slli	a7,a7,0x27
    3a64:	a1ce                	fsd	fs3,192(sp)
    3a66:	18d2                	slli	a7,a7,0x34
    3a68:	9675                	srai	a2,a2,0x3d
    3a6a:	3dfe18e3          	bne	t3,t6,463a <verify_data+0x11e2>
    3a6e:	18fa                	slli	a7,a7,0x3e
    3a70:	19de                	slli	s3,s3,0x37
    3a72:	b28018fb          	0xb28018fb
    3a76:	1900                	addi	s0,sp,176
    3a78:	4ff0                	lw	a2,92(a5)
    3a7a:	190a                	slli	s2,s2,0x22
    3a7c:	191afacb          	fnmsub.s	fs5,fs5,fa7,ft3
    3a80:	ed44                	sd	s1,152(a0)
    3a82:	0a531927          	0xa531927
    3a86:	b1bf193b          	0xb1bf193b
    3a8a:	194e                	slli	s2,s2,0x33
    3a8c:	19a2b58b          	custom0	11,t0,s10,12
    3a90:	5cc9                	li	s9,-14
    3a92:	19c1                	addi	s3,s3,-16
    3a94:	1980                	addi	s0,sp,240
    3a96:	19c9                	addi	s3,s3,-14
    3a98:	19cee96b          	0x19cee96b
    3a9c:	59f1                	li	s3,-4
    3a9e:	19d5                	addi	s3,s3,-11
    3aa0:	4af1                	li	s5,28
    3aa2:	306d19eb          	0x306d19eb
    3aa6:	19f1                	addi	s3,s3,-4
    3aa8:	f8f2                	sd	t3,112(sp)
    3aaa:	19f1                	addi	s3,s3,-4
    3aac:	1886                	slli	a7,a7,0x21
    3aae:	1a04                	addi	s1,sp,304
    3ab0:	af00                	fsd	fs0,24(a4)
    3ab2:	1a05                	addi	s4,s4,-31
    3ab4:	1a067347          	fmsub.d	ft6,fa2,ft0,ft3
    3ab8:	efe9                	bnez	a5,3b92 <verify_data+0x73a>
    3aba:	1a16                	slli	s4,s4,0x25
    3abc:	34a2                	fld	fs1,40(sp)
    3abe:	1a26                	slli	s4,s4,0x29
    3ac0:	6680                	ld	s0,8(a3)
    3ac2:	1a72                	slli	s4,s4,0x3c
    3ac4:	6a3e                	ld	s4,456(sp)
    3ac6:	1a7c                	addi	a5,sp,316
    3ac8:	1a9b193f 1ab845a1 	0x1ab845a11a9b193f
    3ad0:	c174                	sw	a3,68(a0)
    3ad2:	1abe                	slli	s5,s5,0x2f
    3ad4:	8f99                	sub	a5,a5,a4
    3ad6:	1ae8                	addi	a0,sp,380
    3ad8:	88d5                	andi	s1,s1,21
    3ada:	1afe                	slli	s5,s5,0x3f
    3adc:	fbb4                	sd	a3,112(a5)
    3ade:	1b14                	addi	a3,sp,432
    3ae0:	2e78                	fld	fa4,216(a2)
    3ae2:	1b16                	slli	s6,s6,0x25
    3ae4:	1b1ae0d3          	fdiv.d	ft1,fs5,fa7,unknown
    3ae8:	d252                	sw	s4,36(sp)
    3aea:	0fbf1b2b          	0xfbf1b2b
    3aee:	1b35                	addi	s6,s6,-19
    3af0:	fb86                	sd	ra,496(sp)
    3af2:	1b60                	addi	s0,sp,444
    3af4:	1b717563          	bleu	s7,sp,3c9e <verify_data+0x846>
    3af8:	ab66                	fsd	fs9,400(sp)
    3afa:	1b78                	addi	a4,sp,444
    3afc:	0f16                	slli	t5,t5,0x5
    3afe:	1b81                	addi	s7,s7,-32
    3b00:	1b825af3          	csrrw	s5,0x1b8,4
    3b04:	e83e                	sd	a5,16(sp)
    3b06:	1b94                	addi	a3,sp,496
    3b08:	a632                	fsd	fa2,264(sp)
    3b0a:	1b96                	slli	s7,s7,0x25
    3b0c:	1baab177          	0x1baab177
    3b10:	1bb4383f 1bb928d5 	0x1bb928d51bb4383f
    3b18:	0309                	addi	t1,t1,2
    3b1a:	1c05                	addi	s8,s8,-31
    3b1c:	84d0                	0x84d0
    3b1e:	1c2d                	addi	s8,s8,-21
    3b20:	1c2f74ab          	custom1	s1,t5,sp,14
    3b24:	4355                	li	t1,21
    3b26:	1c36                	slli	s8,s8,0x2d
    3b28:	4b00                	lw	s0,16(a4)
    3b2a:	a9601c73          	csrrw	s8,0xa96,zero
    3b2e:	1c74                	addi	a3,sp,572
    3b30:	b4a9                	j	357a <verify_data+0x122>
    3b32:	1c88                	addi	a0,sp,624
    3b34:	0ac5                	addi	s5,s5,17
    3b36:	1cb4                	addi	a3,sp,632
    3b38:	12d4                	addi	a3,sp,356
    3b3a:	1cb4                	addi	a3,sp,632
    3b3c:	bb55                	j	38f0 <verify_data+0x498>
    3b3e:	1cc8                	addi	a0,sp,628
    3b40:	1ccf4e3b          	0x1ccf4e3b
    3b44:	000d                	0xd
    3b46:	1cf5                	addi	s9,s9,-3
    3b48:	4c05                	li	s8,1
    3b4a:	1cfa                	slli	s9,s9,0x3e
    3b4c:	88a1                	andi	s1,s1,8
    3b4e:	1cfa                	slli	s9,s9,0x3e
    3b50:	9565                	srai	a0,a0,0x39
    3b52:	1d14                	addi	a3,sp,688
    3b54:	da5f 1d42 1082      	0x10821d42da5f
    3b5a:	71bc1d5b          	0x71bc1d5b
    3b5e:	97091d77          	0x97091d77
    3b62:	1d82                	slli	s11,s11,0x20
    3b64:	daea                	sw	s10,116(sp)
    3b66:	1dac                	addi	a1,sp,760
    3b68:	9829                	andi	s0,s0,-22
    3b6a:	1db9                	addi	s11,s11,-18
    3b6c:	d75f 1dcb 2524      	0x25241dcbd75f
    3b72:	9af51dd3          	0x9af51dd3
    3b76:	1dd8                	addi	a4,sp,756
    3b78:	8a44                	0x8a44
    3b7a:	daf91def          	jal	s11,fffffffffff95928 <_gp+0xfffffffffff8fcd0>
    3b7e:	1df0                	addi	a2,sp,764
    3b80:	6e48                	ld	a0,152(a2)
    3b82:	1df4                	addi	a3,sp,764
    3b84:	c9c9                	beqz	a1,3c16 <verify_data+0x7be>
    3b86:	1e00                	addi	s0,sp,816
    3b88:	d51d                	beqz	a0,3ab6 <verify_data+0x65e>
    3b8a:	1e08                	addi	a0,sp,816
    3b8c:	1e300f6b          	0x1e300f6b
    3b90:	25de                	fld	fa1,464(sp)
    3b92:	1e45                	addi	t3,t3,-15
    3b94:	8062                	0x8062
    3b96:	1e46                	slli	t3,t3,0x31
    3b98:	1e48192b          	0x1e48192b
    3b9c:	7f46                	ld	t5,112(sp)
    3b9e:	1e58                	addi	a4,sp,820
    3ba0:	1641                	addi	a2,a2,-16
    3ba2:	1e62                	slli	t3,t3,0x38
    3ba4:	47e8                	lw	a0,76(a5)
    3ba6:	1e6d                	addi	t3,t3,-5
    3ba8:	932c                	0x932c
    3baa:	1e6d                	addi	t3,t3,-5
    3bac:	0b6e                	slli	s6,s6,0x1b
    3bae:	1e8c                	addi	a1,sp,880
    3bb0:	e911                	bnez	a0,3bc4 <verify_data+0x76c>
    3bb2:	540d1e93          	0x540d1e93
    3bb6:	1e9c                	addi	a5,sp,880
    3bb8:	1e9ca763          	0x1e9ca763
    3bbc:	49c4                	lw	s1,20(a1)
    3bbe:	1ea6                	slli	t4,t4,0x29
    3bc0:	f87d                	bnez	s0,3bb6 <verify_data+0x75e>
    3bc2:	1eb0                	addi	a2,sp,888
    3bc4:	98ac                	0x98ac
    3bc6:	1eb8                	addi	a4,sp,888
    3bc8:	a950                	fsd	fa2,144(a0)
    3bca:	1ebe                	slli	t4,t4,0x2f
    3bcc:	8110                	0x8110
    3bce:	1edc                	addi	a5,sp,884
    3bd0:	2d32                	fld	fs10,264(sp)
    3bd2:	1ee1                	addi	t4,t4,-8
    3bd4:	4855                	li	a6,21
    3bd6:	1ef2                	slli	t4,t4,0x3c
    3bd8:	1ef490c3          	0x1ef490c3
    3bdc:	1ef9fd23          	0x1ef9fd23
    3be0:	9906                	add	s2,s2,ra
    3be2:	5e7e1f03          	lh	t5,1511(t3) # 45e7 <verify_data+0x118f>
    3be6:	1f06                	slli	t5,t5,0x21
    3be8:	3d39                	addiw	s10,s10,-18
    3bea:	1f09                	addi	t5,t5,-30
    3bec:	8905                	andi	a0,a0,1
    3bee:	1f1f 5071 1f23      	0x1f2350711f1f
    3bf4:	1f407de7          	0x1f407de7
    3bf8:	1c49                	addi	s8,s8,-14
    3bfa:	1f54                	addi	a3,sp,948
    3bfc:	0239                	addi	tp,tp,14
    3bfe:	1f79                	addi	t5,t5,-2
    3c00:	1f8b77b7          	lui	a5,0x1f8b7
    3c04:	96fd                	srai	a3,a3,0x3f
    3c06:	1f98                	addi	a4,sp,1008
    3c08:	b1ee                	fsd	fs11,224(sp)
    3c0a:	cd531fb7          	lui	t6,0xcd531
    3c0e:	1fbc                	addi	a5,sp,1016
    3c10:	7b61                	lui	s6,0xffff8
    3c12:	1fc6                	slli	t6,t6,0x31
    3c14:	0dde                	slli	s11,s11,0x17
    3c16:	1fda                	slli	t6,t6,0x36
    3c18:	16f9                	addi	a3,a3,-2
    3c1a:	1ff0                	addi	a2,sp,1020
    3c1c:	adc6                	fsd	fa7,216(sp)
    3c1e:	73bb1ff3          	csrrw	t6,0x73b,s6
    3c22:	201f 0c4c 2027      	0x20270c4c201f
    3c28:	202edda7          	0x202edda7
    3c2c:	202fd7d7          	0x202fd7d7
    3c30:	2c8c                	fld	fa1,24(s1)
    3c32:	2031                	0x2031
    3c34:	46f4                	lw	a3,76(a3)
    3c36:	203e                	fld	ft0,456(sp)
    3c38:	8ed1                	or	a3,a3,a2
    3c3a:	0db82057          	0xdb82057
    3c3e:	206c                	fld	fa1,192(s0)
    3c40:	7fd8                	ld	a4,184(a5)
    3c42:	207a                	fld	ft0,408(sp)
    3c44:	0d30                	addi	a2,sp,664
    3c46:	207d                	0x207d
    3c48:	3aed                	addiw	s5,s5,-5
    3c4a:	2085                	addiw	ra,ra,1
    3c4c:	7fc9                	lui	t6,0xffff2
    3c4e:	2090                	fld	fa2,0(s1)
    3c50:	78d4                	ld	a3,176(s1)
    3c52:	f31d20b3          	0xf31d20b3
    3c56:	20bc                	fld	fa5,64(s1)
    3c58:	7518                	ld	a4,40(a0)
    3c5a:	20d0                	fld	fa2,128(s1)
    3c5c:	cf61                	beqz	a4,3d34 <verify_data+0x8dc>
    3c5e:	e50320fb          	custom3	1,t1,16,114
    3c62:	2128                	fld	fa0,64(a0)
    3c64:	7078                	ld	a4,224(s0)
    3c66:	2159                	addiw	sp,sp,22
    3c68:	0b52                	slli	s6,s6,0x14
    3c6a:	9d30216b          	0x9d30216b
    3c6e:	218e                	fld	ft3,192(sp)
    3c70:	81de                	mv	gp,s7
    3c72:	03af21af          	amoadd.w.rl	gp,s10,(t5)
    3c76:	a15d21bf f16e21d7 	0xf16e21d7a15d21bf
    3c7e:	21e4                	fld	fs1,192(a1)
    3c80:	21f8bbe7          	0x21f8bbe7
    3c84:	757d                	lui	a0,0xfffff
    3c86:	2212                	fld	ft4,256(sp)
    3c88:	221bb1f3          	csrrc	gp,0x221,s7
    3c8c:	27e4                	fld	fs1,200(a5)
    3c8e:	223a                	fld	ft4,392(sp)
    3c90:	e330                	sd	a2,64(a4)
    3c92:	2262                	fld	ft4,24(sp)
    3c94:	226a2ea7          	fsw	ft6,573(s4) # ffffffffd34538f7 <_gp+0xffffffffd344dc9f>
    3c98:	9562                	add	a0,a0,s8
    3c9a:	226a                	fld	ft4,152(sp)
    3c9c:	227f96f7          	0x227f96f7
    3ca0:	810a                	mv	sp,sp
    3ca2:	2285                	addiw	t0,t0,1
    3ca4:	22992e4b          	fnmsub.d	ft8,fs2,fs1,ft4,rdn
    3ca8:	aa91                	j	3dfc <verify_data+0x9a4>
    3caa:	229c                	fld	fa5,0(a3)
    3cac:	9608                	0x9608
    3cae:	22c1                	addiw	t0,t0,16
    3cb0:	fb81                	bnez	a5,3bc0 <verify_data+0x768>
    3cb2:	22e0                	fld	fs0,192(a3)
    3cb4:	ab60                	fsd	fs0,208(a4)
    3cb6:	22ea                	fld	ft5,152(sp)
    3cb8:	2fa9                	addiw	t6,t6,10
    3cba:	231c                	fld	fa5,0(a4)
    3cbc:	39df 2335 4e2b      	0x4e2b233539df
    3cc2:	2349                	addiw	t1,t1,18
    3cc4:	c94a                	sw	s2,144(sp)
    3cc6:	234c                	fld	fa1,128(a4)
    3cc8:	23688f3b          	0x23688f3b
    3ccc:	278e                	fld	fa5,192(sp)
    3cce:	2374                	fld	fa3,192(a4)
    3cd0:	ed70                	sd	a2,216(a0)
    3cd2:	2381                	sext.w	t2,t2
    3cd4:	04c5                	addi	s1,s1,17
    3cd6:	239c                	fld	fa5,0(a5)
    3cd8:	034d                	addi	t1,t1,19
    3cda:	23a5                	addiw	t2,t2,9
    3cdc:	6a30                	ld	a2,80(a2)
    3cde:	a2f223e7          	0xa2f223e7
    3ce2:	7ca623ef          	jal	t2,664ac <_gp+0x60854>
    3ce6:	e3c123f3          	csrrs	t2,0xe3c,sp
    3cea:	23fe                	fld	ft7,472(sp)
    3cec:	240481ab          	custom1	3,9,0,18
    3cf0:	37ea                	fld	fa5,184(sp)
    3cf2:	491c240f          	0x491c240f
    3cf6:	2435                	addiw	s0,s0,13
    3cf8:	b44a                	fsd	fs2,40(sp)
    3cfa:	2439                	addiw	s0,s0,14
    3cfc:	cd3e                	sw	a5,152(sp)
    3cfe:	247e                	fld	fs0,472(sp)
    3d00:	490d                	li	s2,3
    3d02:	249c                	fld	fa5,8(s1)
    3d04:	3ecd                	addiw	t4,t4,-13
    3d06:	24a2                	fld	fs1,8(sp)
    3d08:	5cb5                	li	s9,-19
    3d0a:	66c324b3          	0x66c324b3
    3d0e:	24d2                	fld	fs1,272(sp)
    3d10:	24d5dd8b          	0x24d5dd8b
    3d14:	81fd                	srli	a1,a1,0x1f
    3d16:	24d8                	fld	fa4,136(s1)
    3d18:	5376                	lw	t1,124(sp)
    3d1a:	24e0                	fld	fs0,200(s1)
    3d1c:	bbfa                	fsd	ft10,496(sp)
    3d1e:	3a3624eb          	0x3a3624eb
    3d22:	24ec                	fld	fa1,200(s1)
    3d24:	05f9                	addi	a1,a1,30
    3d26:	24f4                	fld	fa3,200(s1)
    3d28:	0b3d                	addi	s6,s6,15
    3d2a:	24fc                	fld	fa5,200(s1)
    3d2c:	c3bd                	beqz	a5,3d92 <verify_data+0x93a>
    3d2e:	2511                	addiw	a0,a0,4
    3d30:	b685                	j	3890 <verify_data+0x438>
    3d32:	2514                	fld	fa3,8(a0)
    3d34:	90ea                	add	ra,ra,s10
    3d36:	2515                	addiw	a0,a0,5
    3d38:	76c0                	ld	s0,168(a3)
    3d3a:	252c                	fld	fa1,72(a0)
    3d3c:	18b0                	addi	a2,sp,120
    3d3e:	2530                	fld	fa2,72(a0)
    3d40:	dc48                	sw	a0,60(s0)
    3d42:	253a                	fld	fa0,392(sp)
    3d44:	625f 253c d083      	0xd083253c625f
    3d4a:	e0d6253f 5203254f 	0x5203254fe0d6253f
    3d52:	2575                	addiw	a0,a0,29
    3d54:	0af0                	addi	a2,sp,348
    3d56:	a39e2593          	slti	a1,t3,-1479
    3d5a:	259c                	fld	fa5,8(a1)
    3d5c:	648d                	lui	s1,0x3
    3d5e:	25a2                	fld	fa1,8(sp)
    3d60:	25aa979b          	0x25aa979b
    3d64:	e378                	sd	a4,192(a4)
    3d66:	25b4                	fld	fa3,72(a1)
    3d68:	25bbf907          	0x25bbf907
    3d6c:	7b4a                	ld	s6,176(sp)
    3d6e:	25be                	fld	fa1,456(sp)
    3d70:	ff86                	sd	ra,504(sp)
    3d72:	eb4f25ef          	jal	a1,ffffffffffff6426 <_gp+0xffffffffffff07ce>
    3d76:	2601                	sext.w	a2,a2
    3d78:	a9bd                	j	41f6 <verify_data+0xd9e>
    3d7a:	2609                	addiw	a2,a2,2
    3d7c:	5fae                	lw	t6,232(sp)
    3d7e:	2632                	fld	fa2,264(sp)
    3d80:	2540                	fld	fs0,136(a0)
    3d82:	83a92667          	0x83a92667
    3d86:	afc1266f          	jal	a2,fffffffffff16082 <_gp+0xfffffffffff1042a>
    3d8a:	78e9268b          	custom0	13,s2,14,60
    3d8e:	26ba                	fld	fa3,392(sp)
    3d90:	0b60                	addi	s0,sp,412
    3d92:	26c6                	fld	fa3,80(sp)
    3d94:	a9e2                	fsd	fs8,208(sp)
    3d96:	26d5                	addiw	a3,a3,21
    3d98:	ed86                	sd	ra,216(sp)
    3d9a:	26d8                	fld	fa4,136(a3)
    3d9c:	ebc4                	sd	s1,144(a5)
    3d9e:	26dd                	addiw	a3,a3,23
    3da0:	e848                	sd	a0,144(s0)
    3da2:	26e2                	fld	fa3,24(sp)
    3da4:	26ecc43f 26f58add 	0x26f58add26ecc43f
    3dac:	2ad8                	fld	fa4,144(a3)
    3dae:	2709                	addiw	a4,a4,2
    3db0:	9280                	0x9280
    3db2:	270d                	addiw	a4,a4,3
    3db4:	4fba                	lw	t6,140(sp)
    3db6:	2711                	addiw	a4,a4,4
    3db8:	53c2                	lw	t2,48(sp)
    3dba:	2728                	fld	fa0,72(a4)
    3dbc:	272cdbc7          	0x272cdbc7
    3dc0:	ec5c                	sd	a5,152(s0)
    3dc2:	276a                	fld	fa4,152(sp)
    3dc4:	bfb6                	fsd	fa3,504(sp)
    3dc6:	2799                	addiw	a5,a5,6
    3dc8:	27ac473b          	0x27ac473b
    3dcc:	e2fd                	bnez	a3,3eb2 <verify_data+0xa5a>
    3dce:	dfd027bb          	0xdfd027bb
    3dd2:	27f8                	fld	fa4,200(a5)
    3dd4:	280b98c7          	fmsub.s	fa7,fs7,ft0,ft5,rtz
    3dd8:	d6ad                	beqz	a3,3d42 <verify_data+0x8ea>
    3dda:	2812                	fld	fa6,256(sp)
    3ddc:	281bbd27          	fsd	ft1,666(s7) # 347e6696 <_gp+0x347e0a3e>
    3de0:	fe11                	bnez	a2,3cfc <verify_data+0x8a4>
    3de2:	2828                	fld	fa0,80(s0)
    3de4:	49a5                	li	s3,9
    3de6:	2835                	addiw	a6,a6,13
    3de8:	10f8                	addi	a4,sp,108
    3dea:	2844                	fld	fs1,144(s0)
    3dec:	2845d05b          	0x2845d05b
    3df0:	9189                	srli	a1,a1,0x22
    3df2:	285d                	addiw	a6,a6,23
    3df4:	2870b66f          	jal	a2,f87a <_gp+0x9c22>
    3df8:	a34d                	j	439a <verify_data+0xf42>
    3dfa:	2880                	fld	fs0,16(s1)
    3dfc:	9bfd                	andi	a5,a5,-1
    3dfe:	288a                	fld	fa7,128(sp)
    3e00:	c5f0                	sw	a2,76(a1)
    3e02:	28a6                	fld	fa7,72(sp)
    3e04:	c1b4                	sw	a3,64(a1)
    3e06:	f15328bb          	0xf15328bb
    3e0a:	28bd                	addiw	a7,a7,15
    3e0c:	5d55                	li	s10,-11
    3e0e:	28d4                	fld	fa3,144(s1)
    3e10:	b431                	j	381c <verify_data+0x3c4>
    3e12:	25ea28ef          	jal	a7,a6070 <_gp+0xa0418>
    3e16:	2901                	sext.w	s2,s2
    3e18:	290737e7          	0x290737e7
    3e1c:	6c64                	ld	s1,216(s0)
    3e1e:	2909                	addiw	s2,s2,2
    3e20:	292b6803          	lwu	a6,658(s6) # ffffffffffff8292 <_gp+0xffffffffffff263a>
    3e24:	de5d                	beqz	a2,3de2 <verify_data+0x98a>
    3e26:	292c                	fld	fa1,80(a0)
    3e28:	292dc637          	lui	a2,0x292dc
    3e2c:	4190                	lw	a2,0(a1)
    3e2e:	2931                	addiw	s2,s2,12
    3e30:	fc5d                	bnez	s0,3dee <verify_data+0x996>
    3e32:	9857294b          	fnmsub.s	fs2,fa4,ft5,fs3,rdn
    3e36:	2959                	addiw	s2,s2,22
    3e38:	28ae                	fld	fa7,200(sp)
    3e3a:	297c                	fld	fa5,208(a0)
    3e3c:	297efd5b          	custom2	s10,t4,s7,20
    3e40:	f432                	sd	a2,40(sp)
    3e42:	2982                	fld	fs3,0(sp)
    3e44:	d515                	beqz	a0,3d70 <verify_data+0x918>
    3e46:	2995                	addiw	s3,s3,5
    3e48:	daa0                	sw	s0,112(a3)
    3e4a:	986b2997          	auipc	s3,0x986b2
    3e4e:	2998                	fld	fa4,16(a1)
    3e50:	29a4b67b          	custom3	12,s1,s10,20
    3e54:	29c439a7          	fsd	ft8,659(s0)
    3e58:	29d70e33          	0x29d70e33
    3e5c:	7a22                	ld	s4,40(sp)
    3e5e:	29dd                	addiw	s3,s3,23
    3e60:	eae5                	bnez	a3,3f50 <verify_data+0xaf8>
    3e62:	29e8                	fld	fa0,208(a1)
    3e64:	35ba                	fld	fa1,424(sp)
    3e66:	2a0d                	addiw	s4,s4,3
    3e68:	2a12718f          	0x2a12718f
    3e6c:	2885                	addiw	a7,a7,1
    3e6e:	2a1a                	fld	fs4,384(sp)
    3e70:	4eda                	lw	t4,148(sp)
    3e72:	2a21                	addiw	s4,s4,8
    3e74:	2a22a5e3          	0x2a22a5e3
    3e78:	6ac2                	ld	s5,16(sp)
    3e7a:	2a4c                	fld	fa1,144(a2)
    3e7c:	2a8f6b6f          	jal	s6,fa124 <_gp+0xf44cc>
    3e80:	bc82                	fsd	ft0,120(sp)
    3e82:	2a95                	addiw	s5,s5,5
    3e84:	6351                	lui	t1,0x14
    3e86:	2aac                	fld	fa1,80(a3)
    3e88:	74f2                	ld	s1,312(sp)
    3e8a:	2aca                	fld	fs5,144(sp)
    3e8c:	832c                	0x832c
    3e8e:	4d282aef          	jal	s5,86360 <_gp+0x80708>
    3e92:	2afa                	fld	fs5,408(sp)
    3e94:	9719                	srai	a4,a4,0x26
    3e96:	2b01                	sext.w	s6,s6
    3e98:	2b0b5427          	0x2b0b5427
    3e9c:	d0ed                	beqz	s1,3e7e <verify_data+0xa26>
    3e9e:	2b0c                	fld	fa1,16(a4)
    3ea0:	261f 2b0e deec      	0xdeec2b0e261f
    3ea6:	2b16                	fld	fs6,320(sp)
    3ea8:	0b2a                	slli	s6,s6,0xa
    3eaa:	2b1d                	addiw	s6,s6,7
    3eac:	4dbe                	lw	s11,204(sp)
    3eae:	2b26                	fld	fs6,72(sp)
    3eb0:	0c12                	slli	s8,s8,0x4
    3eb2:	2b48                	fld	fa0,144(a4)
    3eb4:	2488                	fld	fa0,8(s1)
    3eb6:	1c4b2b53          	0x1c4b2b53
    3eba:	2b5e                	fld	fs6,464(sp)
    3ebc:	e58d                	bnez	a1,3ee6 <verify_data+0xa8e>
    3ebe:	2b7a                	fld	fs6,408(sp)
    3ec0:	6fa2                	ld	t6,8(sp)
    3ec2:	4d812b7b          	custom3	22,sp,24,38
    3ec6:	2b84                	fld	fs1,16(a5)
    3ec8:	70c8                	ld	a0,160(s1)
    3eca:	5d0d2b87          	flw	fs7,1488(s10) # fffffffffffe65d0 <_gp+0xfffffffffffe0978>
    3ece:	2b89                	addiw	s7,s7,2
    3ed0:	d1e1                	beqz	a1,3e90 <verify_data+0xa38>
    3ed2:	6ca02b8f          	0x6ca02b8f
    3ed6:	d24e2b9b          	0xd24e2b9b
    3eda:	2b9d                	addiw	s7,s7,7
    3edc:	5d49                	li	s10,-14
    3ede:	35dc2ba7          	fsw	ft9,855(s8)
    3ee2:	2ba8                	fld	fa0,80(a5)
    3ee4:	6a49                	lui	s4,0x12
    3ee6:	2be5                	addiw	s7,s7,25
    3ee8:	7d20                	ld	s0,120(a0)
    3eea:	a3052bf3          	csrrs	s7,0xa30,a0
    3eee:	2bf5                	addiw	s7,s7,29
    3ef0:	64c0                	ld	s0,136(s1)
    3ef2:	58672c07          	flw	fs8,1414(a4)
    3ef6:	2c15                	addiw	s8,s8,5
    3ef8:	aecc                	fsd	fa1,152(a3)
    3efa:	f5572c23          	sw	s5,-168(a4)
    3efe:	94b82c2b          	custom1	24,a6,11,74
    3f02:	2c2d                	addiw	s8,s8,11
    3f04:	2c3cdaab          	0x2c3cdaab
    3f08:	0379                	addi	t1,t1,30
    3f0a:	2c52                	fld	fs8,272(sp)
    3f0c:	2c54a803          	lw	a6,709(s1) # 32c5 <input_data+0x1e6d>
    3f10:	983d                	andi	s0,s0,-17
    3f12:	2c6a                	fld	fs8,152(sp)
    3f14:	aaad                	j	408e <verify_data+0xc36>
    3f16:	5cab2c73          	csrrs	s8,0x5ca,s6
    3f1a:	9f222c8f          	0x9f222c8f
    3f1e:	2c9d                	addiw	s9,s9,7
    3f20:	2c45                	addiw	s8,s8,17
    3f22:	b88a2cab          	custom1	25,s4,8,92
    3f26:	2cbd                	addiw	s9,s9,15
    3f28:	2cc21eab          	0x2cc21eab
    3f2c:	ddc4                	sw	s1,60(a1)
    3f2e:	2cd0                	fld	fa2,152(s1)
    3f30:	8849                	andi	s0,s0,18
    3f32:	2cd8                	fld	fa4,152(s1)
    3f34:	2ce66627          	0x2ce66627
    3f38:	6b72                	ld	s6,280(sp)
    3f3a:	2cf4                	fld	fa3,216(s1)
    3f3c:	e584                	sd	s1,8(a1)
    3f3e:	2cf4                	fld	fa3,216(s1)
    3f40:	ceea                	sw	s10,92(sp)
    3f42:	2cfe                	fld	fs9,472(sp)
    3f44:	d921                	beqz	a0,3e94 <verify_data+0xa3c>
    3f46:	2d08                	fld	fa0,24(a0)
    3f48:	9006                	0x9006
    3f4a:	2d0c                	fld	fa1,24(a0)
    3f4c:	2d2aea73          	csrrs	s4,0x2d2,21
    3f50:	8c8c                	0x8c8c
    3f52:	2d2d                	addiw	s10,s10,11
    3f54:	d426                	sw	s1,40(sp)
    3f56:	2d30                	fld	fa2,88(a0)
    3f58:	eda1                	bnez	a1,3fb0 <verify_data+0xb58>
    3f5a:	2d68                	fld	fa0,216(a0)
    3f5c:	2d73d15b          	0x2d73d15b
    3f60:	7cb6                	ld	s9,360(sp)
    3f62:	fe492d97          	auipc	s11,0xfe492
    3f66:	ddde2d97          	auipc	s11,0xddde2
    3f6a:	2d9e                	fld	fs11,448(sp)
    3f6c:	ac55                	j	4220 <verify_data+0xdc8>
    3f6e:	0f762da3          	sw	s7,251(a2) # 292dc0fb <_gp+0x292d64a3>
    3f72:	ec892dbb          	0xec892dbb
    3f76:	2dc4                	fld	fs1,152(a1)
    3f78:	95c4                	0x95c4
    3f7a:	2dc9                	addiw	s11,s11,18
    3f7c:	17e0                	addi	s0,sp,1004
    3f7e:	2dd6                	fld	fs11,336(sp)
    3f80:	2deb91bf 2df3dfcb 	0x2df3dfcb2deb91bf
    3f88:	2e04b247          	0x2e04b247
    3f8c:	9db6                	add	s11,s11,a3
    3f8e:	77ef2e07          	flw	ft8,1918(t5) # 1677e <_gp+0x10b26>
    3f92:	0dbb2e0b          	custom0	28,s6,27,6
    3f96:	2e16                	fld	ft8,320(sp)
    3f98:	b07f                	0xb07f
    3f9a:	2e56                	fld	ft8,336(sp)
    3f9c:	0f7c                	addi	a5,sp,924
    3f9e:	2e6a                	fld	ft8,152(sp)
    3fa0:	2e6c133b          	0x2e6c133b
    3fa4:	078a                	slli	a5,a5,0x2
    3fa6:	2e70                	fld	fa2,216(a2)
    3fa8:	26e2                	fld	fa3,24(sp)
    3faa:	2eb2                	fld	ft9,264(sp)
    3fac:	3bb4                	fld	fa3,112(a5)
    3fae:	2ed0                	fld	fa2,152(a3)
    3fb0:	4040                	lw	s0,4(s0)
    3fb2:	2ed9                	addiw	t4,t4,22
    3fb4:	f2c1                	bnez	a3,3f34 <verify_data+0xadc>
    3fb6:	2edd                	addiw	t4,t4,23
    3fb8:	0df8                	addi	a4,sp,732
    3fba:	2ee2                	fld	ft9,24(sp)
    3fbc:	2eea494b          	0x2eea494b
    3fc0:	def5                	beqz	a3,3fbc <verify_data+0xb64>
    3fc2:	2ef0                	fld	fa2,216(a3)
    3fc4:	8746                	mv	a4,a7
    3fc6:	2ef5                	addiw	t4,t4,29
    3fc8:	9bd8                	0x9bd8
    3fca:	2ef6                	fld	ft9,344(sp)
    3fcc:	5b1f 2f1a 9f26      	0x9f262f1a5b1f
    3fd2:	2f24                	fld	fs1,88(a4)
    3fd4:	9259                	srli	a2,a2,0x36
    3fd6:	2f28                	fld	fa0,88(a4)
    3fd8:	91a6                	add	gp,gp,s1
    3fda:	ef642f2b          	custom1	30,s0,22,119
    3fde:	b4642f4b          	0xb4642f4b
    3fe2:	2f70                	fld	fa2,216(a4)
    3fe4:	2c50                	fld	fa2,152(s0)
    3fe6:	2f82                	fld	ft11,0(sp)
    3fe8:	5026                	0x5026
    3fea:	d1cb2f97          	auipc	t6,0xd1cb2
    3fee:	b6d42fa7          	fsw	fa3,-1153(s0)
    3ff2:	2faa                	fld	ft11,136(sp)
    3ff4:	2fb80fd7          	0x2fb80fd7
    3ff8:	21dc                	fld	fa5,128(a1)
    3ffa:	2fb9                	addiw	t6,t6,14
    3ffc:	2fbefe13          	andi	t3,t4,763
    4000:	2fc79aeb          	0x2fc79aeb
    4004:	2fcade4f          	0x2fcade4f
    4008:	b366                	fsd	fs9,416(sp)
    400a:	2fd8                	fld	fa4,152(a5)
    400c:	2ff1affb          	custom3	31,gp,31,23
    4010:	30107333          	0x30107333
    4014:	301453e7          	0x301453e7
    4018:	3014dbb7          	lui	s7,0x3014d
    401c:	94ee                	add	s1,s1,s11
    401e:	3041                	0x3041
    4020:	86c8                	0x86c8
    4022:	304d                	0x304d
    4024:	81e5                	srli	a1,a1,0x19
    4026:	93fd304f          	fnmadd.d	ft0,fs10,ft11,fs2,rup
    402a:	89643067          	0x89643067
    402e:	306a                	fld	ft0,184(sp)
    4030:	2809                	addiw	a6,a6,2
    4032:	3401306b          	0x3401306b
    4036:	307d                	0x307d
    4038:	46b2                	lw	a3,12(sp)
    403a:	3089                	addiw	ra,ra,-30
    403c:	9914                	0x9914
    403e:	3095                	addiw	ra,ra,-27
    4040:	cd5f 30b8 735e      	0x735e30b8cd5f
    4046:	30ee                	fld	ft1,248(sp)
    4048:	d0d4                	sw	a3,36(s1)
    404a:	30f6                	fld	ft1,376(sp)
    404c:	6af4                	ld	a3,208(a3)
    404e:	3108                	fld	fa0,32(a0)
    4050:	1d65                	addi	s10,s10,-7
    4052:	3116                	fld	ft2,352(sp)
    4054:	31529973          	csrrw	s2,0x315,t0
    4058:	3170694b          	fnmsub.s	fs2,ft0,fs7,ft6,unknown
    405c:	31766a3f 3181e05e 	0x3181e05e31766a3f
    4064:	318c2ea3          	sw	s8,797(s8)
    4068:	318c39e7          	0x318c39e7
    406c:	8c7a                	mv	s8,t5
    406e:	3198                	fld	fa4,32(a1)
    4070:	dfc5                	beqz	a5,4028 <verify_data+0xbd0>
    4072:	31a6                	fld	ft3,104(sp)
    4074:	31bc1683          	lh	a3,795(s8)
    4078:	0fec                	addi	a1,sp,988
    407a:	31c6                	fld	ft3,112(sp)
    407c:	d196                	sw	t0,224(sp)
    407e:	31cc                	fld	fa1,160(a1)
    4080:	0a74                	addi	a3,sp,284
    4082:	31d9                	addiw	gp,gp,-10
    4084:	58ee                	lw	a7,248(sp)
    4086:	fa4731e3          	0xfa4731e3
    408a:	100a31e3          	0x100a31e3
    408e:	31ec                	fld	fa1,224(a1)
    4090:	de75                	beqz	a2,408c <verify_data+0xc34>
    4092:	3209                	addiw	tp,tp,-30
    4094:	3213004b          	fnmsub.d	ft0,ft6,ft1,ft6,rne
    4098:	6e71                	lui	t3,0x1c
    409a:	324a                	fld	ft4,176(sp)
    409c:	324f49f7          	0x324f49f7
    40a0:	5676                	lw	a2,124(sp)
    40a2:	3268                	fld	fa0,224(a2)
    40a4:	e084                	sd	s1,0(s1)
    40a6:	326e                	fld	ft4,248(sp)
    40a8:	dd86                	sw	ra,248(sp)
    40aa:	3276                	fld	ft4,376(sp)
    40ac:	19a6                	slli	s3,s3,0x29
    40ae:	3280                	fld	fs0,32(a3)
    40b0:	9e1e                	add	t3,t3,t2
    40b2:	328d                	addiw	t0,t0,-29
    40b4:	32919983          	lh	s3,809(gp) # ffffffffe9c70329 <_gp+0xffffffffe9c6a6d1>
    40b8:	2dde                	fld	fs11,464(sp)
    40ba:	32a2                	fld	ft5,40(sp)
    40bc:	24ff                	0x24ff
    40be:	32be                	fld	ft5,488(sp)
    40c0:	29b6                	fld	fs3,328(sp)
    40c2:	32c4                	fld	fs1,160(a3)
    40c4:	a565                	j	476c <verify_data+0x1314>
    40c6:	32cd                	addiw	t0,t0,-13
    40c8:	6a74                	ld	a3,208(a2)
    40ca:	32ce                	fld	ft5,240(sp)
    40cc:	3d32                	fld	fs10,296(sp)
    40ce:	32d5                	addiw	t0,t0,-11
    40d0:	127e                	slli	tp,tp,0x3f
    40d2:	32e0                	fld	fs0,224(a3)
    40d4:	32ee431b          	0x32ee431b
    40d8:	e815                	bnez	s0,410c <verify_data+0xcb4>
    40da:	ffd432f7          	0xffd432f7
    40de:	330e                	fld	ft6,224(sp)
    40e0:	4b8a                	lw	s7,128(sp)
    40e2:	3312                	fld	ft6,288(sp)
    40e4:	33226d3b          	0x33226d3b
    40e8:	bb69                	j	3e82 <verify_data+0xa2a>
    40ea:	3324                	fld	fs1,96(a4)
    40ec:	57fc                	lw	a5,108(a5)
    40ee:	3326                	fld	ft6,104(sp)
    40f0:	3085                	addiw	ra,ra,-31
    40f2:	3339                	addiw	t1,t1,-18
    40f4:	a3bc                	fsd	fa5,64(a5)
    40f6:	333c                	fld	fa5,96(a4)
    40f8:	3348100b          	0x3348100b
    40fc:	bf5f 3378 37b1      	0x37b13378bf5f
    4102:	337a                	fld	ft6,440(sp)
    4104:	9944                	0x9944
    4106:	339f 69aa 33a5      	0x33a569aa339f
    410c:	26c9                	addiw	a3,a3,18
    410e:	d57033ab          	custom1	7,zero,s7,106
    4112:	33ac                	fld	fa1,96(a5)
    4114:	f61d                	bnez	a2,4042 <verify_data+0xbea>
    4116:	33b6                	fld	ft7,360(sp)
    4118:	e796                	sd	t0,456(sp)
    411a:	33d8                	fld	fa4,160(a5)
    411c:	33f842cb          	fnmsub.d	ft5,fa6,ft11,ft6,rmm
    4120:	34127047          	0x34127047
    4124:	3417d43b          	0x3417d43b
    4128:	86a9                	srai	a3,a3,0xa
    412a:	341a                	fld	fs0,416(sp)
    412c:	342ec987          	0x342ec987
    4130:	b01d                	j	3956 <verify_data+0x4fe>
    4132:	3438                	fld	fa4,104(s0)
    4134:	c77a                	sw	t5,140(sp)
    4136:	345f 935e 3460      	0x3460935e345f
    413c:	b74e                	fsd	fs3,424(sp)
    413e:	3462                	fld	fs0,56(sp)
    4140:	47ff                	0x47ff
    4142:	346a                	fld	fs0,184(sp)
    4144:	e798                	sd	a4,8(a5)
    4146:	346c                	fld	fa1,232(s0)
    4148:	e0a8                	sd	a0,64(s1)
    414a:	3471                	addiw	s0,s0,-4
    414c:	b34e                	fsd	fs3,416(sp)
    414e:	347a                	fld	fs0,440(sp)
    4150:	347e3b97          	auipc	s7,0x347e3
    4154:	3491fb3f 34968f93 	0x34968f933491fb3f
    415c:	3499a707          	flw	fa4,841(s3) # ffffffff986b6193 <_gp+0xffffffff986b053b>
    4160:	5b28                	lw	a0,112(a4)
    4162:	34cd                	addiw	s1,s1,-13
    4164:	3644                	fld	fs1,168(a2)
    4166:	34de                	fld	fs1,496(sp)
    4168:	6341                	lui	t1,0x10
    416a:	5cce34eb          	0x5cce34eb
    416e:	6b953513          	sltiu	a0,a0,1721
    4172:	3526                	fld	fa0,104(sp)
    4174:	99c5                	andi	a1,a1,-15
    4176:	2e883533          	0x2e883533
    417a:	3539                	addiw	a0,a0,-18
    417c:	b79f 353e 36c6      	0x36c6353eb79f
    4182:	b68b3543          	0xb68b3543
    4186:	3548                	fld	fa0,168(a0)
    4188:	1a2c                	addi	a1,sp,312
    418a:	3555                	addiw	a0,a0,-11
    418c:	a8ed                	j	4286 <verify_data+0xe2e>
    418e:	d7583557          	0xd7583557
    4192:	3559                	addiw	a0,a0,-10
    4194:	3150                	fld	fa2,160(a0)
    4196:	3561                	addiw	a0,a0,-8
    4198:	05a2                	slli	a1,a1,0x8
    419a:	3594                	fld	fa3,40(a1)
    419c:	35ae                	fld	fa1,232(sp)
    419e:	35c0                	fld	fs0,168(a1)
    41a0:	5411                	li	s0,-28
    41a2:	35e6                	fld	fa1,120(sp)
    41a4:	360e2f13          	slti	t5,t3,864
    41a8:	3615d7bf 36182d7f 	0x36182d7f3615d7bf
    41b0:	69d9                	lui	s3,0x16
    41b2:	3632                	fld	fa2,296(sp)
    41b4:	93c9                	srli	a5,a5,0x32
    41b6:	3634                	fld	fa3,104(a2)
    41b8:	d420                	sw	s0,104(s0)
    41ba:	d5de3647          	0xd5de3647
    41be:	3661                	addiw	a2,a2,-8
    41c0:	5b94                	lw	a3,48(a5)
    41c2:	3688                	fld	fa0,40(a3)
    41c4:	42ad                	li	t0,11
    41c6:	3698                	fld	fa4,40(a3)
    41c8:	2b51                	addiw	s6,s6,20
    41ca:	369a                	fld	fa3,416(sp)
    41cc:	10ae                	slli	ra,ra,0x2b
    41ce:	36b0                	fld	fa2,104(a3)
    41d0:	36bd5793          	0x36bd5793
    41d4:	36d21197          	auipc	gp,0x36d21
    41d8:	181a                	slli	a6,a6,0x26
    41da:	36ee                	fld	fa3,248(sp)
    41dc:	712a                	ld	sp,168(sp)
    41de:	2af736f7          	0x2af736f7
    41e2:	953f370b          	custom0	14,t5,s3,74
    41e6:	6219370f          	0x6219370f
    41ea:	99ac371b          	0x99ac371b
    41ee:	42b9372b          	custom1	14,s2,a1,33
    41f2:	3731                	addiw	a4,a4,-20
    41f4:	b46e                	fsd	fs11,40(sp)
    41f6:	3734                	fld	fa3,104(a4)
    41f8:	f7b8                	sd	a4,104(a5)
    41fa:	98ff373f e5553741 	0xe555374198ff373f
    4202:	3748                	fld	fa0,168(a4)
    4204:	3752e6c7          	0x3752e6c7
    4208:	375ced43          	0x375ced43
    420c:	c88e                	sw	gp,80(sp)
    420e:	3764                	fld	fs1,232(a4)
    4210:	3774479b          	0x3774479b
    4214:	a8b1                	j	4270 <verify_data+0xe18>
    4216:	a7273793          	sltiu	a5,a4,-1422
    421a:	37a5                	addiw	a5,a5,-23
    421c:	37a6bc03          	ld	s8,890(a3) # 534b137a <_gp+0x534ab722>
    4220:	74e5                	lui	s1,0xffff9
    4222:	37ac                	fld	fa1,104(a5)
    4224:	66c0                	ld	s0,136(a3)
    4226:	37b6                	fld	fa5,360(sp)
    4228:	7574                	ld	a3,232(a0)
    422a:	37c2                	fld	fa5,48(sp)
    422c:	37c3b8f7          	0x37c3b8f7
    4230:	7da5                	lui	s11,0xfffe9
    4232:	37c5                	addiw	a5,a5,-15
    4234:	37c94eb3          	0x37c94eb3
    4238:	b958                	fsd	fa4,176(a0)
    423a:	37da                	fld	fa5,432(sp)
    423c:	626c                	ld	a1,192(a2)
    423e:	37e8                	fld	fa0,232(a5)
    4240:	8c39                	xor	s0,s0,a4
    4242:	37e8                	fld	fa0,232(a5)
    4244:	9834                	0x9834
    4246:	37ff                	0x37ff
    4248:	b6ea                	fsd	fs10,360(sp)
    424a:	381d                	addiw	a6,a6,-25
    424c:	b3cd                	j	402e <verify_data+0xbd6>
    424e:	3834                	fld	fa3,112(s0)
    4250:	578e                	lw	a5,224(sp)
    4252:	3842                	fld	fa6,48(sp)
    4254:	20f1                	addiw	ra,ra,28
    4256:	384a                	fld	fa6,176(sp)
    4258:	092d                	addi	s2,s2,11
    425a:	3862                	fld	fa6,56(sp)
    425c:	38679167          	0x38679167
    4260:	4d02                	lw	s10,0(sp)
    4262:	3869                	addiw	a6,a6,-6
    4264:	386a4a27          	0x386a4a27
    4268:	cfc9                	beqz	a5,4302 <verify_data+0xeaa>
    426a:	c145388b          	custom0	17,a0,s4,96
    426e:	3890                	fld	fa2,48(s1)
    4270:	3893fc2f          	0x3893fc2f
    4274:	ffda                	sd	s6,504(sp)
    4276:	389f 05d1 38b3      	0x38b305d1389f
    427c:	38b93c73          	csrrc	s8,0x38b,s2
    4280:	f23d                	bnez	a2,41e6 <verify_data+0xd8e>
    4282:	38ca                	fld	fa7,176(sp)
    4284:	7b46                	ld	s6,112(sp)
    4286:	023138d3          	fadd.d	fa7,ft2,ft3,rup
    428a:	a07c38db          	custom2	17,s8,t2,80
    428e:	db9c38e3          	0xdb9c38e3
    4292:	38ea                	fld	fa7,184(sp)
    4294:	4292                	lw	t0,4(sp)
    4296:	3b0338eb          	0x3b0338eb
    429a:	bd26390b          	custom0	18,a2,s2,94
    429e:	3925                	addiw	s2,s2,-23
    42a0:	9561                	srai	a0,a0,0x38
    42a2:	392e                	fld	fs2,232(sp)
    42a4:	6cd4                	ld	a3,152(s1)
    42a6:	c9d63947          	fmsub.s	fs2,fa2,ft9,fs9,rup
    42aa:	397a                	fld	fs2,440(sp)
    42ac:	35c4                	fld	fs1,168(a1)
    42ae:	398c                	fld	fa1,48(a1)
    42b0:	398d5073          	csrwi	0x398,26
    42b4:	399987cf          	fnmadd.s	fa5,fs3,fs9,ft7,rne
    42b8:	737c                	ld	a5,224(a4)
    42ba:	eec339bf 6d6839c2 	0x6d6839c2eec339bf
    42c2:	39c6                	fld	fs3,112(sp)
    42c4:	3b7f                	0x3b7f
    42c6:	674339c7          	0x674339c7
    42ca:	39c9                	addiw	s3,s3,-14
    42cc:	fdf6                	sd	t4,248(sp)
    42ce:	708e39d3          	0x708e39d3
    42d2:	39f0                	fld	fa2,240(a1)
    42d4:	6835                	lui	a6,0xd
    42d6:	3a04                	fld	fs1,48(a2)
    42d8:	493e                	lw	s2,204(sp)
    42da:	3a06                	fld	fs4,96(sp)
    42dc:	56e2                	lw	a3,56(sp)
    42de:	3a06                	fld	fs4,96(sp)
    42e0:	3a0a8c2b          	custom1	24,21,0,29
    42e4:	cef4                	sw	a3,92(a3)
    42e6:	3a2c                	fld	fa1,112(a2)
    42e8:	8a86                	mv	s5,ra
    42ea:	3a2d                	addiw	s4,s4,-21
    42ec:	c658                	sw	a4,12(a2)
    42ee:	3a42                	fld	fs4,48(sp)
    42f0:	3a49aebb          	0x3a49aebb
    42f4:	de5c                	sw	a5,60(a2)
    42f6:	3a4e                	fld	fs4,240(sp)
    42f8:	56ec                	lw	a1,108(a3)
    42fa:	3a74                	fld	fa3,240(a2)
    42fc:	c985                	beqz	a1,432c <verify_data+0xed4>
    42fe:	3a76                	fld	fs4,376(sp)
    4300:	3a980e8b          	custom0	29,16,9,29
    4304:	3aba90eb          	0x3aba90eb
    4308:	3ac8d43b          	0x3ac8d43b
    430c:	0afe                	slli	s5,s5,0x1f
    430e:	3ae0                	fld	fs0,240(a3)
    4310:	4361                	li	t1,24
    4312:	3aea                	fld	fs5,184(sp)
    4314:	3b13e5b7          	lui	a1,0x3b13e
    4318:	cef1                	beqz	a3,43f4 <verify_data+0xf9c>
    431a:	3b1e                	fld	fs6,480(sp)
    431c:	fafd                	bnez	a3,4312 <verify_data+0xeba>
    431e:	3b26                	fld	fs6,104(sp)
    4320:	fdc5                	bnez	a1,42d8 <verify_data+0xe80>
    4322:	fc5c3b37          	lui	s6,0xfc5c3
    4326:	af763b3b          	0xaf763b3b
    432a:	ed023b43          	0xed023b43
    432e:	3b76                	fld	fs6,376(sp)
    4330:	7cce                	ld	s9,240(sp)
    4332:	3b8a                	fld	fs7,160(sp)
    4334:	07e4                	addi	s1,sp,972
    4336:	d0de3b8f          	0xd0de3b8f
    433a:	3b90                	fld	fa2,48(a5)
    433c:	3b99408f          	0x3b99408f
    4340:	3eb0                	fld	fa2,120(a3)
    4342:	3c06                	fld	fs8,96(sp)
    4344:	e4c1                	bnez	s1,43cc <verify_data+0xf74>
    4346:	3c39                	addiw	s8,s8,-18
    4348:	02ec                	addi	a1,sp,332
    434a:	3c49                	addiw	s8,s8,-14
    434c:	de19                	beqz	a2,426a <verify_data+0xe12>
    434e:	3c49                	addiw	s8,s8,-14
    4350:	bdbd                	j	41ce <verify_data+0xd76>
    4352:	3a763c4b          	fnmsub.d	fs8,fa2,ft7,ft7,rup
    4356:	e86b3c5b          	custom2	24,s6,t1,116
    435a:	3c6e                	fld	fs8,248(sp)
    435c:	1752                	slli	a4,a4,0x34
    435e:	3c96                	fld	fs9,352(sp)
    4360:	3c985217          	auipc	tp,0x3c985
    4364:	8b6a                	mv	s6,s10
    4366:	3ccc                	fld	fa1,184(s1)
    4368:	71b9                	lui	gp,0xfffee
    436a:	a1413cdb          	custom2	25,sp,s4,80
    436e:	0d013cf7          	0xd013cf7
    4372:	3d1a                	fld	fs10,416(sp)
    4374:	bfe5                	j	436c <verify_data+0xf14>
    4376:	3d2c                	fld	fa1,120(a0)
    4378:	54be                	lw	s1,236(sp)
    437a:	3d2d                	addiw	s10,s10,-21
    437c:	5ae1                	li	s5,-8
    437e:	3d42                	fld	fs10,48(sp)
    4380:	3d4262f7          	0x3d4262f7
    4384:	1d74                	addi	a3,sp,700
    4386:	3d4e                	fld	fs10,240(sp)
    4388:	8d0c                	0x8d0c
    438a:	3d52                	fld	fs10,304(sp)
    438c:	56d6                	lw	a3,116(sp)
    438e:	3d54                	fld	fa3,184(a0)
    4390:	fb3a                	sd	a4,432(sp)
    4392:	742a3d57          	0x742a3d57
    4396:	3d5a                	fld	fs10,432(sp)
    4398:	00fc                	addi	a5,sp,76
    439a:	3d62                	fld	fs10,56(sp)
    439c:	592a                	lw	s2,168(sp)
    439e:	3d7d                	addiw	s10,s10,-1
    43a0:	7fc4                	ld	s1,184(a5)
    43a2:	3d8e                	fld	fs11,224(sp)
    43a4:	3d9105a3          	sb	s9,971(sp)
    43a8:	38e6                	fld	fa7,120(sp)
    43aa:	3da0                	fld	fs0,120(a1)
    43ac:	ffa0                	sd	s0,120(a5)
    43ae:	3db1                	addiw	s11,s11,-20
    43b0:	3dbf7153          	0x3dbf7153
    43b4:	50ad                	li	ra,-21
    43b6:	e9283dd7          	0xe9283dd7
    43ba:	3dde                	fld	fs11,496(sp)
    43bc:	4c2e                	lw	s8,200(sp)
    43be:	b7773deb          	0xb7773deb
    43c2:	0a4d3e27          	fsd	ft4,188(s10)
    43c6:	3e2a                	fld	ft8,168(sp)
    43c8:	f67f                	0xf67f
    43ca:	3e38                	fld	fa4,120(a2)
    43cc:	3e3b8743          	0x3e3b8743
    43d0:	3e5303f7          	0x3e5303f7
    43d4:	79d1                	lui	s3,0xffff4
    43d6:	17143e53          	0x17143e53
    43da:	3e6d                	addiw	t3,t3,-5
    43dc:	99ec                	0x99ec
    43de:	3e85                	addiw	t4,t4,-31
    43e0:	b8b0                	fsd	fa2,112(s1)
    43e2:	3e8d                	addiw	t4,t4,-29
    43e4:	6ce8                	ld	a0,216(s1)
    43e6:	8b753e9b          	0x8b753e9b
    43ea:	3e9d                	addiw	t4,t4,-25
    43ec:	ccad                	beqz	s1,4466 <verify_data+0x100e>
    43ee:	c5723ea7          	fsd	fs7,-931(tp) # 3c988fbd <_gp+0x3c983365>
    43f2:	99263ed3          	0x99263ed3
    43f6:	3f00                	fld	fs0,56(a4)
    43f8:	227f                	0x227f
    43fa:	3f1a                	fld	ft10,416(sp)
    43fc:	1b75                	addi	s6,s6,-3
    43fe:	3f1e                	fld	ft10,480(sp)
    4400:	c5ee                	sw	s11,200(sp)
    4402:	3f4a                	fld	ft10,176(sp)
    4404:	204c                	fld	fa1,128(s0)
    4406:	3f66                	fld	ft10,120(sp)
    4408:	7168                	ld	a0,224(a0)
    440a:	d17c3f67          	0xd17c3f67
    440e:	e53c3f67          	0xe53c3f67
    4412:	3f68                	fld	fa0,248(a4)
    4414:	b11e                	fsd	ft7,160(sp)
    4416:	3f7c                	fld	fa5,248(a4)
    4418:	f425                	bnez	s0,4380 <verify_data+0xf28>
    441a:	3f81                	addiw	t6,t6,-32
    441c:	156e                	slli	a0,a0,0x3b
    441e:	3f8a                	fld	ft11,160(sp)
    4420:	3f95e34b          	0x3f95e34b
    4424:	f67d                	bnez	a2,4412 <verify_data+0xfba>
    4426:	3fa4                	fld	fs1,120(a5)
    4428:	5aa8                	lw	a0,112(a3)
    442a:	3fb1                	addiw	t6,t6,-20
    442c:	91b1                	srli	a1,a1,0x2c
    442e:	3fb4                	fld	fa3,120(a5)
    4430:	83ba                	mv	t2,a4
    4432:	3fbe                	fld	ft11,488(sp)
    4434:	4afd                	li	s5,31
    4436:	3fff                	0x3fff
    4438:	fa46                	sd	a7,304(sp)
    443a:	4001                	0x4001
    443c:	1229                	addi	tp,tp,-22
    443e:	d5c84007          	0xd5c84007
    4442:	401e                	0x401e
    4444:	7e40                	ld	s0,184(a2)
    4446:	4025                	0x4025
    4448:	4043fd5b          	custom2	s10,t2,tp,32
    444c:	405d5a9b          	sraiw	s5,s10,0x5
    4450:	a050                	fsd	fa2,128(s0)
    4452:	4085                	li	ra,1
    4454:	345c                	fld	fa5,168(s0)
    4456:	7651408b          	custom0	ra,2,5,59
    445a:	c4ff408b          	custom0	ra,30,15,98
    445e:	40b0                	lw	a2,64(s1)
    4460:	4885                	li	a7,1
    4462:	40cd                	li	ra,19
    4464:	0d2d                	addi	s10,s10,11
    4466:	40ce                	lw	ra,208(sp)
    4468:	24f2                	fld	fs1,280(sp)
    446a:	40ce                	lw	ra,208(sp)
    446c:	cc41                	beqz	s0,4504 <verify_data+0x10ac>
    446e:	40d2                	lw	ra,20(sp)
    4470:	a17a                	fsd	ft10,128(sp)
    4472:	40d5                	li	ra,21
    4474:	0dea                	slli	s11,s11,0x1a
    4476:	a95e40ef          	jal	fffffffffffe8f0a <_gp+0xfffffffffffe32b2>
    447a:	ad3840f3          	0xad3840f3
    447e:	40f9                	li	ra,30
    4480:	f865                	bnez	s0,4470 <verify_data+0x1018>
    4482:	40fd                	li	ra,31
    4484:	40fed847          	fmsub.s	fa6,ft9,fa5,fs0,unknown
    4488:	411c6f63          	bltu	s8,a7,48a6 <verify_data+0x144e>
    448c:	41240a87          	0x41240a87
    4490:	6f6a                	ld	t5,152(sp)
    4492:	4139                	li	sp,14
    4494:	3ab2                	fld	fs5,296(sp)
    4496:	413d                	li	sp,15
    4498:	88ae                	mv	a7,a1
    449a:	414a                	lw	sp,144(sp)
    449c:	58f0                	lw	a2,116(s1)
    449e:	418e                	lw	gp,192(sp)
    44a0:	4ba0                	lw	s0,80(a5)
    44a2:	4191                	li	gp,4
    44a4:	07d4                	addi	a3,sp,964
    44a6:	4192                	lw	gp,4(sp)
    44a8:	41aaf2ef          	jal	t0,b38c2 <_gp+0xadc6a>
    44ac:	2be4                	fld	fs1,208(a5)
    44ae:	41ae                	lw	gp,200(sp)
    44b0:	a764                	fsd	fs1,200(a4)
    44b2:	41b5                	li	gp,13
    44b4:	65ff                	0x65ff
    44b6:	41b8                	lw	a4,64(a1)
    44b8:	a514                	fsd	fa3,8(a0)
    44ba:	41be                	lw	gp,204(sp)
    44bc:	94ba                	add	s1,s1,a4
    44be:	41f6                	lw	gp,92(sp)
    44c0:	422f2997          	auipc	s3,0x422f2
    44c4:	c726                	sw	s1,140(sp)
    44c6:	a0e2423b          	0xa0e2423b
    44ca:	4248                	lw	a0,4(a2)
    44cc:	f095                	bnez	s1,43f0 <verify_data+0xf98>
    44ce:	4252                	lw	tp,20(sp)
    44d0:	9e80                	0x9e80
    44d2:	4261                	li	tp,24
    44d4:	8d86                	mv	s11,ra
    44d6:	42d0                	lw	a2,4(a3)
    44d8:	42d7b4a3          	sd	a3,1065(a5) # 1f8b7429 <_gp+0x1f8b17d1>
    44dc:	42dd5013          	srai	zero,s10,0x2d
    44e0:	42dfc0af          	0x42dfc0af
    44e4:	1664                	addi	s1,sp,812
    44e6:	42ec                	lw	a1,68(a3)
    44e8:	aca1                	j	4740 <verify_data+0x12e8>
    44ea:	42f4                	lw	a3,68(a3)
    44ec:	1936                	slli	s2,s2,0x2d
    44ee:	42f8                	lw	a4,68(a3)
    44f0:	430fbce7          	0x430fbce7
    44f4:	b1f5                	j	41e0 <verify_data+0xd88>
    44f6:	431a                	lw	t1,132(sp)
    44f8:	aba4                	fsd	fs1,80(a5)
    44fa:	431d                	li	t1,7
    44fc:	4d99                	li	s11,6
    44fe:	8fd1432f          	0x8fd1432f
    4502:	433a                	lw	t1,140(sp)
    4504:	9488                	0x9488
    4506:	4349                	li	t1,18
    4508:	6781                	lui	a5,0x0
    450a:	c7ab4367          	0xc7ab4367
    450e:	0f3a4373          	0xf3a4373
    4512:	4382                	lw	t2,0(sp)
    4514:	7015                	0x7015
    4516:	19f2438f          	0x19f2438f
    451a:	4396                	lw	t2,68(sp)
    451c:	4adc                	lw	a5,20(a3)
    451e:	439a                	lw	t2,132(sp)
    4520:	d65f 43b2 0354      	0x35443b2d65f
    4526:	43ba                	lw	t2,140(sp)
    4528:	6d74                	ld	a3,216(a0)
    452a:	0be443bb          	0xbe443bb
    452e:	43cd                	li	t2,19
    4530:	43e409b7          	lui	s3,0x43e40
    4534:	3234                	fld	fa3,96(a2)
    4536:	43e6                	lw	t2,88(sp)
    4538:	247f                	0x247f
    453a:	22f943f3          	0x22f943f3
    453e:	43fe                	lw	t2,220(sp)
    4540:	5c12                	lw	s8,36(sp)
    4542:	99ca4423          	0x99ca4423
    4546:	4428                	lw	a0,72(s0)
    4548:	d032                	sw	a2,32(sp)
    454a:	442d                	li	s0,11
    454c:	5118                	lw	a4,32(a0)
    454e:	4430                	lw	a2,72(s0)
    4550:	463a                	lw	a2,140(sp)
    4552:	443a                	lw	s0,140(sp)
    4554:	44630ba3          	sb	t1,1111(t1) # 10457 <_gp+0xa7ff>
    4558:	ef61                	bnez	a4,4630 <verify_data+0x11d8>
    455a:	4469                	li	s0,26
    455c:	4477c207          	0x4477c207
    4560:	1402                	slli	s0,s0,0x20
    4562:	447e                	lw	s0,220(sp)
    4564:	82a8                	0x82a8
    4566:	3cf24497          	auipc	s1,0x3cf24
    456a:	79ab44af          	0x79ab44af
    456e:	44b0                	lw	a2,72(s1)
    4570:	7ed5                	lui	t4,0xffff5
    4572:	44d5                	li	s1,21
    4574:	e886                	sd	ra,80(sp)
    4576:	44de                	lw	s1,212(sp)
    4578:	44e034f3          	csrrc	s1,0x44e,zero
    457c:	be30                	fsd	fa2,120(a2)
    457e:	980f44f3          	0x980f44f3
    4582:	4500                	lw	s0,8(a0)
    4584:	3ef5                	addiw	t4,t4,-3
    4586:	451f 4e25 4520      	0x45204e25451f
    458c:	a5a0                	fsd	fs0,72(a1)
    458e:	4522                	lw	a0,8(sp)
    4590:	bf66                	fsd	fs9,440(sp)
    4592:	4524                	lw	s1,72(a0)
    4594:	452708a7          	0x452708a7
    4598:	45288ea3          	sb	s2,1117(a7)
    459c:	452947fb          	custom3	a5,18,18,34
    45a0:	6738                	ld	a4,72(a4)
    45a2:	452c                	lw	a1,72(a0)
    45a4:	4f90                	lw	a2,24(a5)
    45a6:	453c                	lw	a5,72(a0)
    45a8:	14c2                	slli	s1,s1,0x30
    45aa:	454d                	li	a0,19
    45ac:	4f41                	li	t5,16
    45ae:	39da4577          	0x39da4577
    45b2:	2dac4583          	lbu	a1,730(s8)
    45b6:	4592                	lw	a1,4(sp)
    45b8:	45a55e33          	0x45a55e33
    45bc:	8575                	srai	a0,a0,0x1d
    45be:	45b2                	lw	a1,12(sp)
    45c0:	91ea                	add	gp,gp,s10
    45c2:	45c4                	lw	s1,12(a1)
    45c4:	601e                	0x601e
    45c6:	45c8                	lw	a0,12(a1)
    45c8:	d378                	sw	a4,100(a4)
    45ca:	45cc                	lw	a1,12(a1)
    45cc:	45da2b4b          	0x45da2b4b
    45d0:	45dfbae3          	0x45dfbae3
    45d4:	60d8                	ld	a4,128(s1)
    45d6:	22c245f7          	0x22c245f7
    45da:	45f8                	lw	a4,76(a1)
    45dc:	c688                	sw	a0,8(a3)
    45de:	4602                	lw	a2,0(sp)
    45e0:	2449                	addiw	s0,s0,18
    45e2:	4609                	li	a2,2
    45e4:	952d                	srai	a0,a0,0x2b
    45e6:	4616                	lw	a2,68(sp)
    45e8:	2b82                	fld	fs7,0(sp)
    45ea:	4638                	lw	a4,72(a2)
    45ec:	d58c                	sw	a1,40(a1)
    45ee:	463a                	lw	a2,140(sp)
    45f0:	20ae                	fld	ft1,200(sp)
    45f2:	464e                	lw	a2,208(sp)
    45f4:	5558                	lw	a4,44(a0)
    45f6:	4656                	lw	a2,84(sp)
    45f8:	465d649b          	0x465d649b
    45fc:	8db4                	0x8db4
    45fe:	3a7a4667          	0x3a7a4667
    4602:	468a                	lw	a3,128(sp)
    4604:	fa54                	sd	a3,176(a2)
    4606:	469a                	lw	a3,132(sp)
    4608:	42ff                	0x42ff
    460a:	46ae                	lw	a3,200(sp)
    460c:	46d09d13          	0x46d09d13
    4610:	46dadd13          	0x46dadd13
    4614:	db78                	sw	a4,116(a4)
    4616:	46e0                	lw	s0,76(a3)
    4618:	a1b8                	fsd	fa4,64(a1)
    461a:	8a9e46e3          	blt	t3,s1,3ec6 <verify_data+0xa6e>
    461e:	6c8346fb          	custom3	a3,6,8,54
    4622:	46fe                	lw	a3,220(sp)
    4624:	0e38                	addi	a4,sp,792
    4626:	4705                	li	a4,1
    4628:	dae5                	beqz	a3,4618 <verify_data+0x11c0>
    462a:	470e                	lw	a4,192(sp)
    462c:	9f7d                	0x9f7d
    462e:	d0aa472b          	custom1	a4,20,10,104
    4632:	4735                	li	a4,13
    4634:	47c5                	li	a5,17
    4636:	ead3476b          	0xead3476b
    463a:	1b49476b          	0x1b49476b
    463e:	4775                	li	a4,29
    4640:	229c                	fld	fa5,0(a3)
    4642:	477c                	lw	a5,76(a4)
    4644:	4797b60f          	0x4797b60f
    4648:	479820a3          	sw	s9,1121(a6) # d461 <_gp+0x7809>
    464c:	ddb4                	sw	a3,120(a1)
    464e:	479f 3740 47a5      	0x47a53740479f
    4654:	8ad5                	andi	a3,a3,21
    4656:	155447a7          	0x155447a7
    465a:	47ba                	lw	a5,140(sp)
    465c:	0524                	addi	s1,sp,648
    465e:	47c2                	lw	a5,16(sp)
    4660:	b8f5                	j	3f5c <verify_data+0xb04>
    4662:	47d2                	lw	a5,20(sp)
    4664:	d05f 47da 8286      	0x828647dad05f
    466a:	47e0                	lw	s0,76(a5)
    466c:	b732                	fsd	fa2,424(sp)
    466e:	47e6                	lw	a5,88(sp)
    4670:	481bd9f3          	csrrw	s3,0x481,23
    4674:	0125                	addi	sp,sp,9
    4676:	481f 3db3 4847      	0x48473db3481f
    467c:	8551                	srai	a0,a0,0x14
    467e:	484c                	lw	a1,20(s0)
    4680:	f4ee                	sd	s11,104(sp)
    4682:	4861                	li	a6,24
    4684:	adb0                	fsd	fa2,88(a1)
    4686:	486a                	lw	a6,152(sp)
    4688:	6559                	lui	a0,0x16
    468a:	486c                	lw	a1,84(s0)
    468c:	0341                	addi	t1,t1,16
    468e:	486d                	li	a6,27
    4690:	4881f2b7          	lui	t0,0x4881f
    4694:	36f5                	addiw	a3,a3,-3
    4696:	4896                	lw	a7,68(sp)
    4698:	2d61                	addiw	s10,s10,24
    469a:	48a1                	li	a7,8
    469c:	48bfb5ef          	jal	a1,100326 <_gp+0xfa6ce>
    46a0:	b06d                	j	3f4a <verify_data+0xaf2>
    46a2:	48c5                	li	a7,17
    46a4:	a2c4                	fsd	fs1,128(a3)
    46a6:	48c8                	lw	a0,20(s1)
    46a8:	48d2104f          	fnmadd.s	ft0,ft4,fa3,fs1,rtz
    46ac:	48deb2b3          	0x48deb2b3
    46b0:	c11e                	sw	t2,128(sp)
    46b2:	48ec                	lw	a1,84(s1)
    46b4:	48ee3bd3          	0x48ee3bd3
    46b8:	662c                	ld	a1,72(a2)
    46ba:	48ee                	lw	a7,216(sp)
    46bc:	493e456f          	jal	a0,e934e <_gp+0xe36f6>
    46c0:	2b3c                	fld	fa5,80(a4)
    46c2:	44f24957          	0x44f24957
    46c6:	4961                	li	s2,24
    46c8:	d92d                	beqz	a0,463a <verify_data+0x11e2>
    46ca:	4961                	li	s2,24
    46cc:	49635f53          	0x49635f53
    46d0:	523d                	li	tp,-17
    46d2:	4969                	li	s2,26
    46d4:	ccf5                	beqz	s1,47d0 <verify_data+0x1378>
    46d6:	496d                	li	s2,27
    46d8:	49777d6b          	0x49777d6b
    46dc:	f754                	sd	a3,168(a4)
    46de:	497d                	li	s2,31
    46e0:	6fb9                	lui	t6,0xe
    46e2:	497e                	lw	s2,220(sp)
    46e4:	c139                	beqz	a0,472a <verify_data+0x12d2>
    46e6:	c342498f          	0xc342498f
    46ea:	cba1499b          	0xcba1499b
    46ee:	49b049e3          	bgtz	s11,5380 <verify_data+0x1f28>
    46f2:	49ed                	li	s3,27
    46f4:	4a41b0ab          	custom1	1,gp,tp,37
    46f8:	4a5ba023          	sw	t0,1184(s7) # 347e75f0 <_gp+0x347e1998>
    46fc:	8c9f 4a73 0635      	0x6354a738c9f
    4702:	4a75                	li	s4,29
    4704:	fd96                	sd	t0,248(sp)
    4706:	4a86                	lw	s5,64(sp)
    4708:	ca59                	beqz	a2,479e <verify_data+0x1346>
    470a:	4ad5                	li	s5,21
    470c:	4699                	li	a3,6
    470e:	4add                	li	s5,23
    4710:	5c10                	lw	a2,56(s0)
    4712:	4adf bad6 4ae2      	0x4ae2bad64adf
    4718:	0a4e                	slli	s4,s4,0x13
    471a:	4af4                	lw	a3,84(a3)
    471c:	4b27318b          	custom0	3,a4,s2,37
    4720:	af6d                	j	4eda <verify_data+0x1a82>
    4722:	4b3e                	lw	s6,204(sp)
    4724:	4b8786af          	0x4b8786af
    4728:	3372                	fld	ft6,312(sp)
    472a:	4bae                	lw	s7,200(sp)
    472c:	91ec                	0x91ec
    472e:	d9bb4bc7          	fmsub.s	fs7,fs6,fs11,fs11,rmm
    4732:	058c4be3          	blt	s8,s8,4f88 <verify_data+0x1b30>
    4736:	9b834bef          	jal	s7,fffffffffff388ee <_gp+0xfffffffffff32c96>
    473a:	4bf2                	lw	s7,28(sp)
    473c:	5c1f 4bf6 040c      	0x40c4bf65c1f
    4742:	4c04                	lw	s1,24(s0)
    4744:	97d2                	add	a5,a5,s4
    4746:	4c06                	lw	s8,64(sp)
    4748:	58c2                	lw	a7,48(sp)
    474a:	4c11                	li	s8,4
    474c:	8cce                	mv	s9,s3
    474e:	4c2d                	li	s8,11
    4750:	4c38983f 4c38dab4 	0x4c38dab44c38983f
    4758:	4c3ceec7          	0x4c3ceec7
    475c:	f69e                	sd	t2,360(sp)
    475e:	4c4a                	lw	s8,144(sp)
    4760:	465f 4c61 7db2      	0x7db24c61465f
    4766:	e8004c9b          	0xe8004c9b
    476a:	4cb5                	li	s9,13
    476c:	acda                	fsd	fs6,88(sp)
    476e:	4cb8                	lw	a4,88(s1)
    4770:	4cc2bb0b          	custom0	22,t0,a2,38
    4774:	c236                	sw	a3,4(sp)
    4776:	47684ccf          	0x47684ccf
    477a:	4cd9                	li	s9,22
    477c:	4ced7143          	0x4ced7143
    4780:	a049                	j	4802 <verify_data+0x13aa>
    4782:	4cf2                	lw	s9,28(sp)
    4784:	7b64                	ld	s1,240(a4)
    4786:	2ba04cf3          	0x2ba04cf3
    478a:	4cf4                	lw	a3,92(s1)
    478c:	cad2                	sw	s4,84(sp)
    478e:	4cf9                	li	s9,30
    4790:	1e4c                	addi	a1,sp,820
    4792:	aadb4d03          	lbu	s10,-1363(s6) # fffffffffc5c2aad <_gp+0xfffffffffc5bce55>
    4796:	4d08                	lw	a0,24(a0)
    4798:	4d130333          	0x4d130333
    479c:	345f 4d2e 799b      	0x799b4d2e345f
    47a2:	4d4c                	lw	a1,28(a0)
    47a4:	f848                	sd	a0,176(s0)
    47a6:	4d60                	lw	s0,92(a0)
    47a8:	5bb8                	lw	a4,112(a5)
    47aa:	1a904d77          	0x1a904d77
    47ae:	4d9f fe51 4da5      	0x4da5fe514d9f
    47b4:	6f29                	lui	t5,0xa
    47b6:	4db5                	li	s11,13
    47b8:	cec0                	sw	s0,28(a3)
    47ba:	4dc9                	li	s11,18
    47bc:	4e03cf67          	0x4e03cf67
    47c0:	b8a4                	fsd	fs1,112(s1)
    47c2:	82044e17          	auipc	t3,0x82044
    47c6:	4e34                	lw	a3,88(a2)
    47c8:	b850                	fsd	fa2,176(s0)
    47ca:	4e3a                	lw	t3,140(sp)
    47cc:	4e448da7          	0x4e448da7
    47d0:	4e4c9107          	0x4e4c9107
    47d4:	1808                	addi	a0,sp,48
    47d6:	4e50                	lw	a2,28(a2)
    47d8:	6961                	lui	s2,0x18
    47da:	4e72                	lw	t3,28(sp)
    47dc:	0276                	slli	tp,tp,0x1d
    47de:	4e81                	li	t4,0
    47e0:	e729                	bnez	a4,482a <verify_data+0x13d2>
    47e2:	4e82                	lw	t4,0(sp)
    47e4:	94d2                	add	s1,s1,s4
    47e6:	d2144e8f          	0xd2144e8f
    47ea:	4e9c                	lw	a5,24(a3)
    47ec:	4eaa874f          	0x4eaa874f
    47f0:	8f85                	sub	a5,a5,s1
    47f2:	4eca                	lw	t4,144(sp)
    47f4:	687e                	ld	a6,472(sp)
    47f6:	4ed0                	lw	a2,28(a3)
    47f8:	4ed6bee3          	0x4ed6bee3
    47fc:	9124                	0x9124
    47fe:	85ea4ee7          	0x85ea4ee7
    4802:	4eec                	lw	a1,92(a3)
    4804:	aeb6                	fsd	fa3,344(sp)
    4806:	4ef5                	li	t4,29
    4808:	4efa053b          	0x4efa053b
    480c:	2d0a                	fld	fs10,128(sp)
    480e:	6b084efb          	custom3	t4,16,16,53
    4812:	4f09                	li	t5,2
    4814:	d49f 4f2b 2e2c      	0x2e2c4f2bd49f
    481a:	4f35                	li	t5,13
    481c:	4c14                	lw	a3,24(s0)
    481e:	82e34f5b          	custom2	t5,6,14,65
    4822:	4f5e                	lw	t5,212(sp)
    4824:	7e0c                	ld	a1,56(a2)
    4826:	4f6a                	lw	t5,152(sp)
    4828:	d6f6                	sw	t4,108(sp)
    482a:	2e644f6b          	0x2e644f6b
    482e:	4f6e                	lw	t5,216(sp)
    4830:	4f730137          	lui	sp,0x4f730
    4834:	0661                	addi	a2,a2,24
    4836:	4f80                	lw	s0,24(a5)
    4838:	4e44                	lw	s1,28(a2)
    483a:	4f90                	lw	a2,24(a5)
    483c:	177e                	slli	a4,a4,0x3f
    483e:	4f96                	lw	t6,68(sp)
    4840:	08d9                	addi	a7,a7,22
    4842:	6eff4f97          	auipc	t6,0x6eff4
    4846:	4f9c                	lw	a5,24(a5)
    4848:	9f10                	0x9f10
    484a:	4f9f 6481 4fa3      	0x4fa364814f9f
    4850:	94c6                	add	s1,s1,a7
    4852:	4fa9                	li	t6,10
    4854:	3271                	addiw	tp,tp,-4
    4856:	a3944fb7          	lui	t6,0xa3944
    485a:	4fc1                	li	t6,16
    485c:	fda0                	sd	s0,120(a1)
    485e:	44314fd3          	0x44314fd3
    4862:	4fed                	li	t6,27
    4864:	b9ad                	j	44de <verify_data+0x1086>
    4866:	501d                	0x501d
    4868:	495f 502b d8ac      	0xd8ac502b495f
    486e:	5030                	lw	a2,96(s0)
    4870:	503866b3          	0x503866b3
    4874:	259f 503a ed35      	0xed35503a259f
    487a:	504d                	0x504d
    487c:	5c0d                	li	s8,-29
    487e:	505e                	0x505e
    4880:	8da5                	xor	a1,a1,s1
    4882:	505e                	0x505e
    4884:	5615                	li	a2,-27
    4886:	5081                	li	ra,-32
    4888:	9ad6                	add	s5,s5,s5
    488a:	50a2                	lw	ra,40(sp)
    488c:	5896                	lw	a7,100(sp)
    488e:	636650a7          	0x636650a7
    4892:	50b4                	lw	a3,96(s1)
    4894:	fc05                	bnez	s0,47cc <verify_data+0x1374>
    4896:	50c4                	lw	s1,36(s1)
    4898:	a0ae                	fsd	fa1,64(sp)
    489a:	50c9                	li	ra,-14
    489c:	50dfdaef          	jal	s5,1025a8 <_gp+0xfc950>
    48a0:	67d5                	lui	a5,0x15
    48a2:	511f 6762 5120      	0x51206762511f
    48a8:	b562                	fsd	fs8,168(sp)
    48aa:	5162                	lw	sp,56(sp)
    48ac:	eb98                	sd	a4,16(a5)
    48ae:	5185                	li	gp,-31
    48b0:	518d9d7b          	0x518d9d7b
    48b4:	9932                	add	s2,s2,a2
    48b6:	51b0                	lw	a2,96(a1)
    48b8:	a63a                	fsd	fa4,264(sp)
    48ba:	51c9                	li	gp,-14
    48bc:	3fa1                	addiw	t6,t6,-24
    48be:	51e5                	li	gp,-7
    48c0:	7c82                	ld	s9,32(sp)
    48c2:	049e51e7          	0x49e51e7
    48c6:	51fc                	lw	a5,100(a1)
    48c8:	8b7a                	mv	s6,t5
    48ca:	5222                	lw	tp,40(sp)
    48cc:	5235d287          	0x5235d287
    48d0:	e641                	bnez	a2,4958 <verify_data+0x1500>
    48d2:	5238                	lw	a4,96(a2)
    48d4:	10ed                	addi	ra,ra,-5
    48d6:	5241                	li	tp,-16
    48d8:	34f5                	addiw	s1,s1,-3
    48da:	5266                	lw	tp,120(sp)
    48dc:	52670823          	sb	t1,1328(a4)
    48e0:	52680fd7          	0x52680fd7
    48e4:	4906                	lw	s2,64(sp)
    48e6:	526d                	li	tp,-5
    48e8:	9a3e                	add	s4,s4,a5
    48ea:	adf35273          	csrrw	tp,0xadf,6
    48ee:	5278                	lw	a4,100(a2)
    48f0:	5282f6af          	0x5282f6af
    48f4:	b9a9                	j	454e <verify_data+0x10f6>
    48f6:	9ede5297          	auipc	t0,0x9ede5
    48fa:	52a0                	lw	s0,96(a3)
    48fc:	47ea                	lw	a5,152(sp)
    48fe:	52a2                	lw	t0,40(sp)
    4900:	8c68                	0x8c68
    4902:	52ac                	lw	a1,96(a3)
    4904:	2390                	fld	fa2,0(a5)
    4906:	52b9                	li	t0,-18
    4908:	cb54                	sw	a3,20(a4)
    490a:	52c6                	lw	t0,112(sp)
    490c:	52d6793b          	0x52d6793b
    4910:	52d9061b          	addiw	a2,s2,1325
    4914:	52da5463          	ble	a3,s4,4e3c <verify_data+0x19e4>
    4918:	e6d4                	sd	a3,136(a3)
    491a:	52dd                	li	t0,-9
    491c:	6649                	lui	a2,0x12
    491e:	52de                	lw	t0,244(sp)
    4920:	02a1                	addi	t0,t0,8
    4922:	52e1                	li	t0,-8
    4924:	bc78                	fsd	fa4,248(s0)
    4926:	70bb52e3          	ble	a1,s6,582a <_end+0x2a>
    492a:	52ea                	lw	t0,184(sp)
    492c:	9892                	add	a7,a7,tp
    492e:	52f5                	li	t0,-3
    4930:	b766                	fsd	fs9,424(sp)
    4932:	52fa                	lw	t0,188(sp)
    4934:	5324eef7          	0x5324eef7
    4938:	5328610f          	0x5328610f
    493c:	6e6c                	ld	a1,216(a2)
    493e:	532a                	lw	t1,168(sp)
    4940:	5f7c                	lw	a5,124(a4)
    4942:	50f6533f 167d536d 	0x167d536d50f6533f
    494a:	5370                	lw	a2,100(a4)
    494c:	537361cf          	fnmadd.d	ft3,ft6,fs7,fa0,unknown
    4950:	53807c37          	lui	s8,0x53807
    4954:	538275d3          	0x538275d3
    4958:	8780                	0x8780
    495a:	5390                	lw	a2,32(a5)
    495c:	099e                	slli	s3,s3,0x7
    495e:	539c                	lw	a5,32(a5)
    4960:	53a33aef          	jal	s5,37e9a <_gp+0x32242>
    4964:	da66                	sw	s9,52(sp)
    4966:	70b553ab          	0x70b553ab
    496a:	53ba                	lw	t2,172(sp)
    496c:	53c8cb9b          	0x53c8cb9b
    4970:	53ca3e2f          	0x53ca3e2f
    4974:	8d40                	0x8d40
    4976:	53de                	lw	t2,244(sp)
    4978:	53f8a88b          	custom0	17,a7,31,41
    497c:	a9d0                	fsd	fa2,144(a1)
    497e:	a88853fb          	0xa88853fb
    4982:	5431                	li	s0,-20
    4984:	ce4c                	sw	a1,28(a2)
    4986:	5445                	li	s0,-15
    4988:	148d                	addi	s1,s1,-29
    498a:	544a                	lw	s0,176(sp)
    498c:	6075                	0x6075
    498e:	544a                	lw	s0,176(sp)
    4990:	2416                	fld	fs0,320(sp)
    4992:	545d                	li	s0,-9
    4994:	0c00                	addi	s0,sp,528
    4996:	547c                	lw	a5,108(s0)
    4998:	e13c                	sd	a5,64(a0)
    499a:	547e                	lw	s0,252(sp)
    499c:	d742                	sw	a6,172(sp)
    499e:	af9c54af          	0xaf9c54af
    49a2:	54ec                	lw	a1,108(s1)
    49a4:	a2b4                	fsd	fa3,64(a3)
    49a6:	54ed                	li	s1,-5
    49a8:	6adf 5506 fc8e      	0xfc8e55066adf
    49ae:	5515                	li	a0,-27
    49b0:	f601                	bnez	a2,48b8 <verify_data+0x1460>
    49b2:	5520                	lw	s0,104(a0)
    49b4:	9b08                	0x9b08
    49b6:	5548                	lw	a0,44(a0)
    49b8:	5552d8af          	0x5552d8af
    49bc:	5557c007          	0x5557c007
    49c0:	5579cfa7          	0x5579cfa7
    49c4:	5582c697          	auipc	a3,0x5582c
    49c8:	7b2e                	ld	s6,232(sp)
    49ca:	5595                	li	a1,-27
    49cc:	1f9c                	addi	a5,sp,1008
    49ce:	55a9                	li	a1,-22
    49d0:	e12a                	sd	a0,128(sp)
    49d2:	55d6                	lw	a1,116(sp)
    49d4:	4c62                	lw	s8,24(sp)
    49d6:	55f0                	lw	a2,108(a1)
    49d8:	56126e87          	0x56126e87
    49dc:	ddb0                	sw	a2,120(a1)
    49de:	5612                	lw	a2,36(sp)
    49e0:	657f                	0x657f
    49e2:	5624                	lw	s1,104(a2)
    49e4:	35e2                	fld	fa1,56(sp)
    49e6:	5625                	li	a2,-23
    49e8:	54c2                	lw	s1,48(sp)
    49ea:	5626                	lw	a2,104(sp)
    49ec:	5646a03f 564cd780 	0x564cd7805646a03f
    49f4:	dc38                	sw	a4,120(s0)
    49f6:	567a                	lw	a2,188(sp)
    49f8:	5680bd3f 56834290 	0x568342905680bd3f
    4a00:	17e6                	slli	a5,a5,0x39
    4a02:	56a1                	li	a3,-24
    4a04:	56be5ff3          	csrrw	t6,0x56b,28
    4a08:	16b2                	slli	a3,a3,0x2c
    4a0a:	56c5                	li	a3,-15
    4a0c:	263e                	fld	fa2,456(sp)
    4a0e:	56df 1c4d 56f8      	0x56f81c4d56df
    4a14:	b0b9                	j	4262 <verify_data+0xe0a>
    4a16:	56f8                	lw	a4,108(a3)
    4a18:	3468                	fld	fa0,232(s0)
    4a1a:	56fe                	lw	a3,252(sp)
    4a1c:	0bc1                	addi	s7,s7,16
    4a1e:	5700                	lw	s0,40(a4)
    4a20:	4838                	lw	a4,80(s0)
    4a22:	02115727          	0x2115727
    4a26:	572c                	lw	a1,104(a4)
    4a28:	3a00                	fld	fs0,48(a2)
    4a2a:	5730                	lw	a2,104(a4)
    4a2c:	6a81                	lui	s5,0x0
    4a2e:	5732                	lw	a4,44(sp)
    4a30:	5737b9e3          	0x5737b9e3
    4a34:	08ff                	0x8ff
    4a36:	c149576b          	0xc149576b
    4a3a:	6483576b          	0x6483576b
    4a3e:	5776                	lw	a4,124(sp)
    4a40:	5511                	li	a0,-28
    4a42:	c65d5787          	0xc65d5787
    4a46:	57a2                	lw	a5,40(sp)
    4a48:	b06e                	fsd	fs11,32(sp)
    4a4a:	b82b57af          	0xb82b57af
    4a4e:	57b4                	lw	a3,104(a5)
    4a50:	ceb2                	sw	a2,92(sp)
    4a52:	57b6                	lw	a5,108(sp)
    4a54:	973c                	0x973c
    4a56:	57c5                	li	a5,-15
    4a58:	57cebc73          	csrrc	s8,0x57c,t4
    4a5c:	6a2e                	ld	s4,200(sp)
    4a5e:	73e657d7          	0x73e657d7
    4a62:	57f4                	lw	a3,108(a5)
    4a64:	2e9a                	fld	ft9,384(sp)
    4a66:	f556583b          	0xf556583b
    4a6a:	b0c8583b          	0xb0c8583b
    4a6e:	583d                	li	a6,-17
    4a70:	86a0                	0x86a0
    4a72:	5864                	lw	s1,116(s0)
    4a74:	9850                	0x9850
    4a76:	588e                	lw	a7,224(sp)
    4a78:	a0ea                	fsd	fs10,64(sp)
    4a7a:	4ae3589b          	0x4ae3589b
    4a7e:	01ab58ab          	0x1ab58ab
    4a82:	236f58cb          	fnmsub.d	fa7,ft10,fs6,ft4,unknown
    4a86:	58e6                	lw	a7,120(sp)
    4a88:	3434                	fld	fa3,104(s0)
    4a8a:	917d58ef          	jal	a7,fffffffffffda3a0 <_gp+0xfffffffffffd4748>
    4a8e:	58f5                	li	a7,-3
    4a90:	592c584b          	fnmsub.s	fa6,fs8,fs2,fa1,unknown
    4a94:	62d6                	ld	t0,336(sp)
    4a96:	ca9b592f          	0xca9b592f
    4a9a:	5944                	lw	s1,52(a0)
    4a9c:	8add                	andi	a3,a3,23
    4a9e:	5948                	lw	a0,52(a0)
    4aa0:	1fe2                	slli	t6,t6,0x38
    4aa2:	5952                	lw	s2,52(sp)
    4aa4:	5969bfbf 597a35f0 	0x597a35f05969bfbf
    4aac:	c412                	sw	tp,8(sp)
    4aae:	598a                	lw	s3,160(sp)
    4ab0:	09c4                	addi	s1,sp,212
    4ab2:	598e                	lw	s3,224(sp)
    4ab4:	359a                	fld	fa1,416(sp)
    4ab6:	930e598f          	0x930e598f
    4aba:	59a5                	li	s3,-23
    4abc:	d140                	sw	s0,36(a0)
    4abe:	59b4                	lw	a3,112(a1)
    4ac0:	59bbba97          	auipc	s5,0x59bbb
    4ac4:	ad26                	fsd	fs1,152(sp)
    4ac6:	59ce                	lw	s3,240(sp)
    4ac8:	9a45                	andi	a2,a2,-15
    4aca:	59d9                	li	s3,-10
    4acc:	0492                	slli	s1,s1,0x4
    4ace:	59ed                	li	s3,-5
    4ad0:	ce14                	sw	a3,24(a2)
    4ad2:	5a02                	lw	s4,32(sp)
    4ad4:	5c31                	li	s8,-20
    4ad6:	5a21                	li	s4,-24
    4ad8:	ca46                	sw	a7,20(sp)
    4ada:	5a21                	li	s4,-24
    4adc:	7271                	lui	tp,0xffffc
    4ade:	5a32                	lw	s4,44(sp)
    4ae0:	0f8e                	slli	t6,t6,0x3
    4ae2:	5a42                	lw	s4,48(sp)
    4ae4:	5a46b2c3          	fmadd.d	ft5,fa3,ft4,fa1,rup
    4ae8:	e44c                	sd	a1,136(s0)
    4aea:	5a49                	li	s4,-14
    4aec:	11fa                	slli	gp,gp,0x3e
    4aee:	5a51                	li	s4,-12
    4af0:	2220                	fld	fs0,64(a2)
    4af2:	5a55                	li	s4,-11
    4af4:	50ec                	lw	a1,100(s1)
    4af6:	5d345a5b          	0x5d345a5b
    4afa:	5a8a                	lw	s5,160(sp)
    4afc:	8bfd                	andi	a5,a5,31
    4afe:	e4a25aa3          	0xe4a25aa3
    4b02:	5aa6                	lw	s5,104(sp)
    4b04:	5aadf643          	fmadd.d	fa2,fs11,fa0,fa1
    4b08:	b38c                	fsd	fa1,32(a5)
    4b0a:	5abc                	lw	a5,112(a3)
    4b0c:	7ebd                	lui	t4,0xfffef
    4b0e:	5ad6                	lw	s5,116(sp)
    4b10:	e652                	sd	s4,264(sp)
    4b12:	5add                	li	s5,-9
    4b14:	8a1a                	mv	s4,t1
    4b16:	5aec                	lw	a1,116(a3)
    4b18:	8572                	mv	a0,t3
    4b1a:	5b04                	lw	s1,48(a4)
    4b1c:	5b13e84b          	fnmsub.d	fa6,ft7,fa7,fa1,unknown
    4b20:	5b668c23          	sb	s6,1464(a3) # 55830f7c <_gp+0x5582b324>
    4b24:	4e8e                	lw	t4,192(sp)
    4b26:	085b5b67          	0x85b5b67
    4b2a:	5b74                	lw	a3,116(a4)
    4b2c:	c33a                	sw	a4,132(sp)
    4b2e:	5b90                	lw	a2,48(a5)
    4b30:	c554                	sw	a3,12(a0)
    4b32:	13985ba3          	0x13985ba3
    4b36:	5bad                	li	s7,-21
    4b38:	fea1                	bnez	a3,4a90 <verify_data+0x1638>
    4b3a:	5bb1                	li	s7,-20
    4b3c:	5bc3d43b          	0x5bc3d43b
    4b40:	5bdbb757          	0x5bdbb757
    4b44:	d285                	beqz	a3,4a64 <verify_data+0x160c>
    4b46:	20625bdb          	0x20625bdb
    4b4a:	5be2                	lw	s7,56(sp)
    4b4c:	4fe1                	li	t6,24
    4b4e:	5c1f f7b7 5c26      	0x5c26f7b75c1f
    4b54:	ae74                	fsd	fa3,216(a2)
    4b56:	754a5c27          	0x754a5c27
    4b5a:	96b35c3f e1405c4d 	0xe1405c4d96b35c3f
    4b62:	5c50                	lw	a2,60(s0)
    4b64:	4f7e                	lw	t5,220(sp)
    4b66:	8f185c63          	ble	a7,a6,3c5e <verify_data+0x806>
    4b6a:	5c65                	li	s8,-7
    4b6c:	5c6b23e3          	0x5c6b23e3
    4b70:	21b4                	fld	fa3,64(a1)
    4b72:	5c6e                	lw	s8,248(sp)
    4b74:	5c7c7ae7          	0x5c7c7ae7
    4b78:	4274                	lw	a3,68(a2)
    4b7a:	5c99                	li	s9,-26
    4b7c:	c924                	sw	s1,80(a0)
    4b7e:	5ca1                	li	s9,-24
    4b80:	6251                	lui	tp,0x14
    4b82:	5cb4                	lw	a3,120(s1)
    4b84:	7dfd                	lui	s11,0xfffff
    4b86:	5cb9                	li	s9,-18
    4b88:	ecf0                	sd	a2,216(s1)
    4b8a:	5ce0                	lw	s0,124(s1)
    4b8c:	cf1d                	beqz	a4,4bca <verify_data+0x1772>
    4b8e:	e2f05ce7          	0xe2f05ce7
    4b92:	5cfd                	li	s9,-1
    4b94:	5d0e34db          	custom2	9,t3,a6,46
    4b98:	cf00                	sw	s0,24(a4)
    4b9a:	5d0e                	lw	s10,224(sp)
    4b9c:	6bb9                	lui	s7,0xe
    4b9e:	5d11                	li	s10,-28
    4ba0:	5d161ea7          	0x5d161ea7
    4ba4:	5d347033          	0x5d347033
    4ba8:	5d39ae3b          	0x5d39ae3b
    4bac:	52b6                	lw	t0,108(sp)
    4bae:	5d51                	li	s10,-12
    4bb0:	5d52b08f          	0x5d52b08f
    4bb4:	acbd                	j	4e32 <verify_data+0x19da>
    4bb6:	5d64                	lw	s1,124(a0)
    4bb8:	791e                	ld	s2,480(sp)
    4bba:	5d78                	lw	a4,124(a0)
    4bbc:	d049                	beqz	s0,4b3e <verify_data+0x16e6>
    4bbe:	861e5d7b          	0x861e5d7b
    4bc2:	5cf85d83          	lhu	s11,1487(a6)
    4bc6:	5d8c                	lw	a1,56(a1)
    4bc8:	2534                	fld	fa3,72(a0)
    4bca:	5d9e                	lw	s11,228(sp)
    4bcc:	af35                	j	5308 <verify_data+0x1eb0>
    4bce:	5dac                	lw	a1,120(a1)
    4bd0:	107f                	0x107f
    4bd2:	5db6                	lw	s11,108(sp)
    4bd4:	6704                	ld	s1,8(a4)
    4bd6:	5de6                	lw	s11,120(sp)
    4bd8:	a3b2                	fsd	fa2,448(sp)
    4bda:	5dff                	0x5dff
    4bdc:	b1aa                	fsd	fa0,224(sp)
    4bde:	5e0d                	li	t3,-29
    4be0:	b1a2                	fsd	fs0,224(sp)
    4be2:	5e28                	lw	a0,120(a2)
    4be4:	1801                	addi	a6,a6,-32
    4be6:	5e3d                	li	t3,-17
    4be8:	f449                	bnez	s0,4b72 <verify_data+0x171a>
    4bea:	5e3d                	li	t3,-17
    4bec:	5f29                	li	t5,-22
    4bee:	5e48                	lw	a0,60(a2)
    4bf0:	2640                	fld	fs0,136(a2)
    4bf2:	5e70                	lw	a2,124(a2)
    4bf4:	f286                	sd	ra,352(sp)
    4bf6:	5e79                	li	t3,-2
    4bf8:	58ce                	lw	a7,240(sp)
    4bfa:	5eaa                	lw	t4,168(sp)
    4bfc:	5eb1deab          	0x5eb1deab
    4c00:	2f60                	fld	fs0,216(a4)
    4c02:	5eb9                	li	t4,-18
    4c04:	859f 5ecc 3d98      	0x3d985ecc859f
    4c0a:	5ed1                	li	t4,-12
    4c0c:	babe                	fsd	fa5,368(sp)
    4c0e:	5ef8                	lw	a4,124(a3)
    4c10:	5f000727          	0x5f000727
    4c14:	fee2                	sd	s8,376(sp)
    4c16:	ae285f0b          	0xae285f0b
    4c1a:	5f21                	li	t5,-24
    4c1c:	5f2d8e87          	0x5f2d8e87
    4c20:	0230                	addi	a2,sp,264
    4c22:	5f38                	lw	a4,120(a4)
    4c24:	3635                	addiw	a2,a2,-19
    4c26:	5f46                	lw	t5,112(sp)
    4c28:	5f5770ab          	custom1	ra,a4,s5,47
    4c2c:	2df2                	fld	fs11,280(sp)
    4c2e:	5f5c                	lw	a5,60(a4)
    4c30:	6aa2                	ld	s5,8(sp)
    4c32:	5f5e                	lw	t5,244(sp)
    4c34:	9731                	srai	a4,a4,0x2c
    4c36:	5f65                	li	t5,-7
    4c38:	5ea0                	lw	s0,120(a3)
    4c3a:	183e5f6f          	jal	t5,ea5bc <_gp+0xe4964>
    4c3e:	5f71                	li	t5,-4
    4c40:	bf85                	j	4bb0 <verify_data+0x1758>
    4c42:	5f76                	lw	t5,124(sp)
    4c44:	796a                	ld	s2,184(sp)
    4c46:	5f84                	lw	s1,56(a5)
    4c48:	3495                	addiw	s1,s1,-27
    4c4a:	5f89                	li	t6,-30
    4c4c:	5f8b586b          	0x5f8b586b
    4c50:	5ed6                	lw	t4,116(sp)
    4c52:	5f92                	lw	t6,36(sp)
    4c54:	25c2                	fld	fa1,16(sp)
    4c56:	5fa0                	lw	s0,120(a5)
    4c58:	8e1a                	mv	t3,t1
    4c5a:	5fa0                	lw	s0,120(a5)
    4c5c:	5faed877          	0x5faed877
    4c60:	5faffcaf          	0x5faffcaf
    4c64:	fdc5                	bnez	a1,4c1c <verify_data+0x17c4>
    4c66:	beb65fcb          	0xbeb65fcb
    4c6a:	5fd0                	lw	a2,60(a5)
    4c6c:	7672                	ld	a2,312(sp)
    4c6e:	5fd2                	lw	t6,52(sp)
    4c70:	378e                	fld	fa5,224(sp)
    4c72:	f9555fd3          	0xf9555fd3
    4c76:	5ff5                	li	t6,-3
    4c78:	5ffa6057          	0x5ffa6057
    4c7c:	e246                	sd	a7,256(sp)
    4c7e:	5ffe                	lw	t6,252(sp)
    4c80:	8c4e                	mv	s8,s3
    4c82:	600d                	0x600d
    4c84:	6f54                	ld	a3,152(a4)
    4c86:	600e                	0x600e
    4c88:	4a40                	lw	s0,20(a2)
    4c8a:	6010                	ld	a2,0(s0)
    4c8c:	3b49                	addiw	s6,s6,-14
    4c8e:	601e                	0x601e
    4c90:	601e79bb          	0x601e79bb
    4c94:	9910                	0x9910
    4c96:	f51e603f 804f6064 	0x804f6064f51e603f
    4c9e:	6076                	0x6076
    4ca0:	1c78                	addi	a4,sp,572
    4ca2:	6089                	lui	ra,0x2
    4ca4:	c63a                	sw	a4,12(sp)
    4ca6:	6089                	lui	ra,0x2
    4ca8:	d200                	sw	s0,32(a2)
    4caa:	7ef86097          	auipc	ra,0x7ef86
    4cae:	540c609b          	0x540c609b
    4cb2:	60b8                	ld	a4,64(s1)
    4cb4:	52a1                	li	t0,-24
    4cb6:	60b9                	lui	ra,0xe
    4cb8:	3d99                	addiw	s11,s11,-26
    4cba:	60d6                	ld	ra,336(sp)
    4cbc:	7a9e                	ld	s5,480(sp)
    4cbe:	60ff                	0x60ff
    4cc0:	3a28                	fld	fa0,112(a2)
    4cc2:	407d610f          	0x407d610f
    4cc6:	3bea610f          	0x3bea610f
    4cca:	6122                	ld	sp,8(sp)
    4ccc:	86e0                	0x86e0
    4cce:	6126                	ld	sp,72(sp)
    4cd0:	4ec4                	lw	s1,28(a3)
    4cd2:	612c                	ld	a1,64(a0)
    4cd4:	6133ac8b          	custom0	25,t2,19,48
    4cd8:	4569                	li	a0,26
    4cda:	613d                	addi	sp,sp,480
    4cdc:	5b08                	lw	a0,48(a4)
    4cde:	6145                	addi	sp,sp,48
    4ce0:	6ca9                	lui	s9,0xa
    4ce2:	615d                	addi	sp,sp,432
    4ce4:	a80d                	j	4d16 <verify_data+0x18be>
    4ce6:	a6ab616b          	0xa6ab616b
    4cea:	6182                	ld	gp,0(sp)
    4cec:	7cc8                	ld	a0,184(s1)
    4cee:	6186                	ld	gp,64(sp)
    4cf0:	8322                	mv	t1,s0
    4cf2:	6190                	ld	a2,0(a1)
    4cf4:	f3c1                	bnez	a5,4c74 <verify_data+0x181c>
    4cf6:	61ce                	ld	gp,208(sp)
    4cf8:	19ad                	addi	s3,s3,-21
    4cfa:	61e4                	ld	s1,192(a1)
    4cfc:	6d64                	ld	s1,216(a0)
    4cfe:	61ec                	ld	a1,192(a1)
    4d00:	52ca                	lw	t0,176(sp)
    4d02:	61fd                	lui	gp,0x1f
    4d04:	d948                	sw	a0,52(a0)
    4d06:	6202                	ld	tp,0(sp)
    4d08:	800e                	0x800e
    4d0a:	b61d621b          	0xb61d621b
    4d0e:	6226                	ld	tp,72(sp)
    4d10:	4380                	lw	s0,0(a5)
    4d12:	fe036243          	0xfe036243
    4d16:	624e                	ld	tp,208(sp)
    4d18:	b9e0                	fsd	fs0,240(a1)
    4d1a:	bb78624f          	fnmadd.d	ft4,fa6,fs7,fs7,unknown
    4d1e:	6266                	ld	tp,88(sp)
    4d20:	2af9                	addiw	s5,s5,30
    4d22:	6279                	lui	tp,0x1e
    4d24:	628bd913          	0x628bd913
    4d28:	62a986eb          	0x62a986eb
    4d2c:	9932                	add	s2,s2,a2
    4d2e:	62bc                	ld	a5,64(a3)
    4d30:	62c3d607          	0x62c3d607
    4d34:	a545                	j	53d4 <verify_data+0x1f7c>
    4d36:	8bab62d3          	0x8bab62d3
    4d3a:	6d6f62e3          	bltu	t5,s6,5bfe <_end+0x3fe>
    4d3e:	62e4                	ld	s1,192(a3)
    4d40:	f09c                	sd	a5,32(s1)
    4d42:	e6d262fb          	custom3	t0,tp,13,115
    4d46:	6320                	ld	s0,64(a4)
    4d48:	632cf297          	auipc	t0,0x632cf
    4d4c:	d69d                	beqz	a3,4c7a <verify_data+0x1822>
    4d4e:	463a634b          	0x463a634b
    4d52:	634e                	ld	t1,208(sp)
    4d54:	f658                	sd	a4,168(a2)
    4d56:	635d                	lui	t1,0x17
    4d58:	c3dd                	beqz	a5,4dfe <verify_data+0x19a6>
    4d5a:	6366                	ld	t1,88(sp)
    4d5c:	a131                	j	5168 <verify_data+0x1d10>
    4d5e:	c12363ab          	custom1	t2,t1,18,96
    4d62:	63bc                	ld	a5,64(a5)
    4d64:	e759                	bnez	a4,4df2 <verify_data+0x199a>
    4d66:	0cb163c7          	0xcb163c7
    4d6a:	032663db          	custom2	t2,a2,18,1
    4d6e:	63de                	ld	t2,464(sp)
    4d70:	da45                	beqz	a2,4d20 <verify_data+0x18c8>
    4d72:	036f63fb          	custom3	t2,t5,22,1
    4d76:	748b6413          	ori	s0,s6,1864
    4d7a:	6418                	ld	a4,8(s0)
    4d7c:	5eb2                	lw	t4,44(sp)
    4d7e:	641f 9a25 6426      	0x64269a25641f
    4d84:	4216                	lw	tp,68(sp)
    4d86:	3fdd6427          	0x3fdd6427
    4d8a:	f9ef643f 83b4644b 	0x83b4644bf9ef643f
    4d92:	645e                	ld	s0,464(sp)
    4d94:	1629                	addi	a2,a2,-22
    4d96:	6460                	ld	s0,200(s0)
    4d98:	6941                	lui	s2,0x10
    4d9a:	6474                	ld	a3,200(s0)
    4d9c:	7cc8                	ld	a0,184(s1)
    4d9e:	647c                	ld	a5,200(s0)
    4da0:	9cdc                	0x9cdc
    4da2:	6481                	lui	s1,0x0
    4da4:	a0ff                	0xa0ff
    4da6:	6485                	lui	s1,0x1
    4da8:	071f 6487 d2ea      	0xd2ea6487071f
    4dae:	6495                	lui	s1,0x5
    4db0:	f0a0                	sd	s0,96(s1)
    4db2:	c97d649b          	0xc97d649b
    4db6:	64a6                	ld	s1,72(sp)
    4db8:	8b6a                	mv	s6,s10
    4dba:	64ba                	ld	s1,392(sp)
    4dbc:	e9f0                	sd	a2,208(a1)
    4dbe:	64bd                	lui	s1,0xf
    4dc0:	0924                	addi	s1,sp,152
    4dc2:	64d2                	ld	s1,272(sp)
    4dc4:	ef6e                	sd	s11,408(sp)
    4dc6:	64d4                	ld	a3,136(s1)
    4dc8:	938e                	add	t2,t2,gp
    4dca:	650a                	ld	a0,128(sp)
    4dcc:	1121                	addi	sp,sp,-24
    4dce:	6511                	lui	a0,0x4
    4dd0:	a2b8                	fsd	fa4,64(a3)
    4dd2:	6530                	ld	a2,72(a0)
    4dd4:	f2a1                	bnez	a3,4d14 <verify_data+0x18bc>
    4dd6:	6578                	ld	a4,200(a0)
    4dd8:	8ac2                	mv	s5,a6
    4dda:	6599                	lui	a1,0x6
    4ddc:	65a60287          	0x65a60287
    4de0:	0f15                	addi	t5,t5,5
    4de2:	65ae                	ld	a1,200(sp)
    4de4:	8f02                	jr	t5
    4de6:	0e4c65b7          	lui	a1,0xe4c6
    4dea:	65ce                	ld	a1,208(sp)
    4dec:	a371                	j	5378 <verify_data+0x1f20>
    4dee:	ef3e65cf          	0xef3e65cf
    4df2:	924f65cf          	fnmadd.d	fa1,ft10,ft4,fs2,unknown
    4df6:	65dd                	lui	a1,0x17
    4df8:	eb55                	bnez	a4,4eac <verify_data+0x1a54>
    4dfa:	d54865e7          	0xd54865e7
    4dfe:	65e9                	lui	a1,0x1a
    4e00:	31f2                	fld	ft3,312(sp)
    4e02:	65f1                	lui	a1,0x1c
    4e04:	660479c3          	0x660479c3
    4e08:	c086                	sw	ra,64(sp)
    4e0a:	6606                	ld	a2,64(sp)
    4e0c:	66076677          	0x66076677
    4e10:	77b2                	ld	a5,296(sp)
    4e12:	27536607          	0x27536607
    4e16:	436d660f          	0x436d660f
    4e1a:	6610                	ld	a2,8(a2)
    4e1c:	661d2f27          	fsw	ft1,1662(s10)
    4e20:	8e36                	mv	t3,a3
    4e22:	6621                	lui	a2,0x8
    4e24:	12f4                	addi	a3,sp,364
    4e26:	662e                	ld	a2,200(sp)
    4e28:	160e                	slli	a2,a2,0x23
    4e2a:	663d                	lui	a2,0xf
    4e2c:	9be5                	andi	a5,a5,-7
    4e2e:	663e                	ld	a2,456(sp)
    4e30:	663ef68b          	custom0	a3,t4,gp,51
    4e34:	192a                	slli	s2,s2,0x2a
    4e36:	6655                	lui	a2,0x15
    4e38:	02a2                	slli	t0,t0,0x8
    4e3a:	6676                	ld	a2,344(sp)
    4e3c:	667e9cb3          	0x667e9cb3
    4e40:	66a01657          	0x66a01657
    4e44:	152e                	slli	a0,a0,0x2b
    4e46:	66b5                	lui	a3,0xd
    4e48:	ac6e                	fsd	fs11,24(sp)
    4e4a:	66d9                	lui	a3,0x16
    4e4c:	bcfc                	fsd	fa5,248(s1)
    4e4e:	d44c66ef          	jal	a3,fffffffffffcb392 <_gp+0xfffffffffffc573a>
    4e52:	66f8                	ld	a4,200(a3)
    4e54:	ca7a                	sw	t5,20(sp)
    4e56:	6722                	ld	a4,8(sp)
    4e58:	b5d9                	j	4d1e <verify_data+0x18c6>
    4e5a:	6728                	ld	a0,72(a4)
    4e5c:	72c2                	ld	t0,48(sp)
    4e5e:	a6b0673b          	0xa6b0673b
    4e62:	673c                	ld	a5,72(a4)
    4e64:	1266                	slli	tp,tp,0x39
    4e66:	6751                	lui	a4,0x14
    4e68:	79cd                	lui	s3,0xffff3
    4e6a:	675a                	ld	a4,400(sp)
    4e6c:	6796bc67          	0x6796bc67
    4e70:	2ace                	fld	fs5,208(sp)
    4e72:	679d                	lui	a5,0x7
    4e74:	67b7ceef          	jal	t4,81cee <_gp+0x7c096>
    4e78:	2ddd                	addiw	s11,s11,23
    4e7a:	67c2                	ld	a5,16(sp)
    4e7c:	3ffd                	addiw	t6,t6,-1
    4e7e:	67c2                	ld	a5,16(sp)
    4e80:	67d54dcb          	0x67d54dcb
    4e84:	6f8c                	ld	a1,24(a5)
    4e86:	5d2467db          	custom2	a5,s0,18,46
    4e8a:	6806                	ld	a6,64(sp)
    4e8c:	96cd                	srai	a3,a3,0x33
    4e8e:	6808                	ld	a0,16(s0)
    4e90:	680ae06b          	0x680ae06b
    4e94:	68160343          	fmadd.s	ft6,fa2,ft1,fa3,rne
    4e98:	1e9a                	slli	t4,t4,0x26
    4e9a:	6819                	lui	a6,0x6
    4e9c:	a664                	fsd	fs1,200(a2)
    4e9e:	681f 3f29 682e      	0x682e3f29681f
    4ea4:	778c                	ld	a1,40(a5)
    4ea6:	684e                	ld	a6,208(sp)
    4ea8:	e6c8                	sd	a0,136(a3)
    4eaa:	6851                	lui	a6,0x14
    4eac:	a4ba                	fsd	fa4,72(sp)
    4eae:	6855                	lui	a6,0x15
    4eb0:	685d77c3          	fmadd.s	fa5,fs10,ft5,fa3
    4eb4:	686ebe97          	auipc	t4,0x686eb
    4eb8:	42d6                	lw	t0,84(sp)
    4eba:	6872                	ld	a6,280(sp)
    4ebc:	86aa                	mv	a3,a0
    4ebe:	6876                	ld	a6,344(sp)
    4ec0:	9209                	srli	a2,a2,0x22
    4ec2:	687e                	ld	a6,472(sp)
    4ec4:	6892be83          	ld	t4,1673(t0) # 632d43d1 <_gp+0x632ce779>
    4ec8:	4cb0                	lw	a2,88(s1)
    4eca:	689e                	ld	a7,448(sp)
    4ecc:	1f5a                	slli	t5,t5,0x36
    4ece:	68ba                	ld	a7,392(sp)
    4ed0:	6041                	0x6041
    4ed2:	68d4                	ld	a3,144(s1)
    4ed4:	68f47697          	auipc	a3,0x68f47
    4ed8:	24b9                	addiw	s1,s1,14
    4eda:	3a4f68fb          	custom3	a7,t5,4,29
    4ede:	6921                	lui	s2,0x8
    4ee0:	29f1                	addiw	s3,s3,28
    4ee2:	2dd1692b          	custom1	s2,sp,29,22
    4ee6:	6939                	lui	s2,0xe
    4ee8:	6e7e                	ld	t3,472(sp)
    4eea:	6940                	ld	s0,144(a0)
    4eec:	1426                	slli	s0,s0,0x29
    4eee:	6958                	ld	a4,144(a0)
    4ef0:	ac82                	fsd	ft0,88(sp)
    4ef2:	696d                	lui	s2,0x1b
    4ef4:	a53a                	fsd	fa4,136(sp)
    4ef6:	b03a6987          	0xb03a6987
    4efa:	6998                	ld	a4,16(a1)
    4efc:	6b32                	ld	s6,264(sp)
    4efe:	699d                	lui	s3,0x7
    4f00:	2da4                	fld	fs1,88(a1)
    4f02:	69aa                	ld	s3,136(sp)
    4f04:	69c06c73          	csrrs	s8,0x69c,0
    4f08:	0ac0                	addi	s0,sp,340
    4f0a:	404869c7          	fmsub.s	fs3,fa6,ft4,fs0,unknown
    4f0e:	69c9                	lui	s3,0x12
    4f10:	679c                	ld	a5,8(a5)
    4f12:	69d1                	lui	s3,0x14
    4f14:	a229                	j	501e <verify_data+0x1bc6>
    4f16:	69d5                	lui	s3,0x15
    4f18:	a2f9                	j	50e6 <verify_data+0x1c8e>
    4f1a:	69d8                	ld	a4,144(a1)
    4f1c:	cf72                	sw	t3,156(sp)
    4f1e:	69e2                	ld	s3,24(sp)
    4f20:	bb2a                	fsd	fa0,432(sp)
    4f22:	6e2669e7          	0x6e2669e7
    4f26:	6a02                	ld	s4,0(sp)
    4f28:	7850                	ld	a2,176(s0)
    4f2a:	809e6a2b          	custom1	s4,t3,9,64
    4f2e:	6a35                	lui	s4,0xd
    4f30:	fa95                	bnez	a3,4e64 <verify_data+0x1a0c>
    4f32:	6a49                	lui	s4,0x12
    4f34:	cfe1                	beqz	a5,500c <verify_data+0x1bb4>
    4f36:	6a54                	ld	a3,144(a2)
    4f38:	182e                	slli	a6,a6,0x2b
    4f3a:	6a60                	ld	s0,208(a2)
    4f3c:	9f9f 6a88 6f2a      	0x6f2a6a889f9f
    4f42:	6a89                	lui	s5,0x2
    4f44:	6a98a6bb          	0x6a98a6bb
    4f48:	bdbc                	fsd	fa5,120(a1)
    4f4a:	6ab9                	lui	s5,0xe
    4f4c:	4a64                	lw	s1,84(a2)
    4f4e:	ec2c6adb          	custom2	s5,s8,2,118
    4f52:	6ae1                	lui	s5,0x18
    4f54:	6a98                	ld	a4,16(a3)
    4f56:	6aea                	ld	s5,152(sp)
    4f58:	d36e                	sw	s11,164(sp)
    4f5a:	6b25                	lui	s6,0x9
    4f5c:	c5fc                	sw	a5,76(a1)
    4f5e:	6b3d                	lui	s6,0xf
    4f60:	a94d                	j	5412 <verify_data+0x1fba>
    4f62:	6b4c                	ld	a1,144(a4)
    4f64:	6b51cb4f          	fnmadd.d	fs6,ft3,fs5,fa3,rmm
    4f68:	6b6b5947          	fmsub.d	fs2,fs6,fs6,fa3,unknown
    4f6c:	56e2                	lw	a3,56(sp)
    4f6e:	6b6d                	lui	s6,0x1b
    4f70:	6522                	ld	a0,8(sp)
    4f72:	6b7a                	ld	s6,408(sp)
    4f74:	5071                	0x5071
    4f76:	6ba6                	ld	s7,72(sp)
    4f78:	f150                	sd	a2,160(a0)
    4f7a:	6bb5                	lui	s7,0xd
    4f7c:	6bb744cb          	fnmsub.d	fs1,fa4,fs11,fa3,rmm
    4f80:	845e                	mv	s0,s7
    4f82:	02a06bc7          	fmsub.d	fs7,ft0,fa0,ft0,unknown
    4f86:	f0ee6bf3          	csrrs	s7,0xf0e,28
    4f8a:	6c34                	ld	a3,88(s0)
    4f8c:	6c47c04b          	0x6c47c04b
    4f90:	9a26                	add	s4,s4,s1
    4f92:	4a886c4f          	fnmadd.d	fs8,fa6,fs0,fs1,unknown
    4f96:	6c7f                	0x6c7f
    4f98:	9de8                	0x9de8
    4f9a:	6c91                	lui	s9,0x4
    4f9c:	cb9d                	beqz	a5,4fd2 <verify_data+0x1b7a>
    4f9e:	6c92                	ld	s9,256(sp)
    4fa0:	c854                	sw	a3,20(s0)
    4fa2:	6c9d                	lui	s9,0x7
    4fa4:	da28                	sw	a0,112(a2)
    4fa6:	6ca2                	ld	s9,8(sp)
    4fa8:	9502                	jalr	a0
    4faa:	6ca9                	lui	s9,0xa
    4fac:	8e32                	mv	t3,a2
    4fae:	6cdf 2228 6ce0      	0x6ce022286cdf
    4fb4:	6ce3fc13          	andi	s8,t2,1742
    4fb8:	c129                	beqz	a0,4ffa <verify_data+0x1ba2>
    4fba:	a8146cef          	jal	s9,fffffffffff4ba3a <_gp+0xfffffffffff45de2>
    4fbe:	6d49                	lui	s10,0x12
    4fc0:	929f 6d4a 14f7      	0x14f76d4a929f
    4fc6:	82826d53          	0x82826d53
    4fca:	6d54                	ld	a3,152(a0)
    4fcc:	6d54fafb          	custom3	s5,s1,s5,54
    4fd0:	7909                	lui	s2,0xfffe2
    4fd2:	6d55                	lui	s10,0x15
    4fd4:	8b9f 6d56 a105      	0xa1056d568b9f
    4fda:	6d5d                	lui	s10,0x17
    4fdc:	fa38                	sd	a4,112(a2)
    4fde:	6d62                	ld	s10,24(sp)
    4fe0:	003e                	0x3e
    4fe2:	6d6d                	lui	s10,0x1b
    4fe4:	ccb2                	sw	a2,88(sp)
    4fe6:	6d6e                	ld	s10,216(sp)
    4fe8:	f5ee                	sd	s11,232(sp)
    4fea:	6d70                	ld	a2,216(a0)
    4fec:	ac1f 6d82 fbd7      	0xfbd76d82ac1f
    4ff2:	6d90                	ld	a2,24(a1)
    4ff4:	6d9de20f          	0x6d9de20f
    4ff8:	6db9d8c7          	0x6db9d8c7
    4ffc:	f7a0                	sd	s0,104(a5)
    4ffe:	6e10                	ld	a2,24(a2)
    5000:	6e24d8eb          	0x6e24d8eb
    5004:	a2ea                	fsd	fs10,320(sp)
    5006:	6e30                	ld	a2,88(a2)
    5008:	6e3d0eeb          	0x6e3d0eeb
    500c:	6e3f8a0b          	custom0	20,31,3,55
    5010:	d051                	beqz	s0,4f94 <verify_data+0x1b3c>
    5012:	0dc06e3f 89186e66 	0x89186e660dc06e3f
    501a:	6e96                	ld	t4,320(sp)
    501c:	8f2e                	mv	t5,a1
    501e:	6ec8                	ld	a0,152(a3)
    5020:	1281                	addi	t0,t0,-32
    5022:	6ecd                	lui	t4,0x13
    5024:	82f5                	srli	a3,a3,0x1d
    5026:	6ed8                	ld	a4,152(a3)
    5028:	fea4                	sd	s1,120(a3)
    502a:	28036ee3          	bltu	t1,zero,5ac6 <_end+0x2c6>
    502e:	6eea                	ld	t4,152(sp)
    5030:	3c64                	fld	fs1,248(s0)
    5032:	6f09                	lui	t5,0x2
    5034:	ec4e                	sd	s3,24(sp)
    5036:	6f28                	ld	a0,88(a4)
    5038:	6f3a5657          	0x6f3a5657
    503c:	bc8d                	j	4aae <verify_data+0x1656>
    503e:	6f59                	lui	t5,0x16
    5040:	d541                	beqz	a0,4fc8 <verify_data+0x1b70>
    5042:	b5926f5b          	custom2	t5,tp,25,90
    5046:	6f6a                	ld	t5,152(sp)
    5048:	6f793433          	0x6f793433
    504c:	0ec2                	slli	t4,t4,0x10
    504e:	1d7a6f83          	lwu	t6,471(s4) # 121d7 <_gp+0xc57f>
    5052:	6f86                	ld	t6,64(sp)
    5054:	a3d2                	fsd	fs4,448(sp)
    5056:	73bb6f8f          	0x73bb6f8f
    505a:	6fb1                	lui	t6,0xc
    505c:	6fb360db          	custom2	ra,t1,27,55
    5060:	6fc00817          	auipc	a6,0x6fc00
    5064:	6241                	lui	tp,0x10
    5066:	6fd5                	lui	t6,0x15
    5068:	e188                	sd	a0,0(a1)
    506a:	a4ac6ff3          	csrrs	t6,0xa4a,24
    506e:	6ff6                	ld	t6,344(sp)
    5070:	7008f7cb          	fnmsub.s	fa5,fa7,ft0,fa4
    5074:	e7fa                	sd	t5,456(sp)
    5076:	7015                	0x7015
    5078:	701755cb          	fnmsub.s	fa1,fa4,ft1,fa4,unknown
    507c:	a7de                	fsd	fs7,456(sp)
    507e:	7021                	0x7021
    5080:	e0a1                	bnez	s1,50c0 <verify_data+0x1c68>
    5082:	703e                	0x703e
    5084:	8c1c                	0x8c1c
    5086:	ed6c704b          	0xed6c704b
    508a:	706e                	0x706e
    508c:	70b4af37          	lui	t5,0x70b4a
    5090:	6f0e                	ld	t5,192(sp)
    5092:	70b5                	lui	ra,0xfffed
    5094:	fc69                	bnez	s0,506e <verify_data+0x1c16>
    5096:	2dc170bf 482e70c4 	0x482e70c42dc170bf
    509e:	584070cb          	fnmsub.s	ft1,ft0,ft4,fa1
    50a2:	70d6                	ld	ra,368(sp)
    50a4:	3381                	addiw	t2,t2,-32
    50a6:	7111                	addi	sp,sp,-256
    50a8:	711c785b          	custom2	a6,s8,a7,56
    50ac:	c500                	sw	s0,8(a0)
    50ae:	711f 12ec 712a      	0x712a12ec711f
    50b4:	71422f0f          	0x71422f0f
    50b8:	71490dbf 7157291f 	0x7157291f71490dbf
    50c0:	df4c                	sw	a1,60(a4)
    50c2:	7165                	addi	sp,sp,-400
    50c4:	4d82                	lw	s11,0(sp)
    50c6:	74f47167          	0x74f47167
    50ca:	7180                	ld	s0,32(a1)
    50cc:	94e1                	srai	s1,s1,0x38
    50ce:	7184                	ld	s1,32(a1)
    50d0:	88e1                	andi	s1,s1,24
    50d2:	7185                	lui	gp,0xfffe1
    50d4:	7f30                	ld	a2,120(a4)
    50d6:	7188                	ld	a0,32(a1)
    50d8:	420c                	lw	a1,0(a2)
    50da:	7190                	ld	a2,32(a1)
    50dc:	86fc                	0x86fc
    50de:	71a0                	ld	s0,96(a1)
    50e0:	9e52                	add	t3,t3,s4
    50e2:	71b6                	ld	gp,360(sp)
    50e4:	328d                	addiw	t0,t0,-29
    50e6:	6c2a71bb          	0x6c2a71bb
    50ea:	364471d3          	0x364471d3
    50ee:	ceae71e7          	0xceae71e7
    50f2:	887a71f7          	0x887a71f7
    50f6:	720d                	lui	tp,0xfffe3
    50f8:	ee24                	sd	s1,88(a2)
    50fa:	720e                	ld	tp,224(sp)
    50fc:	32b5                	addiw	t0,t0,-19
    50fe:	7214                	ld	a3,32(a2)
    5100:	7220fd73          	csrrc	s10,0x722,1
    5104:	adc9                	j	57d6 <counter_names+0x66>
    5106:	7221                	lui	tp,0xfffe8
    5108:	3950                	fld	fa2,176(a0)
    510a:	06f2722b          	custom1	tp,tp,a5,3
    510e:	723d                	lui	tp,0xfffef
    5110:	c58d                	beqz	a1,513a <verify_data+0x1ce2>
    5112:	a9257257          	0xa9257257
    5116:	1f647273          	csrrc	tp,0x1f6,8
    511a:	5fea72b7          	lui	t0,0x5fea7
    511e:	496172d7          	0x496172d7
    5122:	72e1                	lui	t0,0xffff8
    5124:	ac02                	fsd	ft0,24(sp)
    5126:	58a272ef          	jal	t0,2c6b0 <_gp+0x26a58>
    512a:	90f072f3          	csrrc	t0,0x90f,0
    512e:	e6287313          	andi	t1,a6,-414
    5132:	7316                	ld	t1,352(sp)
    5134:	0655                	addi	a2,a2,21
    5136:	731d                	lui	t1,0xfffe7
    5138:	4038                	lw	a4,64(s0)
    513a:	7320                	ld	s0,96(a4)
    513c:	a425                	j	5364 <verify_data+0x1f0c>
    513e:	7329                	lui	t1,0xfffea
    5140:	5cd4                	lw	a3,60(s1)
    5142:	53ad733f e6707345 	0xe670734553ad733f
    514a:	7359                	lui	t1,0xffff6
    514c:	736f35b7          	lui	a1,0x736f3
    5150:	73877afb          	custom3	s5,a4,s8,57
    5154:	739d378b          	custom0	15,s10,s9,57
    5158:	eeb2                	sd	a2,344(sp)
    515a:	73c1                	lui	t2,0xffff0
    515c:	ee10                	sd	a2,24(a2)
    515e:	73d1                	lui	t2,0xffff4
    5160:	73d9c2c7          	fmsub.d	ft5,fs3,ft9,fa4,rmm
    5164:	73e9750b          	custom0	a0,s2,t5,57
    5168:	0760                	addi	s0,sp,908
    516a:	73f0                	ld	a2,224(a5)
    516c:	aae2                	fsd	fs8,336(sp)
    516e:	73fd                	lui	t2,0xfffff
    5170:	fa75                	bnez	a2,5164 <verify_data+0x1d0c>
    5172:	741d                	lui	s0,0xfffe7
    5174:	1086                	slli	ra,ra,0x21
    5176:	7439                	lui	s0,0xfffee
    5178:	8909                	andi	a0,a0,2
    517a:	743c                	ld	a5,104(s0)
    517c:	744d6397          	auipc	t2,0x744d6
    5180:	dd6a                	sw	s10,184(sp)
    5182:	b729745b          	custom2	s0,s2,s2,91
    5186:	745e                	ld	s0,496(sp)
    5188:	7465                	lui	s0,0xffff9
    518a:	7465                	lui	s0,0xffff9
    518c:	4bc0                	lw	s0,20(a5)
    518e:	7398746f          	jal	s0,8d0c6 <_gp+0x8746e>
    5192:	7476                	ld	s0,376(sp)
    5194:	748d9613          	0x748d9613
    5198:	8ffa                	mv	t6,t5
    519a:	74b0                	ld	a2,104(s1)
    519c:	d7c8                	sw	a0,44(a5)
    519e:	74b2                	ld	s1,296(sp)
    51a0:	74bac3d7          	0x74bac3d7
    51a4:	5bd8                	lw	a4,52(a5)
    51a6:	6dec74c7          	0x6dec74c7
    51aa:	74c8                	ld	a0,168(s1)
    51ac:	f214                	sd	a3,32(a2)
    51ae:	5c8374eb          	0x5c8374eb
    51b2:	74ec                	ld	a1,232(s1)
    51b4:	43cd                	li	t2,19
    51b6:	74fc                	ld	a5,232(s1)
    51b8:	d010                	sw	a2,32(s0)
    51ba:	7501                	lui	a0,0xfffe0
    51bc:	ff5d                	bnez	a4,517a <verify_data+0x1d22>
    51be:	7524                	ld	s1,104(a0)
    51c0:	91ec                	0x91ec
    51c2:	752c                	ld	a1,104(a0)
    51c4:	cea2                	sw	s0,92(sp)
    51c6:	7548                	ld	a0,168(a0)
    51c8:	7556939b          	0x7556939b
    51cc:	ce81                	beqz	a3,51e4 <verify_data+0x1d8c>
    51ce:	7556                	ld	a0,368(sp)
    51d0:	ae6e                	fsd	fs11,280(sp)
    51d2:	fa5f7567          	0xfa5f7567
    51d6:	76de7577          	0x76de7577
    51da:	7582                	ld	a1,32(sp)
    51dc:	10d0                	addi	a2,sp,100
    51de:	7585                	lui	a1,0xfffe1
    51e0:	d4b4                	sw	a3,104(s1)
    51e2:	803b75e3          	bleu	gp,s6,49ec <verify_data+0x1594>
    51e6:	7612                	ld	a2,288(sp)
    51e8:	01e6                	slli	gp,gp,0x19
    51ea:	f891761b          	0xf891761b
    51ee:	a0507637          	lui	a2,0xa0507
    51f2:	c41b7643          	0xc41b7643
    51f6:	5c327643          	0x5c327643
    51fa:	765e                	ld	a2,496(sp)
    51fc:	039c                	addi	a5,sp,448
    51fe:	766e                	ld	a2,248(sp)
    5200:	66c4                	ld	s1,136(a3)
    5202:	7691                	lui	a3,0xfffe4
    5204:	76c9de3b          	0x76c9de3b
    5208:	76e02b87          	flw	fs7,1902(zero)
    520c:	770d9d97          	auipc	s11,0x770d9
    5210:	b4d1                	j	4cd4 <verify_data+0x187c>
    5212:	7745                	lui	a4,0xffff1
    5214:	8a60                	0x8a60
    5216:	7761                	lui	a4,0xffff8
    5218:	c005                	beqz	s0,5238 <verify_data+0x1de0>
    521a:	777c                	ld	a5,232(a4)
    521c:	5dbc                	lw	a5,120(a1)
    521e:	777e                	ld	a4,504(sp)
    5220:	3159                	addiw	sp,sp,-10
    5222:	7782                	ld	a5,32(sp)
    5224:	d711                	beqz	a4,5130 <verify_data+0x1cd8>
    5226:	56c3778b          	custom0	a5,t1,a2,43
    522a:	778e                	ld	a5,224(sp)
    522c:	0736                	slli	a4,a4,0xd
    522e:	7796                	ld	a5,352(sp)
    5230:	779e33eb          	0x779e33eb
    5234:	a4f9                	j	5502 <verify_data+0x20aa>
    5236:	77c2                	ld	a5,48(sp)
    5238:	8b1a                	mv	s6,t1
    523a:	77d6                	ld	a5,368(sp)
    523c:	0db6                	slli	s11,s11,0xd
    523e:	77ea                	ld	a5,184(sp)
    5240:	96b1                	srai	a3,a3,0x2c
    5242:	780c                	ld	a1,48(s0)
    5244:	2c8c                	fld	fa1,24(s1)
    5246:	780d                	lui	a6,0xfffe3
    5248:	78276307          	0x78276307
    524c:	3012                	fld	ft0,288(sp)
    524e:	782c                	ld	a1,112(s0)
    5250:	d041                	beqz	s0,51d0 <verify_data+0x1d78>
    5252:	7830                	ld	a2,112(s0)
    5254:	783be667          	0x783be667
    5258:	5ebc                	lw	a5,120(a3)
    525a:	784d                	lui	a6,0xffff3
    525c:	b865                	j	4b14 <verify_data+0x16bc>
    525e:	7889                	lui	a7,0xfffe2
    5260:	1f55                	addi	t5,t5,-11
    5262:	7894                	ld	a3,48(s1)
    5264:	23fa                	fld	ft7,408(sp)
    5266:	789c                	ld	a5,48(s1)
    5268:	d08a                	sw	sp,96(sp)
    526a:	78b0                	ld	a2,112(s1)
    526c:	5dae                	lw	s11,232(sp)
    526e:	78d8                	ld	a4,176(s1)
    5270:	fd24                	sd	s1,120(a0)
    5272:	78dd                	lui	a7,0xffff7
    5274:	35aa                	fld	fa1,168(sp)
    5276:	78de                	ld	a7,496(sp)
    5278:	7171                	addi	sp,sp,-176
    527a:	78df 9a07 78e2      	0x78e29a0778df
    5280:	78f220af          	0x78f220af
    5284:	f786                	sd	ra,488(sp)
    5286:	78fd                	lui	a7,0xfffff
    5288:	2c44                	fld	fs1,152(s0)
    528a:	792d                	lui	s2,0xfffeb
    528c:	c459                	beqz	s0,531a <verify_data+0x1ec2>
    528e:	7939                	lui	s2,0xfffee
    5290:	1798                	addi	a4,sp,992
    5292:	7948                	ld	a0,176(a0)
    5294:	d530                	sw	a2,104(a0)
    5296:	574d795b          	custom2	s2,s10,s4,43
    529a:	7966                	ld	s2,120(sp)
    529c:	ee36                	sd	a3,280(sp)
    529e:	796c                	ld	a1,240(a0)
    52a0:	89e9                	andi	a1,a1,26
    52a2:	de277987          	0xde277987
    52a6:	7988                	ld	a0,48(a1)
    52a8:	79b5933b          	0x79b5933b
    52ac:	79c39977          	0x79c39977
    52b0:	35d0                	fld	fa2,168(a1)
    52b2:	79d5                	lui	s3,0xffff5
    52b4:	79ea714f          	fnmadd.s	ft2,fs4,ft10,fa5
    52b8:	c122                	sw	s0,128(sp)
    52ba:	79f0                	ld	a2,240(a1)
    52bc:	135a                	slli	t1,t1,0x36
    52be:	79ff                	0x79ff
    52c0:	d7ff                	0xd7ff
    52c2:	7a02                	ld	s4,32(sp)
    52c4:	7a0e7c57          	0x7a0e7c57
    52c8:	2399                	addiw	t2,t2,6
    52ca:	7a15                	lui	s4,0xfffe5
    52cc:	8d0d                	sub	a0,a0,a1
    52ce:	7a1a                	ld	s4,416(sp)
    52d0:	ec61                	bnez	s0,53a8 <verify_data+0x1f50>
    52d2:	f0f97a2b          	custom1	s4,s2,a5,120
    52d6:	0e127a53          	0xe127a53
    52da:	7a54                	ld	a3,176(a2)
    52dc:	7a54488b          	custom0	a7,8,5,61
    52e0:	039a                	slli	t2,t2,0x6
    52e2:	7a6c                	ld	a1,240(a2)
    52e4:	cbd4                	sw	a3,20(a5)
    52e6:	7a70                	ld	a2,240(a2)
    52e8:	c442                	sw	a6,8(sp)
    52ea:	7a88                	ld	a0,48(a3)
    52ec:	e546                	sd	a7,136(sp)
    52ee:	939c7ad7          	0x939c7ad7
    52f2:	7ada                	ld	s5,432(sp)
    52f4:	7afd1cd3          	0x7afd1cd3
    52f8:	5c90                	lw	a2,56(s1)
    52fa:	7b08                	ld	a0,48(a4)
    52fc:	d916                	sw	t0,176(sp)
    52fe:	7b0a                	ld	s6,160(sp)
    5300:	7b2b5f8b          	0x7b2b5f8b
    5304:	de31                	beqz	a2,5260 <verify_data+0x1e08>
    5306:	7b31                	lui	s6,0xfffec
    5308:	7b35733f 7b3b8ae9 	0x7b3b8ae97b35733f
    5310:	69d2                	ld	s3,272(sp)
    5312:	7b48                	ld	a0,176(a4)
    5314:	84c1                	srai	s1,s1,0x10
    5316:	7b4e                	ld	s6,240(sp)
    5318:	26e9                	addiw	a3,a3,26
    531a:	7b55                	lui	s6,0xffff5
    531c:	d215                	beqz	a2,5240 <verify_data+0x1de8>
    531e:	7b68                	ld	a0,240(a4)
    5320:	7b86eff3          	csrrs	t6,0x7b8,13
    5324:	d676                	sw	t4,44(sp)
    5326:	7b96                	ld	s7,352(sp)
    5328:	8d3a                	mv	s10,a4
    532a:	678e7bab          	custom1	s7,t3,s8,51
    532e:	7bac                	ld	a1,112(a5)
    5330:	7bc697fb          	0x7bc697fb
    5334:	b108                	fsd	fa0,32(a0)
    5336:	7bd6                	ld	s7,368(sp)
    5338:	7be3d2d7          	0x7be3d2d7
    533c:	8a2c                	0x8a2c
    533e:	7bf2                	ld	s7,312(sp)
    5340:	80f5                	srli	s1,s1,0x1d
    5342:	7c05                	lui	s8,0xfffe1
    5344:	da01                	beqz	a2,5254 <verify_data+0x1dfc>
    5346:	7c11                	lui	s8,0xfffe4
    5348:	67a4                	ld	s1,72(a5)
    534a:	7c24                	ld	s1,120(s0)
    534c:	7c45df3b          	0x7c45df3b
    5350:	8234                	0x8234
    5352:	2dab7c4b          	0x2dab7c4b
    5356:	27d67c6f          	jal	s8,6cdd2 <_gp+0x6717a>
    535a:	7c7d                	lui	s8,0xfffff
    535c:	5be8                	lw	a0,116(a5)
    535e:	7c80                	ld	s0,56(s1)
    5360:	ee66                	sd	s9,280(sp)
    5362:	7c82                	ld	s9,32(sp)
    5364:	7c9296e3          	bne	t0,s1,6330 <_gp+0x6d8>
    5368:	7c93425b          	custom2	tp,6,9,62
    536c:	29ad                	addiw	s3,s3,11
    536e:	91207c9b          	0x91207c9b
    5372:	4ee17c9b          	0x4ee17c9b
    5376:	7c9d                	lui	s9,0xfffe7
    5378:	ae2c                	fsd	fa1,88(a2)
    537a:	da267cab          	custom1	s9,a2,sp,109
    537e:	35837cc7          	0x35837cc7
    5382:	7cd1                	lui	s9,0xffff4
    5384:	5531                	li	a0,-20
    5386:	7cd2                	ld	s9,304(sp)
    5388:	ed64                	sd	s1,216(a0)
    538a:	7cd8                	ld	a4,184(s1)
    538c:	172d                	addi	a4,a4,-21
    538e:	7cdd                	lui	s9,0xffff7
    5390:	8ed0                	0x8ed0
    5392:	7cfe                	ld	s9,504(sp)
    5394:	7d199933          	0x7d199933
    5398:	0d94                	addi	a3,sp,720
    539a:	d9767d33          	0xd9767d33
    539e:	7d5c                	ld	a5,184(a0)
    53a0:	a826                	fsd	fs1,16(sp)
    53a2:	7d7c                	ld	a5,248(a0)
    53a4:	7dc1                	lui	s11,0xffff0
    53a6:	7d81                	lui	s11,0xfffe0
    53a8:	b7c8                	fsd	fa0,168(a5)
    53aa:	7d82                	ld	s11,32(sp)
    53ac:	2f96                	fld	ft11,320(sp)
    53ae:	7d84                	ld	s1,56(a1)
    53b0:	3b66                	fld	fs6,120(sp)
    53b2:	7dac                	ld	a1,120(a1)
    53b4:	97d6                	add	a5,a5,s5
    53b6:	7db5                	lui	s11,0xfffed
    53b8:	7dbce1f7          	0x7dbce1f7
    53bc:	c751                	beqz	a4,5448 <verify_data+0x1ff0>
    53be:	7dc1                	lui	s11,0xffff0
    53c0:	7558                	ld	a4,168(a0)
    53c2:	7df8                	ld	a4,248(a1)
    53c4:	7e0a0b8f          	0x7e0a0b8f
    53c8:	7e1723f7          	0x7e1723f7
    53cc:	287c                	fld	fa5,208(s0)
    53ce:	48c77e27          	0x48c77e27
    53d2:	7e3c                	ld	a5,120(a2)
    53d4:	3888                	fld	fa0,48(s1)
    53d6:	7e41                	lui	t3,0xffff0
    53d8:	b8ee                	fsd	fs11,112(sp)
    53da:	7e44                	ld	s1,184(a2)
    53dc:	69c4                	ld	s1,144(a1)
    53de:	7e4a                	ld	t3,176(sp)
    53e0:	a6bd                	j	574e <counters+0x6e>
    53e2:	7e4a                	ld	t3,176(sp)
    53e4:	de88                	sw	a0,56(a3)
    53e6:	282b7e53          	0x282b7e53
    53ea:	7e7f                	0x7e7f
    53ec:	2a5f 7e88 3314      	0x33147e882a5f
    53f2:	7e90                	ld	a2,56(a3)
    53f4:	1b69                	addi	s6,s6,-6
    53f6:	7ea5                	lui	t4,0xfffe9
    53f8:	8eb9                	xor	a3,a3,a4
    53fa:	a1f87eb7          	lui	t4,0xa1f87
    53fe:	7eb8                	ld	a4,120(a3)
    5400:	8b3e                	mv	s6,a5
    5402:	7ec6                	ld	t4,112(sp)
    5404:	7ec6e397          	auipc	t2,0x7ec6e
    5408:	e55e                	sd	s7,136(sp)
    540a:	50687ed7          	0x50687ed7
    540e:	cc317ee3          	bleu	gp,sp,50ea <verify_data+0x1c92>
    5412:	7eed                	lui	t4,0xffffb
    5414:	2954                	fld	fa3,144(a0)
    5416:	7ef4                	ld	a3,248(a3)
    5418:	7ef912b7          	lui	t0,0x7ef91
    541c:	a5cd                	j	5afe <_end+0x2fe>
    541e:	7f02                	ld	t5,32(sp)
    5420:	1831                	addi	a6,a6,-20
    5422:	7f10                	ld	a2,56(a4)
    5424:	a605                	j	5744 <counters+0x64>
    5426:	7f10                	ld	a2,56(a4)
    5428:	0434                	addi	a3,sp,520
    542a:	7f24                	ld	s1,120(a4)
    542c:	c95e                	sw	s7,144(sp)
    542e:	731f7f4b          	fnmsub.d	ft10,ft10,fa7,fa4
    5432:	7f8d                	lui	t6,0xfffe3
    5434:	3385                	addiw	t2,t2,-31
    5436:	58997f8f          	0x58997f8f
    543a:	7f99                	lui	t6,0xfffe6
    543c:	1715                	addi	a4,a4,-27
    543e:	7fa6                	ld	t6,104(sp)
    5440:	c8f2                	sw	t3,80(sp)
    5442:	7fb1                	lui	t6,0xfffec
    5444:	8976                	mv	s2,t4
    5446:	7fc0                	ld	s0,184(a5)
    5448:	d2d0                	sw	a2,36(a3)
    544a:	7fc0                	ld	s0,184(a5)
    544c:	5d7f                	0x5d7f
    544e:	7fca                	ld	t6,176(sp)
    5450:	3900                	fld	fs0,48(a0)
    5452:	4e467fdb          	custom2	t6,a2,tp,39
    5456:	7fe8                	ld	a0,248(a5)
