
qsort.riscv:     file format elf64-littleriscv


Disassembly of section .text:

0000000000000100 <user_trap_entry>:
     100:	2940006f          	j	394 <trap_entry>
     104:	00000013          	nop
     108:	00000013          	nop
     10c:	00000013          	nop
     110:	00000013          	nop
     114:	00000013          	nop
     118:	00000013          	nop
     11c:	00000013          	nop
     120:	00000013          	nop
     124:	00000013          	nop
     128:	00000013          	nop
     12c:	00000013          	nop
     130:	00000013          	nop
     134:	00000013          	nop
     138:	00000013          	nop
     13c:	00000013          	nop

0000000000000140 <supervisor_trap_entry>:
     140:	0000006f          	j	140 <supervisor_trap_entry>
     144:	00000013          	nop
     148:	00000013          	nop
     14c:	00000013          	nop
     150:	00000013          	nop
     154:	00000013          	nop
     158:	00000013          	nop
     15c:	00000013          	nop
     160:	00000013          	nop
     164:	00000013          	nop
     168:	00000013          	nop
     16c:	00000013          	nop
     170:	00000013          	nop
     174:	00000013          	nop
     178:	00000013          	nop
     17c:	00000013          	nop

0000000000000180 <hypervisor_trap_entry>:
     180:	0000006f          	j	180 <hypervisor_trap_entry>
     184:	00000013          	nop
     188:	00000013          	nop
     18c:	00000013          	nop
     190:	00000013          	nop
     194:	00000013          	nop
     198:	00000013          	nop
     19c:	00000013          	nop
     1a0:	00000013          	nop
     1a4:	00000013          	nop
     1a8:	00000013          	nop
     1ac:	00000013          	nop
     1b0:	00000013          	nop
     1b4:	00000013          	nop
     1b8:	00000013          	nop
     1bc:	00000013          	nop

00000000000001c0 <machine_trap_entry>:
     1c0:	1d40006f          	j	394 <trap_entry>
     1c4:	00000013          	nop
     1c8:	00000013          	nop
     1cc:	00000013          	nop
     1d0:	00000013          	nop
     1d4:	00000013          	nop
     1d8:	00000013          	nop
     1dc:	00000013          	nop
     1e0:	00000013          	nop
     1e4:	00000013          	nop
     1e8:	00000013          	nop
     1ec:	00000013          	nop
     1f0:	00000013          	nop
     1f4:	00000013          	nop
     1f8:	00000013          	nop
     1fc:	00000013          	nop

0000000000000200 <_start>:
     200:	00000093          	li	ra,0
     204:	00000113          	li	sp,0
     208:	00000193          	li	gp,0
     20c:	00000213          	li	tp,0
     210:	00000293          	li	t0,0
     214:	00000313          	li	t1,0
     218:	00000393          	li	t2,0
     21c:	00000413          	li	s0,0
     220:	00000493          	li	s1,0
     224:	00000513          	li	a0,0
     228:	00000593          	li	a1,0
     22c:	00000613          	li	a2,0
     230:	00000693          	li	a3,0
     234:	00000713          	li	a4,0
     238:	00000793          	li	a5,0
     23c:	00000813          	li	a6,0
     240:	00000893          	li	a7,0
     244:	00000913          	li	s2,0
     248:	00000993          	li	s3,0
     24c:	00000a13          	li	s4,0
     250:	00000a93          	li	s5,0
     254:	00000b13          	li	s6,0
     258:	00000b93          	li	s7,0
     25c:	00000c13          	li	s8,0
     260:	00000c93          	li	s9,0
     264:	00000d13          	li	s10,0
     268:	00000d93          	li	s11,0
     26c:	00000e13          	li	t3,0
     270:	00000e93          	li	t4,0
     274:	00000f13          	li	t5,0
     278:	00000f93          	li	t6,0
     27c:	03000293          	li	t0,48
     280:	3002b073          	csrc	mstatus,t0
     284:	00800293          	li	t0,8
     288:	3002a073          	csrs	mstatus,t0
     28c:	000032b7          	lui	t0,0x3
     290:	3002a073          	csrs	mstatus,t0
     294:	0000c2b7          	lui	t0,0xc
     298:	3002a073          	csrs	mstatus,t0
     29c:	f00022f3          	csrr	t0,mcpuid
     2a0:	0002c663          	bltz	t0,2ac <_start+0xac>
     2a4:	4d200513          	li	a0,1234
     2a8:	0250006f          	j	acc <tohost_exit>
     2ac:	300022f3          	csrr	t0,mstatus
     2b0:	0000c337          	lui	t1,0xc
     2b4:	0062f333          	and	t1,t0,t1
     2b8:	00005397          	auipc	t2,0x5
     2bc:	4263a023          	sw	t1,1056(t2) # 56d8 <have_vec>
     2c0:	00003337          	lui	t1,0x3
     2c4:	0062f333          	and	t1,t0,t1
     2c8:	08030463          	beqz	t1,350 <_start+0x150>
     2cc:	00301073          	fssr	zero
     2d0:	f0000053          	fmv.s.x	ft0,zero
     2d4:	f00000d3          	fmv.s.x	ft1,zero
     2d8:	f0000153          	fmv.s.x	ft2,zero
     2dc:	f00001d3          	fmv.s.x	ft3,zero
     2e0:	f0000253          	fmv.s.x	ft4,zero
     2e4:	f00002d3          	fmv.s.x	ft5,zero
     2e8:	f0000353          	fmv.s.x	ft6,zero
     2ec:	f00003d3          	fmv.s.x	ft7,zero
     2f0:	f0000453          	fmv.s.x	fs0,zero
     2f4:	f00004d3          	fmv.s.x	fs1,zero
     2f8:	f0000553          	fmv.s.x	fa0,zero
     2fc:	f00005d3          	fmv.s.x	fa1,zero
     300:	f0000653          	fmv.s.x	fa2,zero
     304:	f00006d3          	fmv.s.x	fa3,zero
     308:	f0000753          	fmv.s.x	fa4,zero
     30c:	f00007d3          	fmv.s.x	fa5,zero
     310:	f0000853          	fmv.s.x	fa6,zero
     314:	f00008d3          	fmv.s.x	fa7,zero
     318:	f0000953          	fmv.s.x	fs2,zero
     31c:	f00009d3          	fmv.s.x	fs3,zero
     320:	f0000a53          	fmv.s.x	fs4,zero
     324:	f0000ad3          	fmv.s.x	fs5,zero
     328:	f0000b53          	fmv.s.x	fs6,zero
     32c:	f0000bd3          	fmv.s.x	fs7,zero
     330:	f0000c53          	fmv.s.x	fs8,zero
     334:	f0000cd3          	fmv.s.x	fs9,zero
     338:	f0000d53          	fmv.s.x	fs10,zero
     33c:	f0000dd3          	fmv.s.x	fs11,zero
     340:	f0000e53          	fmv.s.x	ft8,zero
     344:	f0000ed3          	fmv.s.x	ft9,zero
     348:	f0000f53          	fmv.s.x	ft10,zero
     34c:	f0000fd3          	fmv.s.x	ft11,zero
     350:	00006197          	auipc	gp,0x6
     354:	90818193          	addi	gp,gp,-1784 # 5c58 <_gp>
     358:	00005217          	auipc	tp,0x5
     35c:	4e720213          	addi	tp,tp,1255 # 583f <_end+0x3f>
     360:	fc027213          	andi	tp,tp,-64
     364:	f1002573          	csrr	a0,mhartid
     368:	00100593          	li	a1,1
     36c:	00b57063          	bleu	a1,a0,36c <_start+0x16c>
     370:	01151613          	slli	a2,a0,0x11
     374:	00c20233          	add	tp,tp,a2
     378:	00150113          	addi	sp,a0,1
     37c:	01111113          	slli	sp,sp,0x11
     380:	00410133          	add	sp,sp,tp
     384:	00001297          	auipc	t0,0x1
     388:	c1028293          	addi	t0,t0,-1008 # f94 <_init>
     38c:	34129073          	csrw	mepc,t0
     390:	10000073          	eret

0000000000000394 <trap_entry>:
     394:	ef010113          	addi	sp,sp,-272
     398:	00113423          	sd	ra,8(sp)
     39c:	00213823          	sd	sp,16(sp)
     3a0:	00313c23          	sd	gp,24(sp)
     3a4:	02413023          	sd	tp,32(sp)
     3a8:	02513423          	sd	t0,40(sp)
     3ac:	02613823          	sd	t1,48(sp)
     3b0:	02713c23          	sd	t2,56(sp)
     3b4:	04813023          	sd	s0,64(sp)
     3b8:	04913423          	sd	s1,72(sp)
     3bc:	04a13823          	sd	a0,80(sp)
     3c0:	04b13c23          	sd	a1,88(sp)
     3c4:	06c13023          	sd	a2,96(sp)
     3c8:	06d13423          	sd	a3,104(sp)
     3cc:	06e13823          	sd	a4,112(sp)
     3d0:	06f13c23          	sd	a5,120(sp)
     3d4:	09013023          	sd	a6,128(sp)
     3d8:	09113423          	sd	a7,136(sp)
     3dc:	09213823          	sd	s2,144(sp)
     3e0:	09313c23          	sd	s3,152(sp)
     3e4:	0b413023          	sd	s4,160(sp)
     3e8:	0b513423          	sd	s5,168(sp)
     3ec:	0b613823          	sd	s6,176(sp)
     3f0:	0b713c23          	sd	s7,184(sp)
     3f4:	0d813023          	sd	s8,192(sp)
     3f8:	0d913423          	sd	s9,200(sp)
     3fc:	0da13823          	sd	s10,208(sp)
     400:	0db13c23          	sd	s11,216(sp)
     404:	0fc13023          	sd	t3,224(sp)
     408:	0fd13423          	sd	t4,232(sp)
     40c:	0fe13823          	sd	t5,240(sp)
     410:	0ff13c23          	sd	t6,248(sp)
     414:	34202573          	csrr	a0,mcause
     418:	341025f3          	csrr	a1,mepc
     41c:	00010613          	mv	a2,sp
     420:	6bc000ef          	jal	adc <handle_trap>
     424:	34151073          	csrw	mepc,a0
     428:	00813083          	ld	ra,8(sp)
     42c:	01013103          	ld	sp,16(sp)
     430:	01813183          	ld	gp,24(sp)
     434:	02013203          	ld	tp,32(sp)
     438:	02813283          	ld	t0,40(sp)
     43c:	03013303          	ld	t1,48(sp)
     440:	03813383          	ld	t2,56(sp)
     444:	04013403          	ld	s0,64(sp)
     448:	04813483          	ld	s1,72(sp)
     44c:	05013503          	ld	a0,80(sp)
     450:	05813583          	ld	a1,88(sp)
     454:	06013603          	ld	a2,96(sp)
     458:	06813683          	ld	a3,104(sp)
     45c:	07013703          	ld	a4,112(sp)
     460:	07813783          	ld	a5,120(sp)
     464:	08013803          	ld	a6,128(sp)
     468:	08813883          	ld	a7,136(sp)
     46c:	09013903          	ld	s2,144(sp)
     470:	09813983          	ld	s3,152(sp)
     474:	0a013a03          	ld	s4,160(sp)
     478:	0a813a83          	ld	s5,168(sp)
     47c:	0b013b03          	ld	s6,176(sp)
     480:	0b813b83          	ld	s7,184(sp)
     484:	0c013c03          	ld	s8,192(sp)
     488:	0c813c83          	ld	s9,200(sp)
     48c:	0d013d03          	ld	s10,208(sp)
     490:	0d813d83          	ld	s11,216(sp)
     494:	0e013e03          	ld	t3,224(sp)
     498:	0e813e83          	ld	t4,232(sp)
     49c:	0f013f03          	ld	t5,240(sp)
     4a0:	0f813f83          	ld	t6,248(sp)
     4a4:	11010113          	addi	sp,sp,272
     4a8:	10000073          	eret

00000000000004ac <verify.constprop.2>:
     4ac:	000017b7          	lui	a5,0x1
     4b0:	45878793          	addi	a5,a5,1112 # 1458 <input_data>
     4b4:	00000713          	li	a4,0
     4b8:	0007a603          	lw	a2,0(a5)
     4bc:	00052683          	lw	a3,0(a0)
     4c0:	0047a803          	lw	a6,4(a5)
     4c4:	00452583          	lw	a1,4(a0)
     4c8:	02d61263          	bne	a2,a3,4ec <verify.constprop.2+0x40>
     4cc:	00878793          	addi	a5,a5,8
     4d0:	02b81263          	bne	a6,a1,4f4 <verify.constprop.2+0x48>
     4d4:	0027071b          	addiw	a4,a4,2
     4d8:	8007069b          	addiw	a3,a4,-2048
     4dc:	00850513          	addi	a0,a0,8
     4e0:	fc069ce3          	bnez	a3,4b8 <verify.constprop.2+0xc>
     4e4:	00000513          	li	a0,0
     4e8:	00008067          	ret
     4ec:	0017051b          	addiw	a0,a4,1
     4f0:	00008067          	ret
     4f4:	0027051b          	addiw	a0,a4,2
     4f8:	00008067          	ret

00000000000004fc <sort>:
     4fc:	e7010113          	addi	sp,sp,-400
     500:	00251513          	slli	a0,a0,0x2
     504:	00010e93          	mv	t4,sp
     508:	00a58f33          	add	t5,a1,a0
     50c:	00458813          	addi	a6,a1,4
     510:	00010313          	mv	t1,sp
     514:	02700e13          	li	t3,39
     518:	410f07b3          	sub	a5,t5,a6
     51c:	04fe4c63          	blt	t3,a5,574 <sort+0x78>
     520:	ffc7f793          	andi	a5,a5,-4
     524:	00f80533          	add	a0,a6,a5
     528:	ffc80613          	addi	a2,a6,-4
     52c:	02a87863          	bleu	a0,a6,55c <sort+0x60>
     530:	00082683          	lw	a3,0(a6)
     534:	00080793          	mv	a5,a6
     538:	0100006f          	j	548 <sort+0x4c>
     53c:	00e7a023          	sw	a4,0(a5)
     540:	ffc78793          	addi	a5,a5,-4
     544:	00f60663          	beq	a2,a5,550 <sort+0x54>
     548:	ffc7a703          	lw	a4,-4(a5)
     54c:	fee6c8e3          	blt	a3,a4,53c <sort+0x40>
     550:	00d7a023          	sw	a3,0(a5)
     554:	00480813          	addi	a6,a6,4
     558:	fca86ce3          	bltu	a6,a0,530 <sort+0x34>
     55c:	13d30463          	beq	t1,t4,684 <sort+0x188>
     560:	00033f03          	ld	t5,0(t1) # 3000 <input_data+0x1ba8>
     564:	ff833803          	ld	a6,-8(t1)
     568:	ff030313          	addi	t1,t1,-16
     56c:	410f07b3          	sub	a5,t5,a6
     570:	fafe58e3          	ble	a5,t3,520 <sort+0x24>
     574:	40b807b3          	sub	a5,a6,a1
     578:	40bf0733          	sub	a4,t5,a1
     57c:	4027d793          	srai	a5,a5,0x2
     580:	40275713          	srai	a4,a4,0x2
     584:	00e78733          	add	a4,a5,a4
     588:	03f75793          	srli	a5,a4,0x3f
     58c:	00e787b3          	add	a5,a5,a4
     590:	4017d793          	srai	a5,a5,0x1
     594:	00279793          	slli	a5,a5,0x2
     598:	ffc78793          	addi	a5,a5,-4
     59c:	00f587b3          	add	a5,a1,a5
     5a0:	00082703          	lw	a4,0(a6)
     5a4:	0007a603          	lw	a2,0(a5)
     5a8:	00e7a023          	sw	a4,0(a5)
     5ac:	00c82023          	sw	a2,0(a6)
     5b0:	ffc82703          	lw	a4,-4(a6)
     5b4:	ffcf2783          	lw	a5,-4(t5)
     5b8:	00e7da63          	ble	a4,a5,5cc <sort+0xd0>
     5bc:	fef82e23          	sw	a5,-4(a6)
     5c0:	feef2e23          	sw	a4,-4(t5)
     5c4:	00082603          	lw	a2,0(a6)
     5c8:	00070793          	mv	a5,a4
     5cc:	00c7d863          	ble	a2,a5,5dc <sort+0xe0>
     5d0:	00f82023          	sw	a5,0(a6)
     5d4:	fecf2e23          	sw	a2,-4(t5)
     5d8:	00082603          	lw	a2,0(a6)
     5dc:	ffc82783          	lw	a5,-4(a6)
     5e0:	00f65863          	ble	a5,a2,5f0 <sort+0xf4>
     5e4:	fec82e23          	sw	a2,-4(a6)
     5e8:	00f82023          	sw	a5,0(a6)
     5ec:	00078613          	mv	a2,a5
     5f0:	00480513          	addi	a0,a6,4
     5f4:	000f0713          	mv	a4,t5
     5f8:	00450513          	addi	a0,a0,4
     5fc:	ffc52883          	lw	a7,-4(a0)
     600:	fec8cce3          	blt	a7,a2,5f8 <sort+0xfc>
     604:	ffc70793          	addi	a5,a4,-4
     608:	ffc7a683          	lw	a3,-4(a5)
     60c:	00d65a63          	ble	a3,a2,620 <sort+0x124>
     610:	00078713          	mv	a4,a5
     614:	ffc70793          	addi	a5,a4,-4
     618:	ffc7a683          	lw	a3,-4(a5)
     61c:	fed64ae3          	blt	a2,a3,610 <sort+0x114>
     620:	00a7ea63          	bltu	a5,a0,634 <sort+0x138>
     624:	fed52e23          	sw	a3,-4(a0)
     628:	ff172c23          	sw	a7,-8(a4)
     62c:	00078713          	mv	a4,a5
     630:	fc9ff06f          	j	5f8 <sort+0xfc>
     634:	40af08b3          	sub	a7,t5,a0
     638:	00d82023          	sw	a3,0(a6)
     63c:	410787b3          	sub	a5,a5,a6
     640:	4028d693          	srai	a3,a7,0x2
     644:	fec72c23          	sw	a2,-8(a4)
     648:	00168693          	addi	a3,a3,1
     64c:	4027d793          	srai	a5,a5,0x2
     650:	01030613          	addi	a2,t1,16
     654:	00f6cc63          	blt	a3,a5,66c <sort+0x170>
     658:	01e33823          	sd	t5,16(t1)
     65c:	00a33423          	sd	a0,8(t1)
     660:	ff870f13          	addi	t5,a4,-8
     664:	00060313          	mv	t1,a2
     668:	eb1ff06f          	j	518 <sort+0x1c>
     66c:	ff870713          	addi	a4,a4,-8
     670:	01033423          	sd	a6,8(t1)
     674:	00e33823          	sd	a4,16(t1)
     678:	00050813          	mv	a6,a0
     67c:	00060313          	mv	t1,a2
     680:	e99ff06f          	j	518 <sort+0x1c>
     684:	19010113          	addi	sp,sp,400
     688:	00008067          	ret

000000000000068c <putchar>:
     68c:	04022603          	lw	a2,64(tp) # 40 <buflen.2849>
     690:	00060813          	mv	a6,a2
     694:	00020793          	mv	a5,tp
     698:	010787b3          	add	a5,a5,a6
     69c:	0016061b          	addiw	a2,a2,1
     6a0:	00a78023          	sb	a0,0(a5)
     6a4:	04c22023          	sw	a2,64(tp) # 40 <buflen.2849>
     6a8:	00a00793          	li	a5,10
     6ac:	00f50a63          	beq	a0,a5,6c0 <putchar+0x34>
     6b0:	04000793          	li	a5,64
     6b4:	00f60663          	beq	a2,a5,6c0 <putchar+0x34>
     6b8:	00000513          	li	a0,0
     6bc:	00008067          	ret
     6c0:	04000893          	li	a7,64
     6c4:	00100513          	li	a0,1
     6c8:	00020593          	mv	a1,tp
     6cc:	00000073          	ecall
     6d0:	04022023          	sw	zero,64(tp) # 40 <buflen.2849>
     6d4:	00000513          	li	a0,0
     6d8:	00008067          	ret

00000000000006dc <sprintf_putch.2963>:
     6dc:	0005b783          	ld	a5,0(a1)
     6e0:	00a78023          	sb	a0,0(a5)
     6e4:	0005b783          	ld	a5,0(a1)
     6e8:	00178793          	addi	a5,a5,1
     6ec:	00f5b023          	sd	a5,0(a1)
     6f0:	00008067          	ret

00000000000006f4 <vprintfmt>:
     6f4:	e8010113          	addi	sp,sp,-384
     6f8:	15413823          	sd	s4,336(sp)
     6fc:	16813823          	sd	s0,368(sp)
     700:	16913423          	sd	s1,360(sp)
     704:	17213023          	sd	s2,352(sp)
     708:	15313c23          	sd	s3,344(sp)
     70c:	15513423          	sd	s5,328(sp)
     710:	15613023          	sd	s6,320(sp)
     714:	16113c23          	sd	ra,376(sp)
     718:	13713c23          	sd	s7,312(sp)
     71c:	13813823          	sd	s8,304(sp)
     720:	13913423          	sd	s9,296(sp)
     724:	13a13023          	sd	s10,288(sp)
     728:	11b13c23          	sd	s11,280(sp)
     72c:	00050913          	mv	s2,a0
     730:	00058493          	mv	s1,a1
     734:	00060413          	mv	s0,a2
     738:	00068a93          	mv	s5,a3
     73c:	02500993          	li	s3,37
     740:	05500b13          	li	s6,85
     744:	80818a13          	addi	s4,gp,-2040 # 5460 <verify_data+0x2008>
     748:	0140006f          	j	75c <vprintfmt+0x68>
     74c:	04050c63          	beqz	a0,7a4 <vprintfmt+0xb0>
     750:	00140413          	addi	s0,s0,1
     754:	00048593          	mv	a1,s1
     758:	000900e7          	jalr	s2
     75c:	00044503          	lbu	a0,0(s0)
     760:	ff3516e3          	bne	a0,s3,74c <vprintfmt+0x58>
     764:	00144503          	lbu	a0,1(s0)
     768:	00140b93          	addi	s7,s0,1
     76c:	fff00d93          	li	s11,-1
     770:	000b8713          	mv	a4,s7
     774:	02000d13          	li	s10,32
     778:	000d8c13          	mv	s8,s11
     77c:	00000613          	li	a2,0
     780:	fdd5079b          	addiw	a5,a0,-35
     784:	0ff7f593          	andi	a1,a5,255
     788:	00170413          	addi	s0,a4,1
     78c:	2cbb6663          	bltu	s6,a1,a58 <vprintfmt+0x364>
     790:	0ff7f793          	andi	a5,a5,255
     794:	00279793          	slli	a5,a5,0x2
     798:	014787b3          	add	a5,a5,s4
     79c:	0007a783          	lw	a5,0(a5)
     7a0:	00078067          	jr	a5
     7a4:	17813083          	ld	ra,376(sp)
     7a8:	17013403          	ld	s0,368(sp)
     7ac:	16813483          	ld	s1,360(sp)
     7b0:	16013903          	ld	s2,352(sp)
     7b4:	15813983          	ld	s3,344(sp)
     7b8:	15013a03          	ld	s4,336(sp)
     7bc:	14813a83          	ld	s5,328(sp)
     7c0:	14013b03          	ld	s6,320(sp)
     7c4:	13813b83          	ld	s7,312(sp)
     7c8:	13013c03          	ld	s8,304(sp)
     7cc:	12813c83          	ld	s9,296(sp)
     7d0:	12013d03          	ld	s10,288(sp)
     7d4:	11813d83          	ld	s11,280(sp)
     7d8:	18010113          	addi	sp,sp,384
     7dc:	00008067          	ret
     7e0:	000c5463          	bgez	s8,7e8 <vprintfmt+0xf4>
     7e4:	00000c13          	li	s8,0
     7e8:	00174503          	lbu	a0,1(a4)
     7ec:	00040713          	mv	a4,s0
     7f0:	f91ff06f          	j	780 <vprintfmt+0x8c>
     7f4:	00800793          	li	a5,8
     7f8:	00100713          	li	a4,1
     7fc:	2ac75463          	ble	a2,a4,aa4 <vprintfmt+0x3b0>
     800:	000abd83          	ld	s11,0(s5)
     804:	008a8a93          	addi	s5,s5,8
     808:	02fdf533          	remu	a0,s11,a5
     80c:	01410693          	addi	a3,sp,20
     810:	00100c93          	li	s9,1
     814:	00a12823          	sw	a0,16(sp)
     818:	00fdf663          	bleu	a5,s11,824 <vprintfmt+0x130>
     81c:	2980006f          	j	ab4 <vprintfmt+0x3c0>
     820:	000b8c93          	mv	s9,s7
     824:	02fdddb3          	divu	s11,s11,a5
     828:	00468693          	addi	a3,a3,4
     82c:	001c8b9b          	addiw	s7,s9,1
     830:	02fdf5b3          	remu	a1,s11,a5
     834:	feb6ae23          	sw	a1,-4(a3)
     838:	fefdf4e3          	bleu	a5,s11,820 <vprintfmt+0x12c>
     83c:	01912423          	sw	s9,8(sp)
     840:	fffc0d9b          	addiw	s11,s8,-1
     844:	038bd263          	ble	s8,s7,868 <vprintfmt+0x174>
     848:	00048593          	mv	a1,s1
     84c:	000d0513          	mv	a0,s10
     850:	fffd8d9b          	addiw	s11,s11,-1
     854:	000900e7          	jalr	s2
     858:	001d871b          	addiw	a4,s11,1
     85c:	feebc6e3          	blt	s7,a4,848 <vprintfmt+0x154>
     860:	00812c83          	lw	s9,8(sp)
     864:	ef705ce3          	blez	s7,75c <vprintfmt+0x68>
     868:	002c9793          	slli	a5,s9,0x2
     86c:	11010713          	addi	a4,sp,272
     870:	00f707b3          	add	a5,a4,a5
     874:	f007a503          	lw	a0,-256(a5)
     878:	00a53793          	sltiu	a5,a0,10
     87c:	40f007bb          	negw	a5,a5
     880:	fd97f793          	andi	a5,a5,-39
     884:	0577879b          	addiw	a5,a5,87
     888:	00a7853b          	addw	a0,a5,a0
     88c:	00048593          	mv	a1,s1
     890:	fffc8c9b          	addiw	s9,s9,-1
     894:	000900e7          	jalr	s2
     898:	001c879b          	addiw	a5,s9,1
     89c:	fcf046e3          	bgtz	a5,868 <vprintfmt+0x174>
     8a0:	ebdff06f          	j	75c <vprintfmt+0x68>
     8a4:	000aad83          	lw	s11,0(s5)
     8a8:	00174503          	lbu	a0,1(a4)
     8ac:	008a8a93          	addi	s5,s5,8
     8b0:	00040713          	mv	a4,s0
     8b4:	ec0c56e3          	bgez	s8,780 <vprintfmt+0x8c>
     8b8:	000d8c13          	mv	s8,s11
     8bc:	fff00d93          	li	s11,-1
     8c0:	ec1ff06f          	j	780 <vprintfmt+0x8c>
     8c4:	00174503          	lbu	a0,1(a4)
     8c8:	02d00d13          	li	s10,45
     8cc:	00040713          	mv	a4,s0
     8d0:	eb1ff06f          	j	780 <vprintfmt+0x8c>
     8d4:	00174503          	lbu	a0,1(a4)
     8d8:	03000d13          	li	s10,48
     8dc:	00040713          	mv	a4,s0
     8e0:	ea1ff06f          	j	780 <vprintfmt+0x8c>
     8e4:	00174783          	lbu	a5,1(a4)
     8e8:	00900693          	li	a3,9
     8ec:	fd050d9b          	addiw	s11,a0,-48
     8f0:	fd07871b          	addiw	a4,a5,-48
     8f4:	00078593          	mv	a1,a5
     8f8:	1ae6e063          	bltu	a3,a4,a98 <vprintfmt+0x3a4>
     8fc:	00040713          	mv	a4,s0
     900:	00170713          	addi	a4,a4,1
     904:	00074503          	lbu	a0,0(a4)
     908:	001d979b          	slliw	a5,s11,0x1
     90c:	003d9d9b          	slliw	s11,s11,0x3
     910:	01b78dbb          	addw	s11,a5,s11
     914:	00bd8dbb          	addw	s11,s11,a1
     918:	fd05079b          	addiw	a5,a0,-48
     91c:	00900693          	li	a3,9
     920:	fd0d8d9b          	addiw	s11,s11,-48
     924:	00050593          	mv	a1,a0
     928:	fcf6fce3          	bleu	a5,a3,900 <vprintfmt+0x20c>
     92c:	f89ff06f          	j	8b4 <vprintfmt+0x1c0>
     930:	000aa503          	lw	a0,0(s5)
     934:	00048593          	mv	a1,s1
     938:	008a8a93          	addi	s5,s5,8
     93c:	000900e7          	jalr	s2
     940:	e1dff06f          	j	75c <vprintfmt+0x68>
     944:	00100793          	li	a5,1
     948:	14c7d063          	ble	a2,a5,a88 <vprintfmt+0x394>
     94c:	000abd83          	ld	s11,0(s5)
     950:	008a8a93          	addi	s5,s5,8
     954:	00a00793          	li	a5,10
     958:	ea0dd8e3          	bgez	s11,808 <vprintfmt+0x114>
     95c:	00048593          	mv	a1,s1
     960:	02d00513          	li	a0,45
     964:	00f13423          	sd	a5,8(sp)
     968:	000900e7          	jalr	s2
     96c:	41b00db3          	neg	s11,s11
     970:	00813783          	ld	a5,8(sp)
     974:	e95ff06f          	j	808 <vprintfmt+0x114>
     978:	00174503          	lbu	a0,1(a4)
     97c:	0016061b          	addiw	a2,a2,1
     980:	00040713          	mv	a4,s0
     984:	dfdff06f          	j	780 <vprintfmt+0x8c>
     988:	000abb83          	ld	s7,0(s5)
     98c:	008a8a93          	addi	s5,s5,8
     990:	0e0b8663          	beqz	s7,a7c <vprintfmt+0x388>
     994:	05805463          	blez	s8,9dc <vprintfmt+0x2e8>
     998:	02d00713          	li	a4,45
     99c:	0ced0863          	beq	s10,a4,a6c <vprintfmt+0x378>
     9a0:	000d8593          	mv	a1,s11
     9a4:	000b8513          	mv	a0,s7
     9a8:	1bd000ef          	jal	1364 <strnlen>
     9ac:	40ac0c3b          	subw	s8,s8,a0
     9b0:	03805663          	blez	s8,9dc <vprintfmt+0x2e8>
     9b4:	000c0c93          	mv	s9,s8
     9b8:	fffc8c9b          	addiw	s9,s9,-1
     9bc:	00048593          	mv	a1,s1
     9c0:	000d0513          	mv	a0,s10
     9c4:	000900e7          	jalr	s2
     9c8:	fe0c98e3          	bnez	s9,9b8 <vprintfmt+0x2c4>
     9cc:	00100793          	li	a5,1
     9d0:	fffc071b          	addiw	a4,s8,-1
     9d4:	4187883b          	subw	a6,a5,s8
     9d8:	00e80c3b          	addw	s8,a6,a4
     9dc:	000bc503          	lbu	a0,0(s7)
     9e0:	d6050ee3          	beqz	a0,75c <vprintfmt+0x68>
     9e4:	fff00d13          	li	s10,-1
     9e8:	000dc663          	bltz	s11,9f4 <vprintfmt+0x300>
     9ec:	fffd8d9b          	addiw	s11,s11,-1
     9f0:	01ad8e63          	beq	s11,s10,a0c <vprintfmt+0x318>
     9f4:	00048593          	mv	a1,s1
     9f8:	001b8b93          	addi	s7,s7,1
     9fc:	000900e7          	jalr	s2
     a00:	000bc503          	lbu	a0,0(s7)
     a04:	fffc0c1b          	addiw	s8,s8,-1
     a08:	fe0510e3          	bnez	a0,9e8 <vprintfmt+0x2f4>
     a0c:	d58058e3          	blez	s8,75c <vprintfmt+0x68>
     a10:	fffc0c1b          	addiw	s8,s8,-1
     a14:	00048593          	mv	a1,s1
     a18:	02000513          	li	a0,32
     a1c:	000900e7          	jalr	s2
     a20:	fe0c18e3          	bnez	s8,a10 <vprintfmt+0x31c>
     a24:	d39ff06f          	j	75c <vprintfmt+0x68>
     a28:	00a00793          	li	a5,10
     a2c:	dcdff06f          	j	7f8 <vprintfmt+0x104>
     a30:	01000793          	li	a5,16
     a34:	dc5ff06f          	j	7f8 <vprintfmt+0x104>
     a38:	03000513          	li	a0,48
     a3c:	00048593          	mv	a1,s1
     a40:	000900e7          	jalr	s2
     a44:	00048593          	mv	a1,s1
     a48:	07800513          	li	a0,120
     a4c:	000900e7          	jalr	s2
     a50:	01000793          	li	a5,16
     a54:	dadff06f          	j	800 <vprintfmt+0x10c>
     a58:	00048593          	mv	a1,s1
     a5c:	02500513          	li	a0,37
     a60:	000900e7          	jalr	s2
     a64:	000b8413          	mv	s0,s7
     a68:	cf5ff06f          	j	75c <vprintfmt+0x68>
     a6c:	000bc503          	lbu	a0,0(s7)
     a70:	fa0500e3          	beqz	a0,a10 <vprintfmt+0x31c>
     a74:	fff00d13          	li	s10,-1
     a78:	f71ff06f          	j	9e8 <vprintfmt+0x2f4>
     a7c:	000057b7          	lui	a5,0x5
     a80:	5b878b93          	addi	s7,a5,1464 # 55b8 <verify_data+0x2160>
     a84:	f11ff06f          	j	994 <vprintfmt+0x2a0>
     a88:	ec0612e3          	bnez	a2,94c <vprintfmt+0x258>
     a8c:	000aad83          	lw	s11,0(s5)
     a90:	008a8a93          	addi	s5,s5,8
     a94:	ec1ff06f          	j	954 <vprintfmt+0x260>
     a98:	00078513          	mv	a0,a5
     a9c:	00040713          	mv	a4,s0
     aa0:	e15ff06f          	j	8b4 <vprintfmt+0x1c0>
     aa4:	d4061ee3          	bnez	a2,800 <vprintfmt+0x10c>
     aa8:	000aed83          	lwu	s11,0(s5)
     aac:	008a8a93          	addi	s5,s5,8
     ab0:	d59ff06f          	j	808 <vprintfmt+0x114>
     ab4:	00012423          	sw	zero,8(sp)
     ab8:	00100b93          	li	s7,1
     abc:	fffc0d9b          	addiw	s11,s8,-1
     ac0:	00000c93          	li	s9,0
     ac4:	d98bc2e3          	blt	s7,s8,848 <vprintfmt+0x154>
     ac8:	db1ff06f          	j	878 <vprintfmt+0x184>

0000000000000acc <tohost_exit>:
     acc:	00151513          	slli	a0,a0,0x1
     ad0:	00156793          	ori	a5,a0,1
     ad4:	78079073          	csrw	mtohost,a5
     ad8:	0000006f          	j	ad8 <tohost_exit+0xc>

0000000000000adc <handle_trap>:
     adc:	ff010113          	addi	sp,sp,-16
     ae0:	00813023          	sd	s0,0(sp)
     ae4:	00113423          	sd	ra,8(sp)
     ae8:	00200693          	li	a3,2
     aec:	01010413          	addi	s0,sp,16
     af0:	0080076f          	jal	a4,af8 <handle_trap+0x1c>
     af4:	0c002573          	csrr	a0,stats
     af8:	f8010113          	addi	sp,sp,-128
     afc:	08d50463          	beq	a0,a3,b84 <handle_trap+0xa8>
     b00:	00800713          	li	a4,8
     b04:	00e50a63          	beq	a0,a4,b18 <handle_trap+0x3c>
     b08:	000017b7          	lui	a5,0x1
     b0c:	a7378793          	addi	a5,a5,-1421 # a73 <vprintfmt+0x37f>
     b10:	78079073          	csrw	mtohost,a5
     b14:	0000006f          	j	b14 <handle_trap+0x38>
     b18:	08863703          	ld	a4,136(a2)
     b1c:	05d00693          	li	a3,93
     b20:	2cd70c63          	beq	a4,a3,df8 <handle_trap+0x31c>
     b24:	4d200693          	li	a3,1234
     b28:	06d70a63          	beq	a4,a3,b9c <handle_trap+0xc0>
     b2c:	05063503          	ld	a0,80(a2)
     b30:	03f10793          	addi	a5,sp,63
     b34:	fc07f793          	andi	a5,a5,-64
     b38:	05863683          	ld	a3,88(a2)
     b3c:	00e7b023          	sd	a4,0(a5)
     b40:	06063703          	ld	a4,96(a2)
     b44:	00a7b423          	sd	a0,8(a5)
     b48:	00d7b823          	sd	a3,16(a5)
     b4c:	00e7bc23          	sd	a4,24(a5)
     b50:	0330000f          	fence	rw,rw
     b54:	78079073          	csrw	mtohost,a5
     b58:	00000713          	li	a4,0
     b5c:	781716f3          	csrrw	a3,mfromhost,a4
     b60:	fe068ee3          	beqz	a3,b5c <handle_trap+0x80>
     b64:	0007b783          	ld	a5,0(a5)
     b68:	ff040113          	addi	sp,s0,-16
     b6c:	00813083          	ld	ra,8(sp)
     b70:	00458513          	addi	a0,a1,4
     b74:	00013403          	ld	s0,0(sp)
     b78:	04f63823          	sd	a5,80(a2)
     b7c:	01010113          	addi	sp,sp,16
     b80:	00008067          	ret
     b84:	00072703          	lw	a4,0(a4)
     b88:	0005a783          	lw	a5,0(a1)
     b8c:	00f777b3          	and	a5,a4,a5
     b90:	f6f71ce3          	bne	a4,a5,b08 <handle_trap+0x2c>
     b94:	00000793          	li	a5,0
     b98:	fd1ff06f          	j	b68 <handle_trap+0x8c>
     b9c:	05062703          	lw	a4,80(a2)
     ba0:	00070463          	beqz	a4,ba8 <handle_trap+0xcc>
     ba4:	0c00e573          	csrrs	a0,stats,1
     ba8:	c0002573          	rdcycle	a0
     bac:	a8818793          	addi	a5,gp,-1400 # 56e0 <counters>
     bb0:	00071c63          	bnez	a4,bc8 <handle_trap+0xec>
     bb4:	0007b683          	ld	a3,0(a5)
     bb8:	40d50533          	sub	a0,a0,a3
     bbc:	000056b7          	lui	a3,0x5
     bc0:	5c068693          	addi	a3,a3,1472 # 55c0 <verify_data+0x2168>
     bc4:	08d7b823          	sd	a3,144(a5)
     bc8:	00a7b023          	sd	a0,0(a5)
     bcc:	c0202573          	rdinstret	a0
     bd0:	00071c63          	bnez	a4,be8 <handle_trap+0x10c>
     bd4:	0087b683          	ld	a3,8(a5)
     bd8:	40d50533          	sub	a0,a0,a3
     bdc:	000056b7          	lui	a3,0x5
     be0:	5c868693          	addi	a3,a3,1480 # 55c8 <verify_data+0x2170>
     be4:	08d7bc23          	sd	a3,152(a5)
     be8:	00a7b423          	sd	a0,8(a5)
     bec:	cc002573          	csrr	a0,uarch0
     bf0:	00071c63          	bnez	a4,c08 <handle_trap+0x12c>
     bf4:	0107b683          	ld	a3,16(a5)
     bf8:	40d50533          	sub	a0,a0,a3
     bfc:	000056b7          	lui	a3,0x5
     c00:	5d068693          	addi	a3,a3,1488 # 55d0 <verify_data+0x2178>
     c04:	0ad7b023          	sd	a3,160(a5)
     c08:	00a7b823          	sd	a0,16(a5)
     c0c:	cc102573          	csrr	a0,uarch1
     c10:	00071c63          	bnez	a4,c28 <handle_trap+0x14c>
     c14:	0187b683          	ld	a3,24(a5)
     c18:	40d50533          	sub	a0,a0,a3
     c1c:	000056b7          	lui	a3,0x5
     c20:	5d868693          	addi	a3,a3,1496 # 55d8 <verify_data+0x2180>
     c24:	0ad7b423          	sd	a3,168(a5)
     c28:	00a7bc23          	sd	a0,24(a5)
     c2c:	cc202573          	csrr	a0,uarch2
     c30:	00071c63          	bnez	a4,c48 <handle_trap+0x16c>
     c34:	0207b683          	ld	a3,32(a5)
     c38:	40d50533          	sub	a0,a0,a3
     c3c:	000056b7          	lui	a3,0x5
     c40:	5e068693          	addi	a3,a3,1504 # 55e0 <verify_data+0x2188>
     c44:	0ad7b823          	sd	a3,176(a5)
     c48:	02a7b023          	sd	a0,32(a5)
     c4c:	cc302573          	csrr	a0,uarch3
     c50:	00071c63          	bnez	a4,c68 <handle_trap+0x18c>
     c54:	0287b683          	ld	a3,40(a5)
     c58:	40d50533          	sub	a0,a0,a3
     c5c:	000056b7          	lui	a3,0x5
     c60:	5e868693          	addi	a3,a3,1512 # 55e8 <verify_data+0x2190>
     c64:	0ad7bc23          	sd	a3,184(a5)
     c68:	02a7b423          	sd	a0,40(a5)
     c6c:	cc402573          	csrr	a0,uarch4
     c70:	00071c63          	bnez	a4,c88 <handle_trap+0x1ac>
     c74:	0307b683          	ld	a3,48(a5)
     c78:	40d50533          	sub	a0,a0,a3
     c7c:	000056b7          	lui	a3,0x5
     c80:	5f068693          	addi	a3,a3,1520 # 55f0 <verify_data+0x2198>
     c84:	0cd7b023          	sd	a3,192(a5)
     c88:	02a7b823          	sd	a0,48(a5)
     c8c:	cc502573          	csrr	a0,uarch5
     c90:	00071c63          	bnez	a4,ca8 <handle_trap+0x1cc>
     c94:	0387b683          	ld	a3,56(a5)
     c98:	40d50533          	sub	a0,a0,a3
     c9c:	000056b7          	lui	a3,0x5
     ca0:	5f868693          	addi	a3,a3,1528 # 55f8 <verify_data+0x21a0>
     ca4:	0cd7b423          	sd	a3,200(a5)
     ca8:	02a7bc23          	sd	a0,56(a5)
     cac:	cc602573          	csrr	a0,uarch6
     cb0:	00071c63          	bnez	a4,cc8 <handle_trap+0x1ec>
     cb4:	0407b683          	ld	a3,64(a5)
     cb8:	40d50533          	sub	a0,a0,a3
     cbc:	000056b7          	lui	a3,0x5
     cc0:	60068693          	addi	a3,a3,1536 # 5600 <verify_data+0x21a8>
     cc4:	0cd7b823          	sd	a3,208(a5)
     cc8:	04a7b023          	sd	a0,64(a5)
     ccc:	cc702573          	csrr	a0,uarch7
     cd0:	00071c63          	bnez	a4,ce8 <handle_trap+0x20c>
     cd4:	0487b683          	ld	a3,72(a5)
     cd8:	40d50533          	sub	a0,a0,a3
     cdc:	000056b7          	lui	a3,0x5
     ce0:	60868693          	addi	a3,a3,1544 # 5608 <verify_data+0x21b0>
     ce4:	0cd7bc23          	sd	a3,216(a5)
     ce8:	04a7b423          	sd	a0,72(a5)
     cec:	cc802573          	csrr	a0,uarch8
     cf0:	00071c63          	bnez	a4,d08 <handle_trap+0x22c>
     cf4:	0507b683          	ld	a3,80(a5)
     cf8:	40d50533          	sub	a0,a0,a3
     cfc:	000056b7          	lui	a3,0x5
     d00:	61068693          	addi	a3,a3,1552 # 5610 <verify_data+0x21b8>
     d04:	0ed7b023          	sd	a3,224(a5)
     d08:	04a7b823          	sd	a0,80(a5)
     d0c:	cc902573          	csrr	a0,uarch9
     d10:	00071c63          	bnez	a4,d28 <handle_trap+0x24c>
     d14:	0587b683          	ld	a3,88(a5)
     d18:	40d50533          	sub	a0,a0,a3
     d1c:	000056b7          	lui	a3,0x5
     d20:	61868693          	addi	a3,a3,1560 # 5618 <verify_data+0x21c0>
     d24:	0ed7b423          	sd	a3,232(a5)
     d28:	04a7bc23          	sd	a0,88(a5)
     d2c:	cca02573          	csrr	a0,uarch10
     d30:	00071c63          	bnez	a4,d48 <handle_trap+0x26c>
     d34:	0607b683          	ld	a3,96(a5)
     d38:	40d50533          	sub	a0,a0,a3
     d3c:	000056b7          	lui	a3,0x5
     d40:	62068693          	addi	a3,a3,1568 # 5620 <verify_data+0x21c8>
     d44:	0ed7b823          	sd	a3,240(a5)
     d48:	06a7b023          	sd	a0,96(a5)
     d4c:	ccb02573          	csrr	a0,uarch11
     d50:	00071c63          	bnez	a4,d68 <handle_trap+0x28c>
     d54:	0687b683          	ld	a3,104(a5)
     d58:	40d50533          	sub	a0,a0,a3
     d5c:	000056b7          	lui	a3,0x5
     d60:	62868693          	addi	a3,a3,1576 # 5628 <verify_data+0x21d0>
     d64:	0ed7bc23          	sd	a3,248(a5)
     d68:	06a7b423          	sd	a0,104(a5)
     d6c:	ccc02573          	csrr	a0,uarch12
     d70:	00071c63          	bnez	a4,d88 <handle_trap+0x2ac>
     d74:	0707b683          	ld	a3,112(a5)
     d78:	40d50533          	sub	a0,a0,a3
     d7c:	000056b7          	lui	a3,0x5
     d80:	63068693          	addi	a3,a3,1584 # 5630 <verify_data+0x21d8>
     d84:	10d7b023          	sd	a3,256(a5)
     d88:	06a7b823          	sd	a0,112(a5)
     d8c:	ccd02573          	csrr	a0,uarch13
     d90:	00071c63          	bnez	a4,da8 <handle_trap+0x2cc>
     d94:	0787b683          	ld	a3,120(a5)
     d98:	40d50533          	sub	a0,a0,a3
     d9c:	000056b7          	lui	a3,0x5
     da0:	63868693          	addi	a3,a3,1592 # 5638 <verify_data+0x21e0>
     da4:	10d7b423          	sd	a3,264(a5)
     da8:	06a7bc23          	sd	a0,120(a5)
     dac:	cce02573          	csrr	a0,uarch14
     db0:	00071c63          	bnez	a4,dc8 <handle_trap+0x2ec>
     db4:	0807b683          	ld	a3,128(a5)
     db8:	40d50533          	sub	a0,a0,a3
     dbc:	000056b7          	lui	a3,0x5
     dc0:	64068693          	addi	a3,a3,1600 # 5640 <verify_data+0x21e8>
     dc4:	10d7b823          	sd	a3,272(a5)
     dc8:	08a7b023          	sd	a0,128(a5)
     dcc:	ccf02573          	csrr	a0,uarch15
     dd0:	02071863          	bnez	a4,e00 <handle_trap+0x324>
     dd4:	0887b703          	ld	a4,136(a5)
     dd8:	40e50533          	sub	a0,a0,a4
     ddc:	00005737          	lui	a4,0x5
     de0:	64870713          	addi	a4,a4,1608 # 5648 <verify_data+0x21f0>
     de4:	10e7bc23          	sd	a4,280(a5)
     de8:	08a7b423          	sd	a0,136(a5)
     dec:	0c00f573          	csrrc	a0,stats,1
     df0:	00000793          	li	a5,0
     df4:	d75ff06f          	j	b68 <handle_trap+0x8c>
     df8:	05063503          	ld	a0,80(a2)
     dfc:	cd1ff0ef          	jal	acc <tohost_exit>
     e00:	08a7b423          	sd	a0,136(a5)
     e04:	d91ff06f          	j	b94 <handle_trap+0xb8>

0000000000000e08 <exit>:
     e08:	05d00893          	li	a7,93
     e0c:	00000593          	li	a1,0
     e10:	00000613          	li	a2,0
     e14:	00000073          	ecall
     e18:	0000006f          	j	e18 <exit+0x10>

0000000000000e1c <setStats>:
     e1c:	4d200893          	li	a7,1234
     e20:	00000593          	li	a1,0
     e24:	00000613          	li	a2,0
     e28:	00000073          	ecall
     e2c:	00008067          	ret

0000000000000e30 <printstr>:
     e30:	ff010113          	addi	sp,sp,-16
     e34:	00813023          	sd	s0,0(sp)
     e38:	00113423          	sd	ra,8(sp)
     e3c:	00050413          	mv	s0,a0
     e40:	454000ef          	jal	1294 <strlen>
     e44:	00050613          	mv	a2,a0
     e48:	04000893          	li	a7,64
     e4c:	00100513          	li	a0,1
     e50:	00040593          	mv	a1,s0
     e54:	00000073          	ecall
     e58:	00813083          	ld	ra,8(sp)
     e5c:	00013403          	ld	s0,0(sp)
     e60:	01010113          	addi	sp,sp,16
     e64:	00008067          	ret

0000000000000e68 <thread_entry>:
     e68:	00050463          	beqz	a0,e70 <thread_entry+0x8>
     e6c:	0000006f          	j	e6c <thread_entry+0x4>
     e70:	00008067          	ret

0000000000000e74 <printhex>:
     e74:	fd010113          	addi	sp,sp,-48
     e78:	02113423          	sd	ra,40(sp)
     e7c:	01710713          	addi	a4,sp,23
     e80:	00710613          	addi	a2,sp,7
     e84:	00f57793          	andi	a5,a0,15
     e88:	00a7b793          	sltiu	a5,a5,10
     e8c:	40f007b3          	neg	a5,a5
     e90:	fd97f793          	andi	a5,a5,-39
     e94:	00f57693          	andi	a3,a0,15
     e98:	05778793          	addi	a5,a5,87
     e9c:	00d787bb          	addw	a5,a5,a3
     ea0:	00f70023          	sb	a5,0(a4)
     ea4:	fff70713          	addi	a4,a4,-1
     ea8:	00455513          	srli	a0,a0,0x4
     eac:	fcc71ce3          	bne	a4,a2,e84 <printhex+0x10>
     eb0:	00810513          	addi	a0,sp,8
     eb4:	00010c23          	sb	zero,24(sp)
     eb8:	3dc000ef          	jal	1294 <strlen>
     ebc:	00050613          	mv	a2,a0
     ec0:	04000893          	li	a7,64
     ec4:	00100513          	li	a0,1
     ec8:	00810593          	addi	a1,sp,8
     ecc:	00000073          	ecall
     ed0:	02813083          	ld	ra,40(sp)
     ed4:	03010113          	addi	sp,sp,48
     ed8:	00008067          	ret

0000000000000edc <printf>:
     edc:	fa010113          	addi	sp,sp,-96
     ee0:	02810313          	addi	t1,sp,40
     ee4:	02c13823          	sd	a2,48(sp)
     ee8:	00050613          	mv	a2,a0
     eec:	02b13423          	sd	a1,40(sp)
     ef0:	02d13c23          	sd	a3,56(sp)
     ef4:	68c00513          	li	a0,1676
     ef8:	00030693          	mv	a3,t1
     efc:	00000593          	li	a1,0
     f00:	00113c23          	sd	ra,24(sp)
     f04:	04e13023          	sd	a4,64(sp)
     f08:	04f13423          	sd	a5,72(sp)
     f0c:	05013823          	sd	a6,80(sp)
     f10:	05113c23          	sd	a7,88(sp)
     f14:	00613423          	sd	t1,8(sp)
     f18:	fdcff0ef          	jal	6f4 <vprintfmt>
     f1c:	01813083          	ld	ra,24(sp)
     f20:	00000513          	li	a0,0
     f24:	06010113          	addi	sp,sp,96
     f28:	00008067          	ret

0000000000000f2c <sprintf>:
     f2c:	fa010113          	addi	sp,sp,-96
     f30:	03010313          	addi	t1,sp,48
     f34:	02813023          	sd	s0,32(sp)
     f38:	00a13423          	sd	a0,8(sp)
     f3c:	00050413          	mv	s0,a0
     f40:	02c13823          	sd	a2,48(sp)
     f44:	02d13c23          	sd	a3,56(sp)
     f48:	00058613          	mv	a2,a1
     f4c:	6dc00513          	li	a0,1756
     f50:	00810593          	addi	a1,sp,8
     f54:	00030693          	mv	a3,t1
     f58:	02113423          	sd	ra,40(sp)
     f5c:	04f13423          	sd	a5,72(sp)
     f60:	04e13023          	sd	a4,64(sp)
     f64:	05013823          	sd	a6,80(sp)
     f68:	05113c23          	sd	a7,88(sp)
     f6c:	00613c23          	sd	t1,24(sp)
     f70:	f84ff0ef          	jal	6f4 <vprintfmt>
     f74:	00813783          	ld	a5,8(sp)
     f78:	00078023          	sb	zero,0(a5)
     f7c:	00813503          	ld	a0,8(sp)
     f80:	02813083          	ld	ra,40(sp)
     f84:	4085053b          	subw	a0,a0,s0
     f88:	02013403          	ld	s0,32(sp)
     f8c:	06010113          	addi	sp,sp,96
     f90:	00008067          	ret

0000000000000f94 <_init>:
     f94:	fb010113          	addi	sp,sp,-80
     f98:	02913c23          	sd	s1,56(sp)
     f9c:	03213823          	sd	s2,48(sp)
     fa0:	00020913          	mv	s2,tp
     fa4:	00020493          	mv	s1,tp
     fa8:	409904b3          	sub	s1,s2,s1
     fac:	03413023          	sd	s4,32(sp)
     fb0:	00058a13          	mv	s4,a1
     fb4:	04113423          	sd	ra,72(sp)
     fb8:	04813023          	sd	s0,64(sp)
     fbc:	03313423          	sd	s3,40(sp)
     fc0:	05010413          	addi	s0,sp,80
     fc4:	01513c23          	sd	s5,24(sp)
     fc8:	01613823          	sd	s6,16(sp)
     fcc:	01713423          	sd	s7,8(sp)
     fd0:	00050993          	mv	s3,a0
     fd4:	d8010113          	addi	sp,sp,-640
     fd8:	00020513          	mv	a0,tp
     fdc:	00048613          	mv	a2,s1
     fe0:	ba818593          	addi	a1,gp,-1112 # 5800 <_end>
     fe4:	00020b13          	mv	s6,tp
     fe8:	0b0000ef          	jal	1098 <memcpy>
     fec:	04420613          	addi	a2,tp,68 # 44 <_tbss_end>
     ff0:	41260633          	sub	a2,a2,s2
     ff4:	009b0533          	add	a0,s6,s1
     ff8:	00000593          	li	a1,0
     ffc:	1bc000ef          	jal	11b8 <memset>
    1000:	000a0593          	mv	a1,s4
    1004:	00098513          	mv	a0,s3
    1008:	e61ff0ef          	jal	e68 <thread_entry>
    100c:	03f10a93          	addi	s5,sp,63
    1010:	00000593          	li	a1,0
    1014:	00000513          	li	a0,0
    1018:	a8818493          	addi	s1,gp,-1400 # 56e0 <counters>
    101c:	fc0afa93          	andi	s5,s5,-64
    1020:	388000ef          	jal	13a8 <main>
    1024:	09048913          	addi	s2,s1,144
    1028:	00050b93          	mv	s7,a0
    102c:	00090993          	mv	s3,s2
    1030:	000a8a13          	mv	s4,s5
    1034:	00005b37          	lui	s6,0x5
    1038:	0100006f          	j	1048 <_init+0xb4>
    103c:	00848493          	addi	s1,s1,8
    1040:	00890913          	addi	s2,s2,8
    1044:	03348663          	beq	s1,s3,1070 <_init+0xdc>
    1048:	0004b683          	ld	a3,0(s1)
    104c:	fe0688e3          	beqz	a3,103c <_init+0xa8>
    1050:	00093603          	ld	a2,0(s2)
    1054:	000a0513          	mv	a0,s4
    1058:	668b0593          	addi	a1,s6,1640 # 5668 <verify_data+0x2210>
    105c:	ed1ff0ef          	jal	f2c <sprintf>
    1060:	00848493          	addi	s1,s1,8
    1064:	00aa0a33          	add	s4,s4,a0
    1068:	00890913          	addi	s2,s2,8
    106c:	fd349ee3          	bne	s1,s3,1048 <_init+0xb4>
    1070:	034a8063          	beq	s5,s4,1090 <_init+0xfc>
    1074:	000a8513          	mv	a0,s5
    1078:	21c000ef          	jal	1294 <strlen>
    107c:	00050613          	mv	a2,a0
    1080:	04000893          	li	a7,64
    1084:	00100513          	li	a0,1
    1088:	000a8593          	mv	a1,s5
    108c:	00000073          	ecall
    1090:	000b8513          	mv	a0,s7
    1094:	d75ff0ef          	jal	e08 <exit>

0000000000001098 <memcpy>:
    1098:	00a5c7b3          	xor	a5,a1,a0
    109c:	0077f793          	andi	a5,a5,7
    10a0:	00c508b3          	add	a7,a0,a2
    10a4:	0e079263          	bnez	a5,1188 <memcpy+0xf0>
    10a8:	00700793          	li	a5,7
    10ac:	0ec7fe63          	bleu	a2,a5,11a8 <memcpy+0x110>
    10b0:	00757793          	andi	a5,a0,7
    10b4:	04079a63          	bnez	a5,1108 <memcpy+0x70>
    10b8:	ff88f813          	andi	a6,a7,-8
    10bc:	fc080793          	addi	a5,a6,-64
    10c0:	00050713          	mv	a4,a0
    10c4:	06f56663          	bltu	a0,a5,1130 <memcpy+0x98>
    10c8:	00058693          	mv	a3,a1
    10cc:	00070793          	mv	a5,a4
    10d0:	03077863          	bleu	a6,a4,1100 <memcpy+0x68>
    10d4:	0006b603          	ld	a2,0(a3)
    10d8:	00878793          	addi	a5,a5,8
    10dc:	00868693          	addi	a3,a3,8
    10e0:	fec7bc23          	sd	a2,-8(a5)
    10e4:	ff07e8e3          	bltu	a5,a6,10d4 <memcpy+0x3c>
    10e8:	fff74793          	not	a5,a4
    10ec:	01078833          	add	a6,a5,a6
    10f0:	ff887813          	andi	a6,a6,-8
    10f4:	00880813          	addi	a6,a6,8
    10f8:	01070733          	add	a4,a4,a6
    10fc:	010585b3          	add	a1,a1,a6
    1100:	09176863          	bltu	a4,a7,1190 <memcpy+0xf8>
    1104:	00008067          	ret
    1108:	00050713          	mv	a4,a0
    110c:	0005c683          	lbu	a3,0(a1)
    1110:	00170713          	addi	a4,a4,1
    1114:	00777793          	andi	a5,a4,7
    1118:	fed70fa3          	sb	a3,-1(a4)
    111c:	00158593          	addi	a1,a1,1
    1120:	fe0796e3          	bnez	a5,110c <memcpy+0x74>
    1124:	ff88f813          	andi	a6,a7,-8
    1128:	fc080793          	addi	a5,a6,-64
    112c:	f8f77ee3          	bleu	a5,a4,10c8 <memcpy+0x30>
    1130:	0005b383          	ld	t2,0(a1)
    1134:	0085b283          	ld	t0,8(a1)
    1138:	0105bf83          	ld	t6,16(a1)
    113c:	0185bf03          	ld	t5,24(a1)
    1140:	0205be83          	ld	t4,32(a1)
    1144:	0285be03          	ld	t3,40(a1)
    1148:	0305b303          	ld	t1,48(a1)
    114c:	0385b603          	ld	a2,56(a1)
    1150:	04858593          	addi	a1,a1,72
    1154:	04870713          	addi	a4,a4,72
    1158:	ff85b683          	ld	a3,-8(a1)
    115c:	fa773c23          	sd	t2,-72(a4)
    1160:	fc573023          	sd	t0,-64(a4)
    1164:	fdf73423          	sd	t6,-56(a4)
    1168:	fde73823          	sd	t5,-48(a4)
    116c:	fdd73c23          	sd	t4,-40(a4)
    1170:	ffc73023          	sd	t3,-32(a4)
    1174:	fe673423          	sd	t1,-24(a4)
    1178:	fec73823          	sd	a2,-16(a4)
    117c:	fed73c23          	sd	a3,-8(a4)
    1180:	faf768e3          	bltu	a4,a5,1130 <memcpy+0x98>
    1184:	f45ff06f          	j	10c8 <memcpy+0x30>
    1188:	00050713          	mv	a4,a0
    118c:	03157463          	bleu	a7,a0,11b4 <memcpy+0x11c>
    1190:	0005c783          	lbu	a5,0(a1)
    1194:	00170713          	addi	a4,a4,1
    1198:	00158593          	addi	a1,a1,1
    119c:	fef70fa3          	sb	a5,-1(a4)
    11a0:	ff1768e3          	bltu	a4,a7,1190 <memcpy+0xf8>
    11a4:	00008067          	ret
    11a8:	00050713          	mv	a4,a0
    11ac:	ff1562e3          	bltu	a0,a7,1190 <memcpy+0xf8>
    11b0:	f55ff06f          	j	1104 <memcpy+0x6c>
    11b4:	00008067          	ret

00000000000011b8 <memset>:
    11b8:	00f00813          	li	a6,15
    11bc:	00050713          	mv	a4,a0
    11c0:	02c87a63          	bleu	a2,a6,11f4 <memset+0x3c>
    11c4:	00f77793          	andi	a5,a4,15
    11c8:	0a079063          	bnez	a5,1268 <memset+0xb0>
    11cc:	06059e63          	bnez	a1,1248 <memset+0x90>
    11d0:	ff067693          	andi	a3,a2,-16
    11d4:	00f67613          	andi	a2,a2,15
    11d8:	00e686b3          	add	a3,a3,a4
    11dc:	00b73023          	sd	a1,0(a4)
    11e0:	00b73423          	sd	a1,8(a4)
    11e4:	01070713          	addi	a4,a4,16
    11e8:	fed76ae3          	bltu	a4,a3,11dc <memset+0x24>
    11ec:	00061463          	bnez	a2,11f4 <memset+0x3c>
    11f0:	00008067          	ret
    11f4:	40c806b3          	sub	a3,a6,a2
    11f8:	00269693          	slli	a3,a3,0x2
    11fc:	00000297          	auipc	t0,0x0
    1200:	005686b3          	add	a3,a3,t0
    1204:	00c68067          	jr	a3,12
    1208:	00b70723          	sb	a1,14(a4)
    120c:	00b706a3          	sb	a1,13(a4)
    1210:	00b70623          	sb	a1,12(a4)
    1214:	00b705a3          	sb	a1,11(a4)
    1218:	00b70523          	sb	a1,10(a4)
    121c:	00b704a3          	sb	a1,9(a4)
    1220:	00b70423          	sb	a1,8(a4)
    1224:	00b703a3          	sb	a1,7(a4)
    1228:	00b70323          	sb	a1,6(a4)
    122c:	00b702a3          	sb	a1,5(a4)
    1230:	00b70223          	sb	a1,4(a4)
    1234:	00b701a3          	sb	a1,3(a4)
    1238:	00b70123          	sb	a1,2(a4)
    123c:	00b700a3          	sb	a1,1(a4)
    1240:	00b70023          	sb	a1,0(a4)
    1244:	00008067          	ret
    1248:	0ff5f593          	andi	a1,a1,255
    124c:	00859693          	slli	a3,a1,0x8
    1250:	00d5e5b3          	or	a1,a1,a3
    1254:	01059693          	slli	a3,a1,0x10
    1258:	00d5e5b3          	or	a1,a1,a3
    125c:	02059693          	slli	a3,a1,0x20
    1260:	00d5e5b3          	or	a1,a1,a3
    1264:	f6dff06f          	j	11d0 <memset+0x18>
    1268:	00279693          	slli	a3,a5,0x2
    126c:	00000297          	auipc	t0,0x0
    1270:	005686b3          	add	a3,a3,t0
    1274:	00008293          	mv	t0,ra
    1278:	f98680e7          	jalr	a3,-104
    127c:	00028093          	mv	ra,t0
    1280:	ff078793          	addi	a5,a5,-16
    1284:	40f70733          	sub	a4,a4,a5
    1288:	00f60633          	add	a2,a2,a5
    128c:	f6c874e3          	bleu	a2,a6,11f4 <memset+0x3c>
    1290:	f3dff06f          	j	11cc <memset+0x14>

0000000000001294 <strlen>:
    1294:	00757793          	andi	a5,a0,7
    1298:	00050593          	mv	a1,a0
    129c:	06079a63          	bnez	a5,1310 <strlen+0x7c>
    12a0:	000057b7          	lui	a5,0x5
    12a4:	4587b683          	ld	a3,1112(a5) # 5458 <verify_data+0x2000>
    12a8:	fff00613          	li	a2,-1
    12ac:	00850513          	addi	a0,a0,8
    12b0:	ff853783          	ld	a5,-8(a0)
    12b4:	00d7f733          	and	a4,a5,a3
    12b8:	00d70733          	add	a4,a4,a3
    12bc:	00d7e7b3          	or	a5,a5,a3
    12c0:	00f767b3          	or	a5,a4,a5
    12c4:	fec784e3          	beq	a5,a2,12ac <strlen+0x18>
    12c8:	ff854783          	lbu	a5,-8(a0)
    12cc:	40b505b3          	sub	a1,a0,a1
    12d0:	06078263          	beqz	a5,1334 <strlen+0xa0>
    12d4:	ff954783          	lbu	a5,-7(a0)
    12d8:	04078a63          	beqz	a5,132c <strlen+0x98>
    12dc:	ffa54783          	lbu	a5,-6(a0)
    12e0:	06078263          	beqz	a5,1344 <strlen+0xb0>
    12e4:	ffb54783          	lbu	a5,-5(a0)
    12e8:	04078a63          	beqz	a5,133c <strlen+0xa8>
    12ec:	ffc54783          	lbu	a5,-4(a0)
    12f0:	ffd54703          	lbu	a4,-3(a0)
    12f4:	ffe54683          	lbu	a3,-2(a0)
    12f8:	04078a63          	beqz	a5,134c <strlen+0xb8>
    12fc:	04070c63          	beqz	a4,1354 <strlen+0xc0>
    1300:	fff58513          	addi	a0,a1,-1
    1304:	04068c63          	beqz	a3,135c <strlen+0xc8>
    1308:	00008067          	ret
    130c:	f8070ae3          	beqz	a4,12a0 <strlen+0xc>
    1310:	00054783          	lbu	a5,0(a0)
    1314:	00150513          	addi	a0,a0,1
    1318:	00757713          	andi	a4,a0,7
    131c:	fe0798e3          	bnez	a5,130c <strlen+0x78>
    1320:	40b50533          	sub	a0,a0,a1
    1324:	fff50513          	addi	a0,a0,-1
    1328:	00008067          	ret
    132c:	ff958513          	addi	a0,a1,-7
    1330:	00008067          	ret
    1334:	ff858513          	addi	a0,a1,-8
    1338:	00008067          	ret
    133c:	ffb58513          	addi	a0,a1,-5
    1340:	00008067          	ret
    1344:	ffa58513          	addi	a0,a1,-6
    1348:	00008067          	ret
    134c:	ffc58513          	addi	a0,a1,-4
    1350:	00008067          	ret
    1354:	ffd58513          	addi	a0,a1,-3
    1358:	00008067          	ret
    135c:	ffe58513          	addi	a0,a1,-2
    1360:	00008067          	ret

0000000000001364 <strnlen>:
    1364:	02058e63          	beqz	a1,13a0 <strnlen+0x3c>
    1368:	00054783          	lbu	a5,0(a0)
    136c:	02078a63          	beqz	a5,13a0 <strnlen+0x3c>
    1370:	00150793          	addi	a5,a0,1
    1374:	00b505b3          	add	a1,a0,a1
    1378:	0100006f          	j	1388 <strnlen+0x24>
    137c:	fff74683          	lbu	a3,-1(a4)
    1380:	00068c63          	beqz	a3,1398 <strnlen+0x34>
    1384:	00070793          	mv	a5,a4
    1388:	00178713          	addi	a4,a5,1
    138c:	fef598e3          	bne	a1,a5,137c <strnlen+0x18>
    1390:	40a58533          	sub	a0,a1,a0
    1394:	00008067          	ret
    1398:	40a78533          	sub	a0,a5,a0
    139c:	00008067          	ret
    13a0:	00000513          	li	a0,0
    13a4:	00008067          	ret

Disassembly of section .text.startup:

00000000000013a8 <main>:
    13a8:	fe010113          	addi	sp,sp,-32
    13ac:	00813823          	sd	s0,16(sp)
    13b0:	00913423          	sd	s1,8(sp)
    13b4:	00003437          	lui	s0,0x3
    13b8:	000014b7          	lui	s1,0x1
    13bc:	80048513          	addi	a0,s1,-2048 # 800 <vprintfmt+0x10c>
    13c0:	45840593          	addi	a1,s0,1112 # 3458 <verify_data>
    13c4:	01213023          	sd	s2,0(sp)
    13c8:	00113c23          	sd	ra,24(sp)
    13cc:	00001937          	lui	s2,0x1
    13d0:	92cff0ef          	jal	4fc <sort>
    13d4:	45890513          	addi	a0,s2,1112 # 1458 <input_data>
    13d8:	8d4ff0ef          	jal	4ac <verify.constprop.2>
    13dc:	02050063          	beqz	a0,13fc <main+0x54>
    13e0:	01813083          	ld	ra,24(sp)
    13e4:	00100513          	li	a0,1
    13e8:	01013403          	ld	s0,16(sp)
    13ec:	00813483          	ld	s1,8(sp)
    13f0:	00013903          	ld	s2,0(sp)
    13f4:	02010113          	addi	sp,sp,32
    13f8:	00008067          	ret
    13fc:	00100513          	li	a0,1
    1400:	a1dff0ef          	jal	e1c <setStats>
    1404:	45890593          	addi	a1,s2,1112
    1408:	80048513          	addi	a0,s1,-2048
    140c:	8f0ff0ef          	jal	4fc <sort>
    1410:	00000513          	li	a0,0
    1414:	a09ff0ef          	jal	e1c <setStats>
    1418:	45840513          	addi	a0,s0,1112
    141c:	01813083          	ld	ra,24(sp)
    1420:	01013403          	ld	s0,16(sp)
    1424:	00813483          	ld	s1,8(sp)
    1428:	00013903          	ld	s2,0(sp)
    142c:	02010113          	addi	sp,sp,32
    1430:	87cff06f          	j	4ac <verify.constprop.2>
    1434:	000055b7          	lui	a1,0x5
    1438:	04000893          	li	a7,64
    143c:	00100513          	li	a0,1
    1440:	65058593          	addi	a1,a1,1616 # 5650 <verify_data+0x21f8>
    1444:	01700613          	li	a2,23
    1448:	00000073          	ecall
    144c:	fff00513          	li	a0,-1
    1450:	00008067          	ret
