
rsort.riscv:     file format elf64-littleriscv


Disassembly of section .text:

0000000000000100 <user_trap_entry>:
     100:	2940006f          	j	394 <trap_entry>
     104:	00000013          	nop
     108:	00000013          	nop
     10c:	00000013          	nop
     110:	00000013          	nop
     114:	00000013          	nop
     118:	00000013          	nop
     11c:	00000013          	nop
     120:	00000013          	nop
     124:	00000013          	nop
     128:	00000013          	nop
     12c:	00000013          	nop
     130:	00000013          	nop
     134:	00000013          	nop
     138:	00000013          	nop
     13c:	00000013          	nop

0000000000000140 <supervisor_trap_entry>:
     140:	0000006f          	j	140 <supervisor_trap_entry>
     144:	00000013          	nop
     148:	00000013          	nop
     14c:	00000013          	nop
     150:	00000013          	nop
     154:	00000013          	nop
     158:	00000013          	nop
     15c:	00000013          	nop
     160:	00000013          	nop
     164:	00000013          	nop
     168:	00000013          	nop
     16c:	00000013          	nop
     170:	00000013          	nop
     174:	00000013          	nop
     178:	00000013          	nop
     17c:	00000013          	nop

0000000000000180 <hypervisor_trap_entry>:
     180:	0000006f          	j	180 <hypervisor_trap_entry>
     184:	00000013          	nop
     188:	00000013          	nop
     18c:	00000013          	nop
     190:	00000013          	nop
     194:	00000013          	nop
     198:	00000013          	nop
     19c:	00000013          	nop
     1a0:	00000013          	nop
     1a4:	00000013          	nop
     1a8:	00000013          	nop
     1ac:	00000013          	nop
     1b0:	00000013          	nop
     1b4:	00000013          	nop
     1b8:	00000013          	nop
     1bc:	00000013          	nop

00000000000001c0 <machine_trap_entry>:
     1c0:	1d40006f          	j	394 <trap_entry>
     1c4:	00000013          	nop
     1c8:	00000013          	nop
     1cc:	00000013          	nop
     1d0:	00000013          	nop
     1d4:	00000013          	nop
     1d8:	00000013          	nop
     1dc:	00000013          	nop
     1e0:	00000013          	nop
     1e4:	00000013          	nop
     1e8:	00000013          	nop
     1ec:	00000013          	nop
     1f0:	00000013          	nop
     1f4:	00000013          	nop
     1f8:	00000013          	nop
     1fc:	00000013          	nop

0000000000000200 <_start>:
     200:	00000093          	li	ra,0
     204:	00000113          	li	sp,0
     208:	00000193          	li	gp,0
     20c:	00000213          	li	tp,0
     210:	00000293          	li	t0,0
     214:	00000313          	li	t1,0
     218:	00000393          	li	t2,0
     21c:	00000413          	li	s0,0
     220:	00000493          	li	s1,0
     224:	00000513          	li	a0,0
     228:	00000593          	li	a1,0
     22c:	00000613          	li	a2,0
     230:	00000693          	li	a3,0
     234:	00000713          	li	a4,0
     238:	00000793          	li	a5,0
     23c:	00000813          	li	a6,0
     240:	00000893          	li	a7,0
     244:	00000913          	li	s2,0
     248:	00000993          	li	s3,0
     24c:	00000a13          	li	s4,0
     250:	00000a93          	li	s5,0
     254:	00000b13          	li	s6,0
     258:	00000b93          	li	s7,0
     25c:	00000c13          	li	s8,0
     260:	00000c93          	li	s9,0
     264:	00000d13          	li	s10,0
     268:	00000d93          	li	s11,0
     26c:	00000e13          	li	t3,0
     270:	00000e93          	li	t4,0
     274:	00000f13          	li	t5,0
     278:	00000f93          	li	t6,0
     27c:	03000293          	li	t0,48
     280:	3002b073          	csrc	mstatus,t0
     284:	00800293          	li	t0,8
     288:	3002a073          	csrs	mstatus,t0
     28c:	000032b7          	lui	t0,0x3
     290:	3002a073          	csrs	mstatus,t0
     294:	0000c2b7          	lui	t0,0xc
     298:	3002a073          	csrs	mstatus,t0
     29c:	f00022f3          	csrr	t0,mcpuid
     2a0:	0002c663          	bltz	t0,2ac <_start+0xac>
     2a4:	4d200513          	li	a0,1234
     2a8:	18d0006f          	j	c34 <tohost_exit>
     2ac:	300022f3          	csrr	t0,mstatus
     2b0:	0000c337          	lui	t1,0xc
     2b4:	0062f333          	and	t1,t0,t1
     2b8:	00005397          	auipc	t2,0x5
     2bc:	5a63a423          	sw	t1,1448(t2) # 5860 <have_vec>
     2c0:	00003337          	lui	t1,0x3
     2c4:	0062f333          	and	t1,t0,t1
     2c8:	08030463          	beqz	t1,350 <_start+0x150>
     2cc:	00301073          	fssr	zero
     2d0:	f0000053          	fmv.s.x	ft0,zero
     2d4:	f00000d3          	fmv.s.x	ft1,zero
     2d8:	f0000153          	fmv.s.x	ft2,zero
     2dc:	f00001d3          	fmv.s.x	ft3,zero
     2e0:	f0000253          	fmv.s.x	ft4,zero
     2e4:	f00002d3          	fmv.s.x	ft5,zero
     2e8:	f0000353          	fmv.s.x	ft6,zero
     2ec:	f00003d3          	fmv.s.x	ft7,zero
     2f0:	f0000453          	fmv.s.x	fs0,zero
     2f4:	f00004d3          	fmv.s.x	fs1,zero
     2f8:	f0000553          	fmv.s.x	fa0,zero
     2fc:	f00005d3          	fmv.s.x	fa1,zero
     300:	f0000653          	fmv.s.x	fa2,zero
     304:	f00006d3          	fmv.s.x	fa3,zero
     308:	f0000753          	fmv.s.x	fa4,zero
     30c:	f00007d3          	fmv.s.x	fa5,zero
     310:	f0000853          	fmv.s.x	fa6,zero
     314:	f00008d3          	fmv.s.x	fa7,zero
     318:	f0000953          	fmv.s.x	fs2,zero
     31c:	f00009d3          	fmv.s.x	fs3,zero
     320:	f0000a53          	fmv.s.x	fs4,zero
     324:	f0000ad3          	fmv.s.x	fs5,zero
     328:	f0000b53          	fmv.s.x	fs6,zero
     32c:	f0000bd3          	fmv.s.x	fs7,zero
     330:	f0000c53          	fmv.s.x	fs8,zero
     334:	f0000cd3          	fmv.s.x	fs9,zero
     338:	f0000d53          	fmv.s.x	fs10,zero
     33c:	f0000dd3          	fmv.s.x	fs11,zero
     340:	f0000e53          	fmv.s.x	ft8,zero
     344:	f0000ed3          	fmv.s.x	ft9,zero
     348:	f0000f53          	fmv.s.x	ft10,zero
     34c:	f0000fd3          	fmv.s.x	ft11,zero
     350:	00006197          	auipc	gp,0x6
     354:	a9018193          	addi	gp,gp,-1392 # 5de0 <_gp>
     358:	00007217          	auipc	tp,0x7
     35c:	6a720213          	addi	tp,tp,1703 # 79ff <_end+0x3f>
     360:	fc027213          	andi	tp,tp,-64
     364:	f1002573          	csrr	a0,mhartid
     368:	00100593          	li	a1,1
     36c:	00b57063          	bleu	a1,a0,36c <_start+0x16c>
     370:	01151613          	slli	a2,a0,0x11
     374:	00c20233          	add	tp,tp,a2
     378:	00150113          	addi	sp,a0,1
     37c:	01111113          	slli	sp,sp,0x11
     380:	00410133          	add	sp,sp,tp
     384:	00001297          	auipc	t0,0x1
     388:	d8028293          	addi	t0,t0,-640 # 1104 <_init>
     38c:	34129073          	csrw	mepc,t0
     390:	10000073          	eret

0000000000000394 <trap_entry>:
     394:	ef010113          	addi	sp,sp,-272
     398:	00113423          	sd	ra,8(sp)
     39c:	00213823          	sd	sp,16(sp)
     3a0:	00313c23          	sd	gp,24(sp)
     3a4:	02413023          	sd	tp,32(sp)
     3a8:	02513423          	sd	t0,40(sp)
     3ac:	02613823          	sd	t1,48(sp)
     3b0:	02713c23          	sd	t2,56(sp)
     3b4:	04813023          	sd	s0,64(sp)
     3b8:	04913423          	sd	s1,72(sp)
     3bc:	04a13823          	sd	a0,80(sp)
     3c0:	04b13c23          	sd	a1,88(sp)
     3c4:	06c13023          	sd	a2,96(sp)
     3c8:	06d13423          	sd	a3,104(sp)
     3cc:	06e13823          	sd	a4,112(sp)
     3d0:	06f13c23          	sd	a5,120(sp)
     3d4:	09013023          	sd	a6,128(sp)
     3d8:	09113423          	sd	a7,136(sp)
     3dc:	09213823          	sd	s2,144(sp)
     3e0:	09313c23          	sd	s3,152(sp)
     3e4:	0b413023          	sd	s4,160(sp)
     3e8:	0b513423          	sd	s5,168(sp)
     3ec:	0b613823          	sd	s6,176(sp)
     3f0:	0b713c23          	sd	s7,184(sp)
     3f4:	0d813023          	sd	s8,192(sp)
     3f8:	0d913423          	sd	s9,200(sp)
     3fc:	0da13823          	sd	s10,208(sp)
     400:	0db13c23          	sd	s11,216(sp)
     404:	0fc13023          	sd	t3,224(sp)
     408:	0fd13423          	sd	t4,232(sp)
     40c:	0fe13823          	sd	t5,240(sp)
     410:	0ff13c23          	sd	t6,248(sp)
     414:	34202573          	csrr	a0,mcause
     418:	341025f3          	csrr	a1,mepc
     41c:	00010613          	mv	a2,sp
     420:	025000ef          	jal	c44 <handle_trap>
     424:	34151073          	csrw	mepc,a0
     428:	00813083          	ld	ra,8(sp)
     42c:	01013103          	ld	sp,16(sp)
     430:	01813183          	ld	gp,24(sp)
     434:	02013203          	ld	tp,32(sp)
     438:	02813283          	ld	t0,40(sp)
     43c:	03013303          	ld	t1,48(sp)
     440:	03813383          	ld	t2,56(sp)
     444:	04013403          	ld	s0,64(sp)
     448:	04813483          	ld	s1,72(sp)
     44c:	05013503          	ld	a0,80(sp)
     450:	05813583          	ld	a1,88(sp)
     454:	06013603          	ld	a2,96(sp)
     458:	06813683          	ld	a3,104(sp)
     45c:	07013703          	ld	a4,112(sp)
     460:	07813783          	ld	a5,120(sp)
     464:	08013803          	ld	a6,128(sp)
     468:	08813883          	ld	a7,136(sp)
     46c:	09013903          	ld	s2,144(sp)
     470:	09813983          	ld	s3,152(sp)
     474:	0a013a03          	ld	s4,160(sp)
     478:	0a813a83          	ld	s5,168(sp)
     47c:	0b013b03          	ld	s6,176(sp)
     480:	0b813b83          	ld	s7,184(sp)
     484:	0c013c03          	ld	s8,192(sp)
     488:	0c813c83          	ld	s9,200(sp)
     48c:	0d013d03          	ld	s10,208(sp)
     490:	0d813d83          	ld	s11,216(sp)
     494:	0e013e03          	ld	t3,224(sp)
     498:	0e813e83          	ld	t4,232(sp)
     49c:	0f013f03          	ld	t5,240(sp)
     4a0:	0f813f83          	ld	t6,248(sp)
     4a4:	11010113          	addi	sp,sp,272
     4a8:	10000073          	eret

00000000000004ac <verify.constprop.2>:
     4ac:	000017b7          	lui	a5,0x1
     4b0:	5e078793          	addi	a5,a5,1504 # 15e0 <input_data>
     4b4:	00000713          	li	a4,0
     4b8:	0007a603          	lw	a2,0(a5)
     4bc:	00052683          	lw	a3,0(a0)
     4c0:	0047a803          	lw	a6,4(a5)
     4c4:	00452583          	lw	a1,4(a0)
     4c8:	02d61263          	bne	a2,a3,4ec <verify.constprop.2+0x40>
     4cc:	00878793          	addi	a5,a5,8
     4d0:	02b81263          	bne	a6,a1,4f4 <verify.constprop.2+0x48>
     4d4:	0027071b          	addiw	a4,a4,2
     4d8:	8007069b          	addiw	a3,a4,-2048
     4dc:	00850513          	addi	a0,a0,8
     4e0:	fc069ce3          	bnez	a3,4b8 <verify.constprop.2+0xc>
     4e4:	00000513          	li	a0,0
     4e8:	00008067          	ret
     4ec:	0017051b          	addiw	a0,a4,1
     4f0:	00008067          	ret
     4f4:	0027051b          	addiw	a0,a4,2
     4f8:	00008067          	ret

00000000000004fc <sort>:
     4fc:	00251f13          	slli	t5,a0,0x2
     500:	81010113          	addi	sp,sp,-2032
     504:	ff0f0793          	addi	a5,t5,-16
     508:	000016b7          	lui	a3,0x1
     50c:	7e813423          	sd	s0,2024(sp)
     510:	7e913023          	sd	s1,2016(sp)
     514:	7d213c23          	sd	s2,2008(sp)
     518:	7d313823          	sd	s3,2000(sp)
     51c:	7d413423          	sd	s4,1992(sp)
     520:	7d513023          	sd	s5,1984(sp)
     524:	7b613c23          	sd	s6,1976(sp)
     528:	7b713823          	sd	s7,1968(sp)
     52c:	7b813423          	sd	s8,1960(sp)
     530:	7b913023          	sd	s9,1952(sp)
     534:	79a13c23          	sd	s10,1944(sp)
     538:	79b13823          	sd	s11,1936(sp)
     53c:	fff7c793          	not	a5,a5
     540:	f9010113          	addi	sp,sp,-112
     544:	80068693          	addi	a3,a3,-2048 # 800 <putchar+0xc>
     548:	00010893          	mv	a7,sp
     54c:	00058493          	mv	s1,a1
     550:	ffcf0413          	addi	s0,t5,-4
     554:	ff4f0393          	addi	t2,t5,-12
     558:	00888e93          	addi	t4,a7,8
     55c:	01088293          	addi	t0,a7,16
     560:	00d886b3          	add	a3,a7,a3
     564:	00060513          	mv	a0,a2
     568:	00000813          	li	a6,0
     56c:	00100e13          	li	t3,1
     570:	fff00313          	li	t1,-1
     574:	ff07ff93          	andi	t6,a5,-16
     578:	02000913          	li	s2,32
     57c:	00088793          	mv	a5,a7
     580:	0007b023          	sd	zero,0(a5)
     584:	00878793          	addi	a5,a5,8
     588:	fed79ce3          	bne	a5,a3,580 <sort+0x84>
     58c:	007589b3          	add	s3,a1,t2
     590:	2335f063          	bleu	s3,a1,7b0 <sort+0x2b4>
     594:	00058613          	mv	a2,a1
     598:	00062a83          	lw	s5,0(a2)
     59c:	00462a03          	lw	s4,4(a2)
     5a0:	00862703          	lw	a4,8(a2)
     5a4:	010adabb          	srlw	s5,s5,a6
     5a8:	0ffafa93          	andi	s5,s5,255
     5ac:	00c62783          	lw	a5,12(a2)
     5b0:	003a9a93          	slli	s5,s5,0x3
     5b4:	01588ab3          	add	s5,a7,s5
     5b8:	07cab02f          	amoadd.d.sc	zero,t3,(s5)
     5bc:	010a5a3b          	srlw	s4,s4,a6
     5c0:	0ffa7a13          	andi	s4,s4,255
     5c4:	003a1a13          	slli	s4,s4,0x3
     5c8:	01488a33          	add	s4,a7,s4
     5cc:	07ca302f          	amoadd.d.sc	zero,t3,(s4)
     5d0:	0107573b          	srlw	a4,a4,a6
     5d4:	0ff77713          	andi	a4,a4,255
     5d8:	00371713          	slli	a4,a4,0x3
     5dc:	00e88733          	add	a4,a7,a4
     5e0:	07c7302f          	amoadd.d.sc	zero,t3,(a4)
     5e4:	0107d7bb          	srlw	a5,a5,a6
     5e8:	0ff7f793          	andi	a5,a5,255
     5ec:	00379793          	slli	a5,a5,0x3
     5f0:	00f887b3          	add	a5,a7,a5
     5f4:	07c7b02f          	amoadd.d.sc	zero,t3,(a5)
     5f8:	01060613          	addi	a2,a2,16
     5fc:	f9366ee3          	bltu	a2,s3,598 <sort+0x9c>
     600:	fff5c713          	not	a4,a1
     604:	01370733          	add	a4,a4,s3
     608:	ff077713          	andi	a4,a4,-16
     60c:	01070713          	addi	a4,a4,16
     610:	00e58733          	add	a4,a1,a4
     614:	01e589b3          	add	s3,a1,t5
     618:	03377663          	bleu	s3,a4,644 <sort+0x148>
     61c:	00072783          	lw	a5,0(a4)
     620:	00470713          	addi	a4,a4,4
     624:	0107d7bb          	srlw	a5,a5,a6
     628:	0ff7f793          	andi	a5,a5,255
     62c:	00379793          	slli	a5,a5,0x3
     630:	00f887b3          	add	a5,a7,a5
     634:	0007b603          	ld	a2,0(a5)
     638:	00160613          	addi	a2,a2,1
     63c:	00c7b023          	sd	a2,0(a5)
     640:	fd376ee3          	bltu	a4,s3,61c <sort+0x120>
     644:	0008b783          	ld	a5,0(a7)
     648:	06feb72f          	amoadd.d.sc	a4,a5,(t4)
     64c:	00e78733          	add	a4,a5,a4
     650:	00028793          	mv	a5,t0
     654:	06e7b62f          	amoadd.d.sc	a2,a4,(a5)
     658:	00e60733          	add	a4,a2,a4
     65c:	00878993          	addi	s3,a5,8
     660:	06e9b62f          	amoadd.d.sc	a2,a4,(s3)
     664:	01078793          	addi	a5,a5,16
     668:	00c70733          	add	a4,a4,a2
     66c:	fed794e3          	bne	a5,a3,654 <sort+0x158>
     670:	00858ab3          	add	s5,a1,s0
     674:	00c58d13          	addi	s10,a1,12
     678:	0baae263          	bltu	s5,s10,71c <sort+0x220>
     67c:	000a8713          	mv	a4,s5
     680:	00072c83          	lw	s9,0(a4)
     684:	ffc72c03          	lw	s8,-4(a4)
     688:	ff872b83          	lw	s7,-8(a4)
     68c:	010cd7bb          	srlw	a5,s9,a6
     690:	0ff7f793          	andi	a5,a5,255
     694:	ff472b03          	lw	s6,-12(a4)
     698:	00379793          	slli	a5,a5,0x3
     69c:	00f887b3          	add	a5,a7,a5
     6a0:	0667ba2f          	amoadd.d.sc	s4,t1,(a5)
     6a4:	010c57bb          	srlw	a5,s8,a6
     6a8:	0ff7f793          	andi	a5,a5,255
     6ac:	00379793          	slli	a5,a5,0x3
     6b0:	00f887b3          	add	a5,a7,a5
     6b4:	0667b9af          	amoadd.d.sc	s3,t1,(a5)
     6b8:	010bd7bb          	srlw	a5,s7,a6
     6bc:	0ff7f793          	andi	a5,a5,255
     6c0:	00379793          	slli	a5,a5,0x3
     6c4:	00f887b3          	add	a5,a7,a5
     6c8:	0667b62f          	amoadd.d.sc	a2,t1,(a5)
     6cc:	010b57bb          	srlw	a5,s6,a6
     6d0:	0ff7f793          	andi	a5,a5,255
     6d4:	00379793          	slli	a5,a5,0x3
     6d8:	00f887b3          	add	a5,a7,a5
     6dc:	0667bdaf          	amoadd.d.sc	s11,t1,(a5)
     6e0:	002a1a13          	slli	s4,s4,0x2
     6e4:	01450a33          	add	s4,a0,s4
     6e8:	00299993          	slli	s3,s3,0x2
     6ec:	ff9a2e23          	sw	s9,-4(s4)
     6f0:	013509b3          	add	s3,a0,s3
     6f4:	00261613          	slli	a2,a2,0x2
     6f8:	ff89ae23          	sw	s8,-4(s3)
     6fc:	00c50633          	add	a2,a0,a2
     700:	002d9793          	slli	a5,s11,0x2
     704:	ff762e23          	sw	s7,-4(a2)
     708:	00f507b3          	add	a5,a0,a5
     70c:	ff67ae23          	sw	s6,-4(a5)
     710:	ff070713          	addi	a4,a4,-16
     714:	f7a776e3          	bleu	s10,a4,680 <sort+0x184>
     718:	01fa8ab3          	add	s5,s5,t6
     71c:	02baec63          	bltu	s5,a1,754 <sort+0x258>
     720:	000aa983          	lw	s3,0(s5)
     724:	ffca8a93          	addi	s5,s5,-4
     728:	0109d7bb          	srlw	a5,s3,a6
     72c:	0ff7f793          	andi	a5,a5,255
     730:	00379793          	slli	a5,a5,0x3
     734:	00f887b3          	add	a5,a7,a5
     738:	0007b703          	ld	a4,0(a5)
     73c:	fff70713          	addi	a4,a4,-1
     740:	00271613          	slli	a2,a4,0x2
     744:	00e7b023          	sd	a4,0(a5)
     748:	00c507b3          	add	a5,a0,a2
     74c:	0137a023          	sw	s3,0(a5)
     750:	fcbaf8e3          	bleu	a1,s5,720 <sort+0x224>
     754:	0088081b          	addiw	a6,a6,8
     758:	01280a63          	beq	a6,s2,76c <sort+0x270>
     75c:	00058793          	mv	a5,a1
     760:	00050593          	mv	a1,a0
     764:	00078513          	mv	a0,a5
     768:	e15ff06f          	j	57c <sort+0x80>
     76c:	04a48663          	beq	s1,a0,7b8 <sort+0x2bc>
     770:	07010113          	addi	sp,sp,112
     774:	7e813403          	ld	s0,2024(sp)
     778:	7e013483          	ld	s1,2016(sp)
     77c:	7d813903          	ld	s2,2008(sp)
     780:	7d013983          	ld	s3,2000(sp)
     784:	7c813a03          	ld	s4,1992(sp)
     788:	7c013a83          	ld	s5,1984(sp)
     78c:	7b813b03          	ld	s6,1976(sp)
     790:	7b013b83          	ld	s7,1968(sp)
     794:	7a813c03          	ld	s8,1960(sp)
     798:	7a013c83          	ld	s9,1952(sp)
     79c:	79813d03          	ld	s10,1944(sp)
     7a0:	79013d83          	ld	s11,1936(sp)
     7a4:	000f0613          	mv	a2,t5
     7a8:	7f010113          	addi	sp,sp,2032
     7ac:	2650006f          	j	1210 <memcpy>
     7b0:	00058713          	mv	a4,a1
     7b4:	e61ff06f          	j	614 <sort+0x118>
     7b8:	07010113          	addi	sp,sp,112
     7bc:	7e813403          	ld	s0,2024(sp)
     7c0:	7e013483          	ld	s1,2016(sp)
     7c4:	7d813903          	ld	s2,2008(sp)
     7c8:	7d013983          	ld	s3,2000(sp)
     7cc:	7c813a03          	ld	s4,1992(sp)
     7d0:	7c013a83          	ld	s5,1984(sp)
     7d4:	7b813b03          	ld	s6,1976(sp)
     7d8:	7b013b83          	ld	s7,1968(sp)
     7dc:	7a813c03          	ld	s8,1960(sp)
     7e0:	7a013c83          	ld	s9,1952(sp)
     7e4:	79813d03          	ld	s10,1944(sp)
     7e8:	79013d83          	ld	s11,1936(sp)
     7ec:	7f010113          	addi	sp,sp,2032
     7f0:	00008067          	ret

00000000000007f4 <putchar>:
     7f4:	04022603          	lw	a2,64(tp) # 40 <buflen.2849>
     7f8:	00060813          	mv	a6,a2
     7fc:	00020793          	mv	a5,tp
     800:	010787b3          	add	a5,a5,a6
     804:	0016061b          	addiw	a2,a2,1
     808:	00a78023          	sb	a0,0(a5)
     80c:	04c22023          	sw	a2,64(tp) # 40 <buflen.2849>
     810:	00a00793          	li	a5,10
     814:	00f50a63          	beq	a0,a5,828 <putchar+0x34>
     818:	04000793          	li	a5,64
     81c:	00f60663          	beq	a2,a5,828 <putchar+0x34>
     820:	00000513          	li	a0,0
     824:	00008067          	ret
     828:	04000893          	li	a7,64
     82c:	00100513          	li	a0,1
     830:	00020593          	mv	a1,tp
     834:	00000073          	ecall
     838:	04022023          	sw	zero,64(tp) # 40 <buflen.2849>
     83c:	00000513          	li	a0,0
     840:	00008067          	ret

0000000000000844 <sprintf_putch.2963>:
     844:	0005b783          	ld	a5,0(a1)
     848:	00a78023          	sb	a0,0(a5)
     84c:	0005b783          	ld	a5,0(a1)
     850:	00178793          	addi	a5,a5,1
     854:	00f5b023          	sd	a5,0(a1)
     858:	00008067          	ret

000000000000085c <vprintfmt>:
     85c:	e8010113          	addi	sp,sp,-384
     860:	15413823          	sd	s4,336(sp)
     864:	16813823          	sd	s0,368(sp)
     868:	16913423          	sd	s1,360(sp)
     86c:	17213023          	sd	s2,352(sp)
     870:	15313c23          	sd	s3,344(sp)
     874:	15513423          	sd	s5,328(sp)
     878:	15613023          	sd	s6,320(sp)
     87c:	16113c23          	sd	ra,376(sp)
     880:	13713c23          	sd	s7,312(sp)
     884:	13813823          	sd	s8,304(sp)
     888:	13913423          	sd	s9,296(sp)
     88c:	13a13023          	sd	s10,288(sp)
     890:	11b13c23          	sd	s11,280(sp)
     894:	00050913          	mv	s2,a0
     898:	00058493          	mv	s1,a1
     89c:	00060413          	mv	s0,a2
     8a0:	00068a93          	mv	s5,a3
     8a4:	02500993          	li	s3,37
     8a8:	05500b13          	li	s6,85
     8ac:	80818a13          	addi	s4,gp,-2040 # 55e8 <verify_data+0x2008>
     8b0:	0140006f          	j	8c4 <vprintfmt+0x68>
     8b4:	04050c63          	beqz	a0,90c <vprintfmt+0xb0>
     8b8:	00140413          	addi	s0,s0,1
     8bc:	00048593          	mv	a1,s1
     8c0:	000900e7          	jalr	s2
     8c4:	00044503          	lbu	a0,0(s0)
     8c8:	ff3516e3          	bne	a0,s3,8b4 <vprintfmt+0x58>
     8cc:	00144503          	lbu	a0,1(s0)
     8d0:	00140b93          	addi	s7,s0,1
     8d4:	fff00d93          	li	s11,-1
     8d8:	000b8713          	mv	a4,s7
     8dc:	02000d13          	li	s10,32
     8e0:	000d8c13          	mv	s8,s11
     8e4:	00000613          	li	a2,0
     8e8:	fdd5079b          	addiw	a5,a0,-35
     8ec:	0ff7f593          	andi	a1,a5,255
     8f0:	00170413          	addi	s0,a4,1
     8f4:	2cbb6663          	bltu	s6,a1,bc0 <vprintfmt+0x364>
     8f8:	0ff7f793          	andi	a5,a5,255
     8fc:	00279793          	slli	a5,a5,0x2
     900:	014787b3          	add	a5,a5,s4
     904:	0007a783          	lw	a5,0(a5)
     908:	00078067          	jr	a5
     90c:	17813083          	ld	ra,376(sp)
     910:	17013403          	ld	s0,368(sp)
     914:	16813483          	ld	s1,360(sp)
     918:	16013903          	ld	s2,352(sp)
     91c:	15813983          	ld	s3,344(sp)
     920:	15013a03          	ld	s4,336(sp)
     924:	14813a83          	ld	s5,328(sp)
     928:	14013b03          	ld	s6,320(sp)
     92c:	13813b83          	ld	s7,312(sp)
     930:	13013c03          	ld	s8,304(sp)
     934:	12813c83          	ld	s9,296(sp)
     938:	12013d03          	ld	s10,288(sp)
     93c:	11813d83          	ld	s11,280(sp)
     940:	18010113          	addi	sp,sp,384
     944:	00008067          	ret
     948:	000c5463          	bgez	s8,950 <vprintfmt+0xf4>
     94c:	00000c13          	li	s8,0
     950:	00174503          	lbu	a0,1(a4)
     954:	00040713          	mv	a4,s0
     958:	f91ff06f          	j	8e8 <vprintfmt+0x8c>
     95c:	00800793          	li	a5,8
     960:	00100713          	li	a4,1
     964:	2ac75463          	ble	a2,a4,c0c <vprintfmt+0x3b0>
     968:	000abd83          	ld	s11,0(s5)
     96c:	008a8a93          	addi	s5,s5,8
     970:	02fdf533          	remu	a0,s11,a5
     974:	01410693          	addi	a3,sp,20
     978:	00100c93          	li	s9,1
     97c:	00a12823          	sw	a0,16(sp)
     980:	00fdf663          	bleu	a5,s11,98c <vprintfmt+0x130>
     984:	2980006f          	j	c1c <vprintfmt+0x3c0>
     988:	000b8c93          	mv	s9,s7
     98c:	02fdddb3          	divu	s11,s11,a5
     990:	00468693          	addi	a3,a3,4
     994:	001c8b9b          	addiw	s7,s9,1
     998:	02fdf5b3          	remu	a1,s11,a5
     99c:	feb6ae23          	sw	a1,-4(a3)
     9a0:	fefdf4e3          	bleu	a5,s11,988 <vprintfmt+0x12c>
     9a4:	01912423          	sw	s9,8(sp)
     9a8:	fffc0d9b          	addiw	s11,s8,-1
     9ac:	038bd263          	ble	s8,s7,9d0 <vprintfmt+0x174>
     9b0:	00048593          	mv	a1,s1
     9b4:	000d0513          	mv	a0,s10
     9b8:	fffd8d9b          	addiw	s11,s11,-1
     9bc:	000900e7          	jalr	s2
     9c0:	001d871b          	addiw	a4,s11,1
     9c4:	feebc6e3          	blt	s7,a4,9b0 <vprintfmt+0x154>
     9c8:	00812c83          	lw	s9,8(sp)
     9cc:	ef705ce3          	blez	s7,8c4 <vprintfmt+0x68>
     9d0:	002c9793          	slli	a5,s9,0x2
     9d4:	11010713          	addi	a4,sp,272
     9d8:	00f707b3          	add	a5,a4,a5
     9dc:	f007a503          	lw	a0,-256(a5)
     9e0:	00a53793          	sltiu	a5,a0,10
     9e4:	40f007bb          	negw	a5,a5
     9e8:	fd97f793          	andi	a5,a5,-39
     9ec:	0577879b          	addiw	a5,a5,87
     9f0:	00a7853b          	addw	a0,a5,a0
     9f4:	00048593          	mv	a1,s1
     9f8:	fffc8c9b          	addiw	s9,s9,-1
     9fc:	000900e7          	jalr	s2
     a00:	001c879b          	addiw	a5,s9,1
     a04:	fcf046e3          	bgtz	a5,9d0 <vprintfmt+0x174>
     a08:	ebdff06f          	j	8c4 <vprintfmt+0x68>
     a0c:	000aad83          	lw	s11,0(s5)
     a10:	00174503          	lbu	a0,1(a4)
     a14:	008a8a93          	addi	s5,s5,8
     a18:	00040713          	mv	a4,s0
     a1c:	ec0c56e3          	bgez	s8,8e8 <vprintfmt+0x8c>
     a20:	000d8c13          	mv	s8,s11
     a24:	fff00d93          	li	s11,-1
     a28:	ec1ff06f          	j	8e8 <vprintfmt+0x8c>
     a2c:	00174503          	lbu	a0,1(a4)
     a30:	02d00d13          	li	s10,45
     a34:	00040713          	mv	a4,s0
     a38:	eb1ff06f          	j	8e8 <vprintfmt+0x8c>
     a3c:	00174503          	lbu	a0,1(a4)
     a40:	03000d13          	li	s10,48
     a44:	00040713          	mv	a4,s0
     a48:	ea1ff06f          	j	8e8 <vprintfmt+0x8c>
     a4c:	00174783          	lbu	a5,1(a4)
     a50:	00900693          	li	a3,9
     a54:	fd050d9b          	addiw	s11,a0,-48
     a58:	fd07871b          	addiw	a4,a5,-48
     a5c:	00078593          	mv	a1,a5
     a60:	1ae6e063          	bltu	a3,a4,c00 <vprintfmt+0x3a4>
     a64:	00040713          	mv	a4,s0
     a68:	00170713          	addi	a4,a4,1
     a6c:	00074503          	lbu	a0,0(a4)
     a70:	001d979b          	slliw	a5,s11,0x1
     a74:	003d9d9b          	slliw	s11,s11,0x3
     a78:	01b78dbb          	addw	s11,a5,s11
     a7c:	00bd8dbb          	addw	s11,s11,a1
     a80:	fd05079b          	addiw	a5,a0,-48
     a84:	00900693          	li	a3,9
     a88:	fd0d8d9b          	addiw	s11,s11,-48
     a8c:	00050593          	mv	a1,a0
     a90:	fcf6fce3          	bleu	a5,a3,a68 <vprintfmt+0x20c>
     a94:	f89ff06f          	j	a1c <vprintfmt+0x1c0>
     a98:	000aa503          	lw	a0,0(s5)
     a9c:	00048593          	mv	a1,s1
     aa0:	008a8a93          	addi	s5,s5,8
     aa4:	000900e7          	jalr	s2
     aa8:	e1dff06f          	j	8c4 <vprintfmt+0x68>
     aac:	00100793          	li	a5,1
     ab0:	14c7d063          	ble	a2,a5,bf0 <vprintfmt+0x394>
     ab4:	000abd83          	ld	s11,0(s5)
     ab8:	008a8a93          	addi	s5,s5,8
     abc:	00a00793          	li	a5,10
     ac0:	ea0dd8e3          	bgez	s11,970 <vprintfmt+0x114>
     ac4:	00048593          	mv	a1,s1
     ac8:	02d00513          	li	a0,45
     acc:	00f13423          	sd	a5,8(sp)
     ad0:	000900e7          	jalr	s2
     ad4:	41b00db3          	neg	s11,s11
     ad8:	00813783          	ld	a5,8(sp)
     adc:	e95ff06f          	j	970 <vprintfmt+0x114>
     ae0:	00174503          	lbu	a0,1(a4)
     ae4:	0016061b          	addiw	a2,a2,1
     ae8:	00040713          	mv	a4,s0
     aec:	dfdff06f          	j	8e8 <vprintfmt+0x8c>
     af0:	000abb83          	ld	s7,0(s5)
     af4:	008a8a93          	addi	s5,s5,8
     af8:	0e0b8663          	beqz	s7,be4 <vprintfmt+0x388>
     afc:	05805463          	blez	s8,b44 <vprintfmt+0x2e8>
     b00:	02d00713          	li	a4,45
     b04:	0ced0863          	beq	s10,a4,bd4 <vprintfmt+0x378>
     b08:	000d8593          	mv	a1,s11
     b0c:	000b8513          	mv	a0,s7
     b10:	1cd000ef          	jal	14dc <strnlen>
     b14:	40ac0c3b          	subw	s8,s8,a0
     b18:	03805663          	blez	s8,b44 <vprintfmt+0x2e8>
     b1c:	000c0c93          	mv	s9,s8
     b20:	fffc8c9b          	addiw	s9,s9,-1
     b24:	00048593          	mv	a1,s1
     b28:	000d0513          	mv	a0,s10
     b2c:	000900e7          	jalr	s2
     b30:	fe0c98e3          	bnez	s9,b20 <vprintfmt+0x2c4>
     b34:	00100793          	li	a5,1
     b38:	fffc071b          	addiw	a4,s8,-1
     b3c:	4187883b          	subw	a6,a5,s8
     b40:	00e80c3b          	addw	s8,a6,a4
     b44:	000bc503          	lbu	a0,0(s7)
     b48:	d6050ee3          	beqz	a0,8c4 <vprintfmt+0x68>
     b4c:	fff00d13          	li	s10,-1
     b50:	000dc663          	bltz	s11,b5c <vprintfmt+0x300>
     b54:	fffd8d9b          	addiw	s11,s11,-1
     b58:	01ad8e63          	beq	s11,s10,b74 <vprintfmt+0x318>
     b5c:	00048593          	mv	a1,s1
     b60:	001b8b93          	addi	s7,s7,1
     b64:	000900e7          	jalr	s2
     b68:	000bc503          	lbu	a0,0(s7)
     b6c:	fffc0c1b          	addiw	s8,s8,-1
     b70:	fe0510e3          	bnez	a0,b50 <vprintfmt+0x2f4>
     b74:	d58058e3          	blez	s8,8c4 <vprintfmt+0x68>
     b78:	fffc0c1b          	addiw	s8,s8,-1
     b7c:	00048593          	mv	a1,s1
     b80:	02000513          	li	a0,32
     b84:	000900e7          	jalr	s2
     b88:	fe0c18e3          	bnez	s8,b78 <vprintfmt+0x31c>
     b8c:	d39ff06f          	j	8c4 <vprintfmt+0x68>
     b90:	00a00793          	li	a5,10
     b94:	dcdff06f          	j	960 <vprintfmt+0x104>
     b98:	01000793          	li	a5,16
     b9c:	dc5ff06f          	j	960 <vprintfmt+0x104>
     ba0:	03000513          	li	a0,48
     ba4:	00048593          	mv	a1,s1
     ba8:	000900e7          	jalr	s2
     bac:	00048593          	mv	a1,s1
     bb0:	07800513          	li	a0,120
     bb4:	000900e7          	jalr	s2
     bb8:	01000793          	li	a5,16
     bbc:	dadff06f          	j	968 <vprintfmt+0x10c>
     bc0:	00048593          	mv	a1,s1
     bc4:	02500513          	li	a0,37
     bc8:	000900e7          	jalr	s2
     bcc:	000b8413          	mv	s0,s7
     bd0:	cf5ff06f          	j	8c4 <vprintfmt+0x68>
     bd4:	000bc503          	lbu	a0,0(s7)
     bd8:	fa0500e3          	beqz	a0,b78 <vprintfmt+0x31c>
     bdc:	fff00d13          	li	s10,-1
     be0:	f71ff06f          	j	b50 <vprintfmt+0x2f4>
     be4:	000057b7          	lui	a5,0x5
     be8:	74078b93          	addi	s7,a5,1856 # 5740 <verify_data+0x2160>
     bec:	f11ff06f          	j	afc <vprintfmt+0x2a0>
     bf0:	ec0612e3          	bnez	a2,ab4 <vprintfmt+0x258>
     bf4:	000aad83          	lw	s11,0(s5)
     bf8:	008a8a93          	addi	s5,s5,8
     bfc:	ec1ff06f          	j	abc <vprintfmt+0x260>
     c00:	00078513          	mv	a0,a5
     c04:	00040713          	mv	a4,s0
     c08:	e15ff06f          	j	a1c <vprintfmt+0x1c0>
     c0c:	d4061ee3          	bnez	a2,968 <vprintfmt+0x10c>
     c10:	000aed83          	lwu	s11,0(s5)
     c14:	008a8a93          	addi	s5,s5,8
     c18:	d59ff06f          	j	970 <vprintfmt+0x114>
     c1c:	00012423          	sw	zero,8(sp)
     c20:	00100b93          	li	s7,1
     c24:	fffc0d9b          	addiw	s11,s8,-1
     c28:	00000c93          	li	s9,0
     c2c:	d98bc2e3          	blt	s7,s8,9b0 <vprintfmt+0x154>
     c30:	db1ff06f          	j	9e0 <vprintfmt+0x184>

0000000000000c34 <tohost_exit>:
     c34:	00151513          	slli	a0,a0,0x1
     c38:	00156793          	ori	a5,a0,1
     c3c:	78079073          	csrw	mtohost,a5
     c40:	0000006f          	j	c40 <tohost_exit+0xc>

0000000000000c44 <handle_trap>:
     c44:	ff010113          	addi	sp,sp,-16
     c48:	00813023          	sd	s0,0(sp)
     c4c:	00113423          	sd	ra,8(sp)
     c50:	00200693          	li	a3,2
     c54:	01010413          	addi	s0,sp,16
     c58:	0080076f          	jal	a4,c60 <handle_trap+0x1c>
     c5c:	0c002573          	csrr	a0,stats
     c60:	f8010113          	addi	sp,sp,-128
     c64:	08d50463          	beq	a0,a3,cec <handle_trap+0xa8>
     c68:	00800713          	li	a4,8
     c6c:	00e50a63          	beq	a0,a4,c80 <handle_trap+0x3c>
     c70:	000017b7          	lui	a5,0x1
     c74:	a7378793          	addi	a5,a5,-1421 # a73 <vprintfmt+0x217>
     c78:	78079073          	csrw	mtohost,a5
     c7c:	0000006f          	j	c7c <handle_trap+0x38>
     c80:	08863703          	ld	a4,136(a2)
     c84:	05d00693          	li	a3,93
     c88:	2cd70e63          	beq	a4,a3,f64 <handle_trap+0x320>
     c8c:	4d200693          	li	a3,1234
     c90:	06d70a63          	beq	a4,a3,d04 <handle_trap+0xc0>
     c94:	05063503          	ld	a0,80(a2)
     c98:	03f10793          	addi	a5,sp,63
     c9c:	fc07f793          	andi	a5,a5,-64
     ca0:	05863683          	ld	a3,88(a2)
     ca4:	00e7b023          	sd	a4,0(a5)
     ca8:	06063703          	ld	a4,96(a2)
     cac:	00a7b423          	sd	a0,8(a5)
     cb0:	00d7b823          	sd	a3,16(a5)
     cb4:	00e7bc23          	sd	a4,24(a5)
     cb8:	0330000f          	fence	rw,rw
     cbc:	78079073          	csrw	mtohost,a5
     cc0:	00000713          	li	a4,0
     cc4:	781716f3          	csrrw	a3,mfromhost,a4
     cc8:	fe068ee3          	beqz	a3,cc4 <handle_trap+0x80>
     ccc:	0007b783          	ld	a5,0(a5)
     cd0:	ff040113          	addi	sp,s0,-16
     cd4:	00813083          	ld	ra,8(sp)
     cd8:	00458513          	addi	a0,a1,4
     cdc:	00013403          	ld	s0,0(sp)
     ce0:	04f63823          	sd	a5,80(a2)
     ce4:	01010113          	addi	sp,sp,16
     ce8:	00008067          	ret
     cec:	00072703          	lw	a4,0(a4)
     cf0:	0005a783          	lw	a5,0(a1)
     cf4:	00f777b3          	and	a5,a4,a5
     cf8:	f6f71ce3          	bne	a4,a5,c70 <handle_trap+0x2c>
     cfc:	00000793          	li	a5,0
     d00:	fd1ff06f          	j	cd0 <handle_trap+0x8c>
     d04:	05062703          	lw	a4,80(a2)
     d08:	00070463          	beqz	a4,d10 <handle_trap+0xcc>
     d0c:	0c00e573          	csrrs	a0,stats,1
     d10:	c0002573          	rdcycle	a0
     d14:	000087b7          	lui	a5,0x8
     d18:	86878793          	addi	a5,a5,-1944 # 7868 <counters>
     d1c:	00071c63          	bnez	a4,d34 <handle_trap+0xf0>
     d20:	0007b683          	ld	a3,0(a5)
     d24:	40d50533          	sub	a0,a0,a3
     d28:	000056b7          	lui	a3,0x5
     d2c:	74868693          	addi	a3,a3,1864 # 5748 <verify_data+0x2168>
     d30:	08d7b823          	sd	a3,144(a5)
     d34:	00a7b023          	sd	a0,0(a5)
     d38:	c0202573          	rdinstret	a0
     d3c:	00071c63          	bnez	a4,d54 <handle_trap+0x110>
     d40:	0087b683          	ld	a3,8(a5)
     d44:	40d50533          	sub	a0,a0,a3
     d48:	000056b7          	lui	a3,0x5
     d4c:	75068693          	addi	a3,a3,1872 # 5750 <verify_data+0x2170>
     d50:	08d7bc23          	sd	a3,152(a5)
     d54:	00a7b423          	sd	a0,8(a5)
     d58:	cc002573          	csrr	a0,uarch0
     d5c:	00071c63          	bnez	a4,d74 <handle_trap+0x130>
     d60:	0107b683          	ld	a3,16(a5)
     d64:	40d50533          	sub	a0,a0,a3
     d68:	000056b7          	lui	a3,0x5
     d6c:	75868693          	addi	a3,a3,1880 # 5758 <verify_data+0x2178>
     d70:	0ad7b023          	sd	a3,160(a5)
     d74:	00a7b823          	sd	a0,16(a5)
     d78:	cc102573          	csrr	a0,uarch1
     d7c:	00071c63          	bnez	a4,d94 <handle_trap+0x150>
     d80:	0187b683          	ld	a3,24(a5)
     d84:	40d50533          	sub	a0,a0,a3
     d88:	000056b7          	lui	a3,0x5
     d8c:	76068693          	addi	a3,a3,1888 # 5760 <verify_data+0x2180>
     d90:	0ad7b423          	sd	a3,168(a5)
     d94:	00a7bc23          	sd	a0,24(a5)
     d98:	cc202573          	csrr	a0,uarch2
     d9c:	00071c63          	bnez	a4,db4 <handle_trap+0x170>
     da0:	0207b683          	ld	a3,32(a5)
     da4:	40d50533          	sub	a0,a0,a3
     da8:	000056b7          	lui	a3,0x5
     dac:	76868693          	addi	a3,a3,1896 # 5768 <verify_data+0x2188>
     db0:	0ad7b823          	sd	a3,176(a5)
     db4:	02a7b023          	sd	a0,32(a5)
     db8:	cc302573          	csrr	a0,uarch3
     dbc:	00071c63          	bnez	a4,dd4 <handle_trap+0x190>
     dc0:	0287b683          	ld	a3,40(a5)
     dc4:	40d50533          	sub	a0,a0,a3
     dc8:	000056b7          	lui	a3,0x5
     dcc:	77068693          	addi	a3,a3,1904 # 5770 <verify_data+0x2190>
     dd0:	0ad7bc23          	sd	a3,184(a5)
     dd4:	02a7b423          	sd	a0,40(a5)
     dd8:	cc402573          	csrr	a0,uarch4
     ddc:	00071c63          	bnez	a4,df4 <handle_trap+0x1b0>
     de0:	0307b683          	ld	a3,48(a5)
     de4:	40d50533          	sub	a0,a0,a3
     de8:	000056b7          	lui	a3,0x5
     dec:	77868693          	addi	a3,a3,1912 # 5778 <verify_data+0x2198>
     df0:	0cd7b023          	sd	a3,192(a5)
     df4:	02a7b823          	sd	a0,48(a5)
     df8:	cc502573          	csrr	a0,uarch5
     dfc:	00071c63          	bnez	a4,e14 <handle_trap+0x1d0>
     e00:	0387b683          	ld	a3,56(a5)
     e04:	40d50533          	sub	a0,a0,a3
     e08:	000056b7          	lui	a3,0x5
     e0c:	78068693          	addi	a3,a3,1920 # 5780 <verify_data+0x21a0>
     e10:	0cd7b423          	sd	a3,200(a5)
     e14:	02a7bc23          	sd	a0,56(a5)
     e18:	cc602573          	csrr	a0,uarch6
     e1c:	00071c63          	bnez	a4,e34 <handle_trap+0x1f0>
     e20:	0407b683          	ld	a3,64(a5)
     e24:	40d50533          	sub	a0,a0,a3
     e28:	000056b7          	lui	a3,0x5
     e2c:	78868693          	addi	a3,a3,1928 # 5788 <verify_data+0x21a8>
     e30:	0cd7b823          	sd	a3,208(a5)
     e34:	04a7b023          	sd	a0,64(a5)
     e38:	cc702573          	csrr	a0,uarch7
     e3c:	00071c63          	bnez	a4,e54 <handle_trap+0x210>
     e40:	0487b683          	ld	a3,72(a5)
     e44:	40d50533          	sub	a0,a0,a3
     e48:	000056b7          	lui	a3,0x5
     e4c:	79068693          	addi	a3,a3,1936 # 5790 <verify_data+0x21b0>
     e50:	0cd7bc23          	sd	a3,216(a5)
     e54:	04a7b423          	sd	a0,72(a5)
     e58:	cc802573          	csrr	a0,uarch8
     e5c:	00071c63          	bnez	a4,e74 <handle_trap+0x230>
     e60:	0507b683          	ld	a3,80(a5)
     e64:	40d50533          	sub	a0,a0,a3
     e68:	000056b7          	lui	a3,0x5
     e6c:	79868693          	addi	a3,a3,1944 # 5798 <verify_data+0x21b8>
     e70:	0ed7b023          	sd	a3,224(a5)
     e74:	04a7b823          	sd	a0,80(a5)
     e78:	cc902573          	csrr	a0,uarch9
     e7c:	00071c63          	bnez	a4,e94 <handle_trap+0x250>
     e80:	0587b683          	ld	a3,88(a5)
     e84:	40d50533          	sub	a0,a0,a3
     e88:	000056b7          	lui	a3,0x5
     e8c:	7a068693          	addi	a3,a3,1952 # 57a0 <verify_data+0x21c0>
     e90:	0ed7b423          	sd	a3,232(a5)
     e94:	04a7bc23          	sd	a0,88(a5)
     e98:	cca02573          	csrr	a0,uarch10
     e9c:	00071c63          	bnez	a4,eb4 <handle_trap+0x270>
     ea0:	0607b683          	ld	a3,96(a5)
     ea4:	40d50533          	sub	a0,a0,a3
     ea8:	000056b7          	lui	a3,0x5
     eac:	7a868693          	addi	a3,a3,1960 # 57a8 <verify_data+0x21c8>
     eb0:	0ed7b823          	sd	a3,240(a5)
     eb4:	06a7b023          	sd	a0,96(a5)
     eb8:	ccb02573          	csrr	a0,uarch11
     ebc:	00071c63          	bnez	a4,ed4 <handle_trap+0x290>
     ec0:	0687b683          	ld	a3,104(a5)
     ec4:	40d50533          	sub	a0,a0,a3
     ec8:	000056b7          	lui	a3,0x5
     ecc:	7b068693          	addi	a3,a3,1968 # 57b0 <verify_data+0x21d0>
     ed0:	0ed7bc23          	sd	a3,248(a5)
     ed4:	06a7b423          	sd	a0,104(a5)
     ed8:	ccc02573          	csrr	a0,uarch12
     edc:	00071c63          	bnez	a4,ef4 <handle_trap+0x2b0>
     ee0:	0707b683          	ld	a3,112(a5)
     ee4:	40d50533          	sub	a0,a0,a3
     ee8:	000056b7          	lui	a3,0x5
     eec:	7b868693          	addi	a3,a3,1976 # 57b8 <verify_data+0x21d8>
     ef0:	10d7b023          	sd	a3,256(a5)
     ef4:	06a7b823          	sd	a0,112(a5)
     ef8:	ccd02573          	csrr	a0,uarch13
     efc:	00071c63          	bnez	a4,f14 <handle_trap+0x2d0>
     f00:	0787b683          	ld	a3,120(a5)
     f04:	40d50533          	sub	a0,a0,a3
     f08:	000056b7          	lui	a3,0x5
     f0c:	7c068693          	addi	a3,a3,1984 # 57c0 <verify_data+0x21e0>
     f10:	10d7b423          	sd	a3,264(a5)
     f14:	06a7bc23          	sd	a0,120(a5)
     f18:	cce02573          	csrr	a0,uarch14
     f1c:	00071c63          	bnez	a4,f34 <handle_trap+0x2f0>
     f20:	0807b683          	ld	a3,128(a5)
     f24:	40d50533          	sub	a0,a0,a3
     f28:	000056b7          	lui	a3,0x5
     f2c:	7c868693          	addi	a3,a3,1992 # 57c8 <verify_data+0x21e8>
     f30:	10d7b823          	sd	a3,272(a5)
     f34:	08a7b023          	sd	a0,128(a5)
     f38:	ccf02573          	csrr	a0,uarch15
     f3c:	02071863          	bnez	a4,f6c <handle_trap+0x328>
     f40:	0887b703          	ld	a4,136(a5)
     f44:	40e50533          	sub	a0,a0,a4
     f48:	00005737          	lui	a4,0x5
     f4c:	7d070713          	addi	a4,a4,2000 # 57d0 <verify_data+0x21f0>
     f50:	10e7bc23          	sd	a4,280(a5)
     f54:	08a7b423          	sd	a0,136(a5)
     f58:	0c00f573          	csrrc	a0,stats,1
     f5c:	00000793          	li	a5,0
     f60:	d71ff06f          	j	cd0 <handle_trap+0x8c>
     f64:	05063503          	ld	a0,80(a2)
     f68:	ccdff0ef          	jal	c34 <tohost_exit>
     f6c:	08a7b423          	sd	a0,136(a5)
     f70:	d8dff06f          	j	cfc <handle_trap+0xb8>

0000000000000f74 <exit>:
     f74:	05d00893          	li	a7,93
     f78:	00000593          	li	a1,0
     f7c:	00000613          	li	a2,0
     f80:	00000073          	ecall
     f84:	0000006f          	j	f84 <exit+0x10>

0000000000000f88 <setStats>:
     f88:	4d200893          	li	a7,1234
     f8c:	00000593          	li	a1,0
     f90:	00000613          	li	a2,0
     f94:	00000073          	ecall
     f98:	00008067          	ret

0000000000000f9c <printstr>:
     f9c:	ff010113          	addi	sp,sp,-16
     fa0:	00813023          	sd	s0,0(sp)
     fa4:	00113423          	sd	ra,8(sp)
     fa8:	00050413          	mv	s0,a0
     fac:	460000ef          	jal	140c <strlen>
     fb0:	00050613          	mv	a2,a0
     fb4:	04000893          	li	a7,64
     fb8:	00100513          	li	a0,1
     fbc:	00040593          	mv	a1,s0
     fc0:	00000073          	ecall
     fc4:	00813083          	ld	ra,8(sp)
     fc8:	00013403          	ld	s0,0(sp)
     fcc:	01010113          	addi	sp,sp,16
     fd0:	00008067          	ret

0000000000000fd4 <thread_entry>:
     fd4:	00050463          	beqz	a0,fdc <thread_entry+0x8>
     fd8:	0000006f          	j	fd8 <thread_entry+0x4>
     fdc:	00008067          	ret

0000000000000fe0 <printhex>:
     fe0:	fd010113          	addi	sp,sp,-48
     fe4:	02113423          	sd	ra,40(sp)
     fe8:	01710713          	addi	a4,sp,23
     fec:	00710613          	addi	a2,sp,7
     ff0:	00f57793          	andi	a5,a0,15
     ff4:	00a7b793          	sltiu	a5,a5,10
     ff8:	40f007b3          	neg	a5,a5
     ffc:	fd97f793          	andi	a5,a5,-39
    1000:	00f57693          	andi	a3,a0,15
    1004:	05778793          	addi	a5,a5,87
    1008:	00d787bb          	addw	a5,a5,a3
    100c:	00f70023          	sb	a5,0(a4)
    1010:	fff70713          	addi	a4,a4,-1
    1014:	00455513          	srli	a0,a0,0x4
    1018:	fcc71ce3          	bne	a4,a2,ff0 <printhex+0x10>
    101c:	00810513          	addi	a0,sp,8
    1020:	00010c23          	sb	zero,24(sp)
    1024:	3e8000ef          	jal	140c <strlen>
    1028:	00050613          	mv	a2,a0
    102c:	04000893          	li	a7,64
    1030:	00100513          	li	a0,1
    1034:	00810593          	addi	a1,sp,8
    1038:	00000073          	ecall
    103c:	02813083          	ld	ra,40(sp)
    1040:	03010113          	addi	sp,sp,48
    1044:	00008067          	ret

0000000000001048 <printf>:
    1048:	fa010113          	addi	sp,sp,-96
    104c:	02810313          	addi	t1,sp,40
    1050:	02c13823          	sd	a2,48(sp)
    1054:	00050613          	mv	a2,a0
    1058:	02b13423          	sd	a1,40(sp)
    105c:	02d13c23          	sd	a3,56(sp)
    1060:	7f400513          	li	a0,2036
    1064:	00030693          	mv	a3,t1
    1068:	00000593          	li	a1,0
    106c:	00113c23          	sd	ra,24(sp)
    1070:	04e13023          	sd	a4,64(sp)
    1074:	04f13423          	sd	a5,72(sp)
    1078:	05013823          	sd	a6,80(sp)
    107c:	05113c23          	sd	a7,88(sp)
    1080:	00613423          	sd	t1,8(sp)
    1084:	fd8ff0ef          	jal	85c <vprintfmt>
    1088:	01813083          	ld	ra,24(sp)
    108c:	00000513          	li	a0,0
    1090:	06010113          	addi	sp,sp,96
    1094:	00008067          	ret

0000000000001098 <sprintf>:
    1098:	fa010113          	addi	sp,sp,-96
    109c:	03010313          	addi	t1,sp,48
    10a0:	02813023          	sd	s0,32(sp)
    10a4:	00a13423          	sd	a0,8(sp)
    10a8:	00050413          	mv	s0,a0
    10ac:	00001537          	lui	a0,0x1
    10b0:	02c13823          	sd	a2,48(sp)
    10b4:	02d13c23          	sd	a3,56(sp)
    10b8:	00058613          	mv	a2,a1
    10bc:	84450513          	addi	a0,a0,-1980 # 844 <sprintf_putch.2963>
    10c0:	00810593          	addi	a1,sp,8
    10c4:	00030693          	mv	a3,t1
    10c8:	02113423          	sd	ra,40(sp)
    10cc:	04f13423          	sd	a5,72(sp)
    10d0:	04e13023          	sd	a4,64(sp)
    10d4:	05013823          	sd	a6,80(sp)
    10d8:	05113c23          	sd	a7,88(sp)
    10dc:	00613c23          	sd	t1,24(sp)
    10e0:	f7cff0ef          	jal	85c <vprintfmt>
    10e4:	00813783          	ld	a5,8(sp)
    10e8:	00078023          	sb	zero,0(a5)
    10ec:	00813503          	ld	a0,8(sp)
    10f0:	02813083          	ld	ra,40(sp)
    10f4:	4085053b          	subw	a0,a0,s0
    10f8:	02013403          	ld	s0,32(sp)
    10fc:	06010113          	addi	sp,sp,96
    1100:	00008067          	ret

0000000000001104 <_init>:
    1104:	fb010113          	addi	sp,sp,-80
    1108:	02913c23          	sd	s1,56(sp)
    110c:	03213823          	sd	s2,48(sp)
    1110:	00020913          	mv	s2,tp
    1114:	00020493          	mv	s1,tp
    1118:	409904b3          	sub	s1,s2,s1
    111c:	03413023          	sd	s4,32(sp)
    1120:	00058a13          	mv	s4,a1
    1124:	000085b7          	lui	a1,0x8
    1128:	04113423          	sd	ra,72(sp)
    112c:	04813023          	sd	s0,64(sp)
    1130:	03313423          	sd	s3,40(sp)
    1134:	05010413          	addi	s0,sp,80
    1138:	01513c23          	sd	s5,24(sp)
    113c:	01613823          	sd	s6,16(sp)
    1140:	01713423          	sd	s7,8(sp)
    1144:	00050993          	mv	s3,a0
    1148:	d8010113          	addi	sp,sp,-640
    114c:	00020513          	mv	a0,tp
    1150:	00048613          	mv	a2,s1
    1154:	9c058593          	addi	a1,a1,-1600 # 79c0 <_end>
    1158:	00020b13          	mv	s6,tp
    115c:	0b4000ef          	jal	1210 <memcpy>
    1160:	04420613          	addi	a2,tp,68 # 44 <_tbss_end>
    1164:	41260633          	sub	a2,a2,s2
    1168:	009b0533          	add	a0,s6,s1
    116c:	00000593          	li	a1,0
    1170:	1c0000ef          	jal	1330 <memset>
    1174:	000a0593          	mv	a1,s4
    1178:	00098513          	mv	a0,s3
    117c:	e59ff0ef          	jal	fd4 <thread_entry>
    1180:	000084b7          	lui	s1,0x8
    1184:	03f10a93          	addi	s5,sp,63
    1188:	00000593          	li	a1,0
    118c:	00000513          	li	a0,0
    1190:	86848493          	addi	s1,s1,-1944 # 7868 <counters>
    1194:	fc0afa93          	andi	s5,s5,-64
    1198:	388000ef          	jal	1520 <main>
    119c:	09048913          	addi	s2,s1,144
    11a0:	00050b93          	mv	s7,a0
    11a4:	00090993          	mv	s3,s2
    11a8:	000a8a13          	mv	s4,s5
    11ac:	00005b37          	lui	s6,0x5
    11b0:	0100006f          	j	11c0 <_init+0xbc>
    11b4:	00848493          	addi	s1,s1,8
    11b8:	00890913          	addi	s2,s2,8
    11bc:	03348663          	beq	s1,s3,11e8 <_init+0xe4>
    11c0:	0004b683          	ld	a3,0(s1)
    11c4:	fe0688e3          	beqz	a3,11b4 <_init+0xb0>
    11c8:	00093603          	ld	a2,0(s2)
    11cc:	000a0513          	mv	a0,s4
    11d0:	7f0b0593          	addi	a1,s6,2032 # 57f0 <verify_data+0x2210>
    11d4:	ec5ff0ef          	jal	1098 <sprintf>
    11d8:	00848493          	addi	s1,s1,8
    11dc:	00aa0a33          	add	s4,s4,a0
    11e0:	00890913          	addi	s2,s2,8
    11e4:	fd349ee3          	bne	s1,s3,11c0 <_init+0xbc>
    11e8:	034a8063          	beq	s5,s4,1208 <_init+0x104>
    11ec:	000a8513          	mv	a0,s5
    11f0:	21c000ef          	jal	140c <strlen>
    11f4:	00050613          	mv	a2,a0
    11f8:	04000893          	li	a7,64
    11fc:	00100513          	li	a0,1
    1200:	000a8593          	mv	a1,s5
    1204:	00000073          	ecall
    1208:	000b8513          	mv	a0,s7
    120c:	d69ff0ef          	jal	f74 <exit>

0000000000001210 <memcpy>:
    1210:	00a5c7b3          	xor	a5,a1,a0
    1214:	0077f793          	andi	a5,a5,7
    1218:	00c508b3          	add	a7,a0,a2
    121c:	0e079263          	bnez	a5,1300 <memcpy+0xf0>
    1220:	00700793          	li	a5,7
    1224:	0ec7fe63          	bleu	a2,a5,1320 <memcpy+0x110>
    1228:	00757793          	andi	a5,a0,7
    122c:	04079a63          	bnez	a5,1280 <memcpy+0x70>
    1230:	ff88f813          	andi	a6,a7,-8
    1234:	fc080793          	addi	a5,a6,-64
    1238:	00050713          	mv	a4,a0
    123c:	06f56663          	bltu	a0,a5,12a8 <memcpy+0x98>
    1240:	00058693          	mv	a3,a1
    1244:	00070793          	mv	a5,a4
    1248:	03077863          	bleu	a6,a4,1278 <memcpy+0x68>
    124c:	0006b603          	ld	a2,0(a3)
    1250:	00878793          	addi	a5,a5,8
    1254:	00868693          	addi	a3,a3,8
    1258:	fec7bc23          	sd	a2,-8(a5)
    125c:	ff07e8e3          	bltu	a5,a6,124c <memcpy+0x3c>
    1260:	fff74793          	not	a5,a4
    1264:	01078833          	add	a6,a5,a6
    1268:	ff887813          	andi	a6,a6,-8
    126c:	00880813          	addi	a6,a6,8
    1270:	01070733          	add	a4,a4,a6
    1274:	010585b3          	add	a1,a1,a6
    1278:	09176863          	bltu	a4,a7,1308 <memcpy+0xf8>
    127c:	00008067          	ret
    1280:	00050713          	mv	a4,a0
    1284:	0005c683          	lbu	a3,0(a1)
    1288:	00170713          	addi	a4,a4,1
    128c:	00777793          	andi	a5,a4,7
    1290:	fed70fa3          	sb	a3,-1(a4)
    1294:	00158593          	addi	a1,a1,1
    1298:	fe0796e3          	bnez	a5,1284 <memcpy+0x74>
    129c:	ff88f813          	andi	a6,a7,-8
    12a0:	fc080793          	addi	a5,a6,-64
    12a4:	f8f77ee3          	bleu	a5,a4,1240 <memcpy+0x30>
    12a8:	0005b383          	ld	t2,0(a1)
    12ac:	0085b283          	ld	t0,8(a1)
    12b0:	0105bf83          	ld	t6,16(a1)
    12b4:	0185bf03          	ld	t5,24(a1)
    12b8:	0205be83          	ld	t4,32(a1)
    12bc:	0285be03          	ld	t3,40(a1)
    12c0:	0305b303          	ld	t1,48(a1)
    12c4:	0385b603          	ld	a2,56(a1)
    12c8:	04858593          	addi	a1,a1,72
    12cc:	04870713          	addi	a4,a4,72
    12d0:	ff85b683          	ld	a3,-8(a1)
    12d4:	fa773c23          	sd	t2,-72(a4)
    12d8:	fc573023          	sd	t0,-64(a4)
    12dc:	fdf73423          	sd	t6,-56(a4)
    12e0:	fde73823          	sd	t5,-48(a4)
    12e4:	fdd73c23          	sd	t4,-40(a4)
    12e8:	ffc73023          	sd	t3,-32(a4)
    12ec:	fe673423          	sd	t1,-24(a4)
    12f0:	fec73823          	sd	a2,-16(a4)
    12f4:	fed73c23          	sd	a3,-8(a4)
    12f8:	faf768e3          	bltu	a4,a5,12a8 <memcpy+0x98>
    12fc:	f45ff06f          	j	1240 <memcpy+0x30>
    1300:	00050713          	mv	a4,a0
    1304:	03157463          	bleu	a7,a0,132c <memcpy+0x11c>
    1308:	0005c783          	lbu	a5,0(a1)
    130c:	00170713          	addi	a4,a4,1
    1310:	00158593          	addi	a1,a1,1
    1314:	fef70fa3          	sb	a5,-1(a4)
    1318:	ff1768e3          	bltu	a4,a7,1308 <memcpy+0xf8>
    131c:	00008067          	ret
    1320:	00050713          	mv	a4,a0
    1324:	ff1562e3          	bltu	a0,a7,1308 <memcpy+0xf8>
    1328:	f55ff06f          	j	127c <memcpy+0x6c>
    132c:	00008067          	ret

0000000000001330 <memset>:
    1330:	00f00813          	li	a6,15
    1334:	00050713          	mv	a4,a0
    1338:	02c87a63          	bleu	a2,a6,136c <memset+0x3c>
    133c:	00f77793          	andi	a5,a4,15
    1340:	0a079063          	bnez	a5,13e0 <memset+0xb0>
    1344:	06059e63          	bnez	a1,13c0 <memset+0x90>
    1348:	ff067693          	andi	a3,a2,-16
    134c:	00f67613          	andi	a2,a2,15
    1350:	00e686b3          	add	a3,a3,a4
    1354:	00b73023          	sd	a1,0(a4)
    1358:	00b73423          	sd	a1,8(a4)
    135c:	01070713          	addi	a4,a4,16
    1360:	fed76ae3          	bltu	a4,a3,1354 <memset+0x24>
    1364:	00061463          	bnez	a2,136c <memset+0x3c>
    1368:	00008067          	ret
    136c:	40c806b3          	sub	a3,a6,a2
    1370:	00269693          	slli	a3,a3,0x2
    1374:	00000297          	auipc	t0,0x0
    1378:	005686b3          	add	a3,a3,t0
    137c:	00c68067          	jr	a3,12
    1380:	00b70723          	sb	a1,14(a4)
    1384:	00b706a3          	sb	a1,13(a4)
    1388:	00b70623          	sb	a1,12(a4)
    138c:	00b705a3          	sb	a1,11(a4)
    1390:	00b70523          	sb	a1,10(a4)
    1394:	00b704a3          	sb	a1,9(a4)
    1398:	00b70423          	sb	a1,8(a4)
    139c:	00b703a3          	sb	a1,7(a4)
    13a0:	00b70323          	sb	a1,6(a4)
    13a4:	00b702a3          	sb	a1,5(a4)
    13a8:	00b70223          	sb	a1,4(a4)
    13ac:	00b701a3          	sb	a1,3(a4)
    13b0:	00b70123          	sb	a1,2(a4)
    13b4:	00b700a3          	sb	a1,1(a4)
    13b8:	00b70023          	sb	a1,0(a4)
    13bc:	00008067          	ret
    13c0:	0ff5f593          	andi	a1,a1,255
    13c4:	00859693          	slli	a3,a1,0x8
    13c8:	00d5e5b3          	or	a1,a1,a3
    13cc:	01059693          	slli	a3,a1,0x10
    13d0:	00d5e5b3          	or	a1,a1,a3
    13d4:	02059693          	slli	a3,a1,0x20
    13d8:	00d5e5b3          	or	a1,a1,a3
    13dc:	f6dff06f          	j	1348 <memset+0x18>
    13e0:	00279693          	slli	a3,a5,0x2
    13e4:	00000297          	auipc	t0,0x0
    13e8:	005686b3          	add	a3,a3,t0
    13ec:	00008293          	mv	t0,ra
    13f0:	f98680e7          	jalr	a3,-104
    13f4:	00028093          	mv	ra,t0
    13f8:	ff078793          	addi	a5,a5,-16
    13fc:	40f70733          	sub	a4,a4,a5
    1400:	00f60633          	add	a2,a2,a5
    1404:	f6c874e3          	bleu	a2,a6,136c <memset+0x3c>
    1408:	f3dff06f          	j	1344 <memset+0x14>

000000000000140c <strlen>:
    140c:	00757793          	andi	a5,a0,7
    1410:	00050593          	mv	a1,a0
    1414:	06079a63          	bnez	a5,1488 <strlen+0x7c>
    1418:	000057b7          	lui	a5,0x5
    141c:	5e07b683          	ld	a3,1504(a5) # 55e0 <verify_data+0x2000>
    1420:	fff00613          	li	a2,-1
    1424:	00850513          	addi	a0,a0,8
    1428:	ff853783          	ld	a5,-8(a0)
    142c:	00d7f733          	and	a4,a5,a3
    1430:	00d70733          	add	a4,a4,a3
    1434:	00d7e7b3          	or	a5,a5,a3
    1438:	00f767b3          	or	a5,a4,a5
    143c:	fec784e3          	beq	a5,a2,1424 <strlen+0x18>
    1440:	ff854783          	lbu	a5,-8(a0)
    1444:	40b505b3          	sub	a1,a0,a1
    1448:	06078263          	beqz	a5,14ac <strlen+0xa0>
    144c:	ff954783          	lbu	a5,-7(a0)
    1450:	04078a63          	beqz	a5,14a4 <strlen+0x98>
    1454:	ffa54783          	lbu	a5,-6(a0)
    1458:	06078263          	beqz	a5,14bc <strlen+0xb0>
    145c:	ffb54783          	lbu	a5,-5(a0)
    1460:	04078a63          	beqz	a5,14b4 <strlen+0xa8>
    1464:	ffc54783          	lbu	a5,-4(a0)
    1468:	ffd54703          	lbu	a4,-3(a0)
    146c:	ffe54683          	lbu	a3,-2(a0)
    1470:	04078a63          	beqz	a5,14c4 <strlen+0xb8>
    1474:	04070c63          	beqz	a4,14cc <strlen+0xc0>
    1478:	fff58513          	addi	a0,a1,-1
    147c:	04068c63          	beqz	a3,14d4 <strlen+0xc8>
    1480:	00008067          	ret
    1484:	f8070ae3          	beqz	a4,1418 <strlen+0xc>
    1488:	00054783          	lbu	a5,0(a0)
    148c:	00150513          	addi	a0,a0,1
    1490:	00757713          	andi	a4,a0,7
    1494:	fe0798e3          	bnez	a5,1484 <strlen+0x78>
    1498:	40b50533          	sub	a0,a0,a1
    149c:	fff50513          	addi	a0,a0,-1
    14a0:	00008067          	ret
    14a4:	ff958513          	addi	a0,a1,-7
    14a8:	00008067          	ret
    14ac:	ff858513          	addi	a0,a1,-8
    14b0:	00008067          	ret
    14b4:	ffb58513          	addi	a0,a1,-5
    14b8:	00008067          	ret
    14bc:	ffa58513          	addi	a0,a1,-6
    14c0:	00008067          	ret
    14c4:	ffc58513          	addi	a0,a1,-4
    14c8:	00008067          	ret
    14cc:	ffd58513          	addi	a0,a1,-3
    14d0:	00008067          	ret
    14d4:	ffe58513          	addi	a0,a1,-2
    14d8:	00008067          	ret

00000000000014dc <strnlen>:
    14dc:	02058e63          	beqz	a1,1518 <strnlen+0x3c>
    14e0:	00054783          	lbu	a5,0(a0)
    14e4:	02078a63          	beqz	a5,1518 <strnlen+0x3c>
    14e8:	00150793          	addi	a5,a0,1
    14ec:	00b505b3          	add	a1,a0,a1
    14f0:	0100006f          	j	1500 <strnlen+0x24>
    14f4:	fff74683          	lbu	a3,-1(a4)
    14f8:	00068c63          	beqz	a3,1510 <strnlen+0x34>
    14fc:	00070793          	mv	a5,a4
    1500:	00178713          	addi	a4,a5,1
    1504:	fef598e3          	bne	a1,a5,14f4 <strnlen+0x18>
    1508:	40a58533          	sub	a0,a1,a0
    150c:	00008067          	ret
    1510:	40a78533          	sub	a0,a5,a0
    1514:	00008067          	ret
    1518:	00000513          	li	a0,0
    151c:	00008067          	ret

Disassembly of section .text.startup:

0000000000001520 <main>:
    1520:	fd010113          	addi	sp,sp,-48
    1524:	02813023          	sd	s0,32(sp)
    1528:	00913c23          	sd	s1,24(sp)
    152c:	01313423          	sd	s3,8(sp)
    1530:	00003437          	lui	s0,0x3
    1534:	000014b7          	lui	s1,0x1
    1538:	80048513          	addi	a0,s1,-2048 # 800 <putchar+0xc>
    153c:	a8818613          	addi	a2,gp,-1400 # 5868 <scratch.1931>
    1540:	5e040593          	addi	a1,s0,1504 # 35e0 <verify_data>
    1544:	01213823          	sd	s2,16(sp)
    1548:	02113423          	sd	ra,40(sp)
    154c:	00001937          	lui	s2,0x1
    1550:	fadfe0ef          	jal	4fc <sort>
    1554:	5e090513          	addi	a0,s2,1504 # 15e0 <input_data>
    1558:	f55fe0ef          	jal	4ac <verify.constprop.2>
    155c:	02050263          	beqz	a0,1580 <main+0x60>
    1560:	02813083          	ld	ra,40(sp)
    1564:	00100513          	li	a0,1
    1568:	02013403          	ld	s0,32(sp)
    156c:	01813483          	ld	s1,24(sp)
    1570:	01013903          	ld	s2,16(sp)
    1574:	00813983          	ld	s3,8(sp)
    1578:	03010113          	addi	sp,sp,48
    157c:	00008067          	ret
    1580:	00100513          	li	a0,1
    1584:	a05ff0ef          	jal	f88 <setStats>
    1588:	a8818613          	addi	a2,gp,-1400 # 5868 <scratch.1931>
    158c:	5e090593          	addi	a1,s2,1504
    1590:	80048513          	addi	a0,s1,-2048
    1594:	f69fe0ef          	jal	4fc <sort>
    1598:	00000513          	li	a0,0
    159c:	9edff0ef          	jal	f88 <setStats>
    15a0:	5e040513          	addi	a0,s0,1504
    15a4:	02813083          	ld	ra,40(sp)
    15a8:	02013403          	ld	s0,32(sp)
    15ac:	01813483          	ld	s1,24(sp)
    15b0:	01013903          	ld	s2,16(sp)
    15b4:	00813983          	ld	s3,8(sp)
    15b8:	03010113          	addi	sp,sp,48
    15bc:	ef1fe06f          	j	4ac <verify.constprop.2>
    15c0:	000055b7          	lui	a1,0x5
    15c4:	04000893          	li	a7,64
    15c8:	00100513          	li	a0,1
    15cc:	7d858593          	addi	a1,a1,2008 # 57d8 <verify_data+0x21f8>
    15d0:	01700613          	li	a2,23
    15d4:	00000073          	ecall
    15d8:	fff00513          	li	a0,-1
    15dc:	00008067          	ret
