
rv32mi-p-ma_addr:     file format elf32-littleriscv


Disassembly of section .text:

00000100 <tvec_user>:
 100:	00000f17          	auipc	t5,0x0
 104:	234f0f13          	addi	t5,t5,564 # 334 <ecall>
 108:	34102ff3          	csrr	t6,mepc
 10c:	07ff0c63          	beq	t5,t6,184 <write_tohost>
 110:	00000f17          	auipc	t5,0x0
 114:	ef0f0f13          	addi	t5,t5,-272 # 0 <tvec_user-0x100>
 118:	020f1863          	bnez	t5,148 <mrts_routine>
 11c:	00000f17          	auipc	t5,0x0
 120:	1dcf0f13          	addi	t5,t5,476 # 2f8 <mtvec_handler>
 124:	1c0f1a63          	bnez	t5,2f8 <mtvec_handler>
 128:	0580006f          	j	180 <other_exception>
 12c:	00000013          	nop
 130:	00000013          	nop
 134:	00000013          	nop
 138:	00000013          	nop
 13c:	00000013          	nop

00000140 <tvec_supervisor>:
 140:	34202f73          	csrr	t5,mcause
 144:	fa0f5ee3          	bgez	t5,100 <tvec_user>

00000148 <mrts_routine>:
 148:	30500073          	mrts
 14c:	00000013          	nop
 150:	00000013          	nop
 154:	00000013          	nop
 158:	00000013          	nop
 15c:	00000013          	nop
 160:	00000013          	nop
 164:	00000013          	nop
 168:	00000013          	nop
 16c:	00000013          	nop
 170:	00000013          	nop
 174:	00000013          	nop
 178:	00000013          	nop
 17c:	00000013          	nop

00000180 <other_exception>:
 180:	539e6e13          	ori	t3,t3,1337

00000184 <write_tohost>:
 184:	780e1073          	csrw	mtohost,t3
 188:	ffdff06f          	j	184 <write_tohost>
 18c:	00000013          	nop
 190:	00000013          	nop
 194:	00000013          	nop
 198:	00000013          	nop
 19c:	00000013          	nop
 1a0:	00000013          	nop
 1a4:	00000013          	nop
 1a8:	00000013          	nop
 1ac:	00000013          	nop
 1b0:	00000013          	nop
 1b4:	00000013          	nop
 1b8:	00000013          	nop
 1bc:	00000013          	nop

000001c0 <tvec_machine>:
 1c0:	00000f17          	auipc	t5,0x0
 1c4:	174f0f13          	addi	t5,t5,372 # 334 <ecall>
 1c8:	34102ff3          	csrr	t6,mepc
 1cc:	fbff0ce3          	beq	t5,t6,184 <write_tohost>
 1d0:	00000f17          	auipc	t5,0x0
 1d4:	128f0f13          	addi	t5,t5,296 # 2f8 <mtvec_handler>
 1d8:	120f1063          	bnez	t5,2f8 <mtvec_handler>
 1dc:	fa5ff06f          	j	180 <other_exception>
 1e0:	00000013          	nop
 1e4:	00000013          	nop
 1e8:	00000013          	nop
 1ec:	00000013          	nop
 1f0:	00000013          	nop
 1f4:	00000013          	nop
 1f8:	00000013          	nop
 1fc:	00000013          	nop

00000200 <_start>:
 200:	f1002573          	csrr	a0,mhartid
 204:	00051063          	bnez	a0,204 <_start+0x4>
 208:	f0002573          	csrr	a0,mcpuid
 20c:	00055863          	bgez	a0,21c <_start+0x1c>
 210:	0ff0000f          	fence
 214:	00100e13          	li	t3,1
 218:	11c0006f          	j	334 <ecall>
 21c:	00000e13          	li	t3,0
 220:	00000297          	auipc	t0,0x0
 224:	de028293          	addi	t0,t0,-544 # 0 <tvec_user-0x100>
 228:	00028463          	beqz	t0,230 <_start+0x30>
 22c:	10129073          	csrw	stvec,t0
 230:	1f800293          	li	t0,504
 234:	3002b073          	csrc	mstatus,t0
 238:	03000513          	li	a0,48
 23c:	30052073          	csrs	mstatus,a0
 240:	00000297          	auipc	t0,0x0
 244:	01428293          	addi	t0,t0,20 # 254 <_start+0x54>
 248:	34129073          	csrw	mepc,t0
 24c:	f1002573          	csrr	a0,mhartid
 250:	10000073          	eret
 254:	00000417          	auipc	s0,0x0
 258:	0a440413          	addi	s0,s0,164 # 2f8 <mtvec_handler>
 25c:	00000493          	li	s1,0
 260:	00200e13          	li	t3,2
 264:	00141003          	lh	zero,1(s0)
 268:	06c0006f          	j	2d4 <fail>
 26c:	00300e13          	li	t3,3
 270:	00145003          	lhu	zero,1(s0)
 274:	0600006f          	j	2d4 <fail>
 278:	00400e13          	li	t3,4
 27c:	00142003          	lw	zero,1(s0)
 280:	0540006f          	j	2d4 <fail>
 284:	00500e13          	li	t3,5
 288:	00242003          	lw	zero,2(s0)
 28c:	0480006f          	j	2d4 <fail>
 290:	00600e13          	li	t3,6
 294:	00342003          	lw	zero,3(s0)
 298:	03c0006f          	j	2d4 <fail>
 29c:	00100493          	li	s1,1
 2a0:	01600e13          	li	t3,22
 2a4:	000410a3          	sh	zero,1(s0)
 2a8:	02c0006f          	j	2d4 <fail>
 2ac:	01700e13          	li	t3,23
 2b0:	000420a3          	sw	zero,1(s0)
 2b4:	0200006f          	j	2d4 <fail>
 2b8:	01800e13          	li	t3,24
 2bc:	00042123          	sw	zero,2(s0)
 2c0:	0140006f          	j	2d4 <fail>
 2c4:	01900e13          	li	t3,25
 2c8:	000421a3          	sw	zero,3(s0)
 2cc:	0080006f          	j	2d4 <fail>
 2d0:	01c01c63          	bne	zero,t3,2e8 <pass>

000002d4 <fail>:
 2d4:	0ff0000f          	fence
 2d8:	000e0063          	beqz	t3,2d8 <fail+0x4>
 2dc:	001e1e13          	slli	t3,t3,0x1
 2e0:	001e6e13          	ori	t3,t3,1
 2e4:	0500006f          	j	334 <ecall>

000002e8 <pass>:
 2e8:	0ff0000f          	fence
 2ec:	00100e13          	li	t3,1
 2f0:	0440006f          	j	334 <ecall>
 2f4:	00000013          	nop

000002f8 <mtvec_handler>:
 2f8:	02049063          	bnez	s1,318 <test_store>

000002fc <test_load>:
 2fc:	00400313          	li	t1,4
 300:	342022f3          	csrr	t0,mcause
 304:	fc6298e3          	bne	t0,t1,2d4 <fail>
 308:	341022f3          	csrr	t0,mepc
 30c:	00828293          	addi	t0,t0,8
 310:	34129073          	csrw	mepc,t0
 314:	10000073          	eret

00000318 <test_store>:
 318:	00600313          	li	t1,6
 31c:	342022f3          	csrr	t0,mcause
 320:	fa629ae3          	bne	t0,t1,2d4 <fail>
 324:	341022f3          	csrr	t0,mepc
 328:	00828293          	addi	t0,t0,8
 32c:	34129073          	csrw	mepc,t0
 330:	10000073          	eret

00000334 <ecall>:
 334:	00000073          	ecall
 338:	ffdff06f          	j	334 <ecall>
