
rv32mi-p-timer:     file format elf32-littleriscv


Disassembly of section .text:

00000100 <tvec_user>:
 100:	00002f17          	auipc	t5,0x2
 104:	efcf0f13          	addi	t5,t5,-260 # 1ffc <ecall>
 108:	34102ff3          	csrr	t6,mepc
 10c:	07ff0c63          	beq	t5,t6,184 <write_tohost>
 110:	00000f17          	auipc	t5,0x0
 114:	ef0f0f13          	addi	t5,t5,-272 # 0 <tvec_user-0x100>
 118:	020f1863          	bnez	t5,148 <mrts_routine>
 11c:	00000f17          	auipc	t5,0x0
 120:	1e4f0f13          	addi	t5,t5,484 # 300 <mtvec_handler>
 124:	1c0f1e63          	bnez	t5,300 <mtvec_handler>
 128:	0580006f          	j	180 <other_exception>
 12c:	00000013          	nop
 130:	00000013          	nop
 134:	00000013          	nop
 138:	00000013          	nop
 13c:	00000013          	nop

00000140 <tvec_supervisor>:
 140:	34202f73          	csrr	t5,mcause
 144:	fa0f5ee3          	bgez	t5,100 <tvec_user>

00000148 <mrts_routine>:
 148:	30500073          	mrts
 14c:	00000013          	nop
 150:	00000013          	nop
 154:	00000013          	nop
 158:	00000013          	nop
 15c:	00000013          	nop
 160:	00000013          	nop
 164:	00000013          	nop
 168:	00000013          	nop
 16c:	00000013          	nop
 170:	00000013          	nop
 174:	00000013          	nop
 178:	00000013          	nop
 17c:	00000013          	nop

00000180 <other_exception>:
 180:	539e6e13          	ori	t3,t3,1337

00000184 <write_tohost>:
 184:	780e1073          	csrw	mtohost,t3
 188:	ffdff06f          	j	184 <write_tohost>
 18c:	00000013          	nop
 190:	00000013          	nop
 194:	00000013          	nop
 198:	00000013          	nop
 19c:	00000013          	nop
 1a0:	00000013          	nop
 1a4:	00000013          	nop
 1a8:	00000013          	nop
 1ac:	00000013          	nop
 1b0:	00000013          	nop
 1b4:	00000013          	nop
 1b8:	00000013          	nop
 1bc:	00000013          	nop

000001c0 <tvec_machine>:
 1c0:	00002f17          	auipc	t5,0x2
 1c4:	e3cf0f13          	addi	t5,t5,-452 # 1ffc <ecall>
 1c8:	34102ff3          	csrr	t6,mepc
 1cc:	fbff0ce3          	beq	t5,t6,184 <write_tohost>
 1d0:	00000f17          	auipc	t5,0x0
 1d4:	130f0f13          	addi	t5,t5,304 # 300 <mtvec_handler>
 1d8:	120f1463          	bnez	t5,300 <mtvec_handler>
 1dc:	fa5ff06f          	j	180 <other_exception>
 1e0:	00000013          	nop
 1e4:	00000013          	nop
 1e8:	00000013          	nop
 1ec:	00000013          	nop
 1f0:	00000013          	nop
 1f4:	00000013          	nop
 1f8:	00000013          	nop
 1fc:	00000013          	nop

00000200 <_start>:
 200:	f1002573          	csrr	a0,mhartid
 204:	00051063          	bnez	a0,204 <_start+0x4>
 208:	f0002573          	csrr	a0,mcpuid
 20c:	00055863          	bgez	a0,21c <_start+0x1c>
 210:	0ff0000f          	fence
 214:	00100e13          	li	t3,1
 218:	5e50106f          	j	1ffc <ecall>
 21c:	00000e13          	li	t3,0
 220:	00000297          	auipc	t0,0x0
 224:	de028293          	addi	t0,t0,-544 # 0 <tvec_user-0x100>
 228:	00028463          	beqz	t0,230 <_start+0x30>
 22c:	10129073          	csrw	stvec,t0
 230:	1f800293          	li	t0,504
 234:	3002b073          	csrc	mstatus,t0
 238:	03000513          	li	a0,48
 23c:	30052073          	csrs	mstatus,a0
 240:	00000297          	auipc	t0,0x0
 244:	01428293          	addi	t0,t0,20 # 254 <_start+0x54>
 248:	34129073          	csrw	mepc,t0
 24c:	f1002573          	csrr	a0,mhartid
 250:	10000073          	eret
 254:	00000c13          	li	s8,0
 258:	00a00c93          	li	s9,10
 25c:	00000013          	nop
 260:	70102573          	csrr	a0,mtime
 264:	00550513          	addi	a0,a0,5
 268:	32151073          	csrw	mtimecmp,a0
 26c:	08000513          	li	a0,128
 270:	30452073          	csrs	mie,a0
 274:	3000e073          	csrsi	mstatus,1
 278:	3ff00413          	li	s0,1023
 27c:	00000a13          	li	s4,0
 280:	00345913          	srli	s2,s0,0x3
 284:	00894933          	xor	s2,s2,s0
 288:	00197913          	andi	s2,s2,1
 28c:	00145413          	srli	s0,s0,0x1
 290:	00991913          	slli	s2,s2,0x9
 294:	00896433          	or	s0,s2,s0
 298:	3ff47413          	andi	s0,s0,1023
 29c:	001a0a13          	addi	s4,s4,1
 2a0:	ff9c60e3          	bltu	s8,s9,280 <_start+0x80>
 2a4:	3ff00493          	li	s1,1023
 2a8:	009a6663          	bltu	s4,s1,2b4 <_start+0xb4>
 2ac:	409a0a33          	sub	s4,s4,s1
 2b0:	fe9a7ee3          	bleu	s1,s4,2ac <_start+0xac>
 2b4:	00001497          	auipc	s1,0x1
 2b8:	d4c48493          	addi	s1,s1,-692 # 1000 <lfsr>
 2bc:	002a1a13          	slli	s4,s4,0x2
 2c0:	014484b3          	add	s1,s1,s4
 2c4:	0004a483          	lw	s1,0(s1)
 2c8:	00200e13          	li	t3,2
 2cc:	00941a63          	bne	s0,s1,2e0 <fail>
 2d0:	0ff0000f          	fence
 2d4:	00100e13          	li	t3,1
 2d8:	5250106f          	j	1ffc <ecall>
 2dc:	01c01c63          	bne	zero,t3,2f4 <pass>

000002e0 <fail>:
 2e0:	0ff0000f          	fence
 2e4:	000e0063          	beqz	t3,2e4 <fail+0x4>
 2e8:	001e1e13          	slli	t3,t3,0x1
 2ec:	001e6e13          	ori	t3,t3,1
 2f0:	50d0106f          	j	1ffc <ecall>

000002f4 <pass>:
 2f4:	0ff0000f          	fence
 2f8:	00100e13          	li	t3,1
 2fc:	5010106f          	j	1ffc <ecall>

00000300 <mtvec_handler>:
 300:	00300e13          	li	t3,3
 304:	342022f3          	csrr	t0,mcause
 308:	fc02dce3          	bgez	t0,2e0 <fail>
 30c:	00129293          	slli	t0,t0,0x1
 310:	ffe28293          	addi	t0,t0,-2
 314:	fc0296e3          	bnez	t0,2e0 <fail>
 318:	701022f3          	csrr	t0,mtime
 31c:	00528293          	addi	t0,t0,5
 320:	32129073          	csrw	mtimecmp,t0
 324:	001c0c13          	addi	s8,s8,1
 328:	10000073          	eret
