
rv64mi-p-dirty:     file format elf64-littleriscv


Disassembly of section .text:

0000000000000100 <tvec_user>:
 100:	00002f17          	auipc	t5,0x2
 104:	f08f0f13          	addi	t5,t5,-248 # 2008 <ecall>
 108:	34102ff3          	csrr	t6,mepc
 10c:	07ff0c63          	beq	t5,t6,184 <write_tohost>
 110:	00000f17          	auipc	t5,0x0
 114:	1e0f0f13          	addi	t5,t5,480 # 2f0 <stvec_handler>
 118:	020f1863          	bnez	t5,148 <mrts_routine>
 11c:	00000f17          	auipc	t5,0x0
 120:	ee4f0f13          	addi	t5,t5,-284 # 0 <tvec_user-0x100>
 124:	000f0463          	beqz	t5,12c <tvec_user+0x2c>
 128:	ed9ff06f          	j	0 <tvec_user-0x100>
 12c:	0540006f          	j	180 <other_exception>
 130:	00000013          	nop
 134:	00000013          	nop
 138:	00000013          	nop
 13c:	00000013          	nop

0000000000000140 <tvec_supervisor>:
 140:	34202f73          	csrr	t5,mcause
 144:	fa0f5ee3          	bgez	t5,100 <tvec_user>

0000000000000148 <mrts_routine>:
 148:	30500073          	mrts
 14c:	00000013          	nop
 150:	00000013          	nop
 154:	00000013          	nop
 158:	00000013          	nop
 15c:	00000013          	nop
 160:	00000013          	nop
 164:	00000013          	nop
 168:	00000013          	nop
 16c:	00000013          	nop
 170:	00000013          	nop
 174:	00000013          	nop
 178:	00000013          	nop
 17c:	00000013          	nop

0000000000000180 <other_exception>:
 180:	539e6e13          	ori	t3,t3,1337

0000000000000184 <write_tohost>:
 184:	780e1073          	csrw	mtohost,t3
 188:	ffdff06f          	j	184 <write_tohost>
 18c:	00000013          	nop
 190:	00000013          	nop
 194:	00000013          	nop
 198:	00000013          	nop
 19c:	00000013          	nop
 1a0:	00000013          	nop
 1a4:	00000013          	nop
 1a8:	00000013          	nop
 1ac:	00000013          	nop
 1b0:	00000013          	nop
 1b4:	00000013          	nop
 1b8:	00000013          	nop
 1bc:	00000013          	nop

00000000000001c0 <tvec_machine>:
 1c0:	00002f17          	auipc	t5,0x2
 1c4:	e48f0f13          	addi	t5,t5,-440 # 2008 <ecall>
 1c8:	34102ff3          	csrr	t6,mepc
 1cc:	fbff0ce3          	beq	t5,t6,184 <write_tohost>
 1d0:	00000f17          	auipc	t5,0x0
 1d4:	e30f0f13          	addi	t5,t5,-464 # 0 <tvec_user-0x100>
 1d8:	000f0463          	beqz	t5,1e0 <tvec_machine+0x20>
 1dc:	e25ff06f          	j	0 <tvec_user-0x100>
 1e0:	fa1ff06f          	j	180 <other_exception>
 1e4:	00000013          	nop
 1e8:	00000013          	nop
 1ec:	00000013          	nop
 1f0:	00000013          	nop
 1f4:	00000013          	nop
 1f8:	00000013          	nop
 1fc:	00000013          	nop

0000000000000200 <_start>:
 200:	f1002573          	csrr	a0,mhartid
 204:	00051063          	bnez	a0,204 <_start+0x4>
 208:	f0002573          	csrr	a0,mcpuid
 20c:	00054863          	bltz	a0,21c <_start+0x1c>
 210:	0ff0000f          	fence
 214:	00100e13          	li	t3,1
 218:	5f10106f          	j	2008 <ecall>
 21c:	00000e13          	li	t3,0
 220:	00000297          	auipc	t0,0x0
 224:	0d028293          	addi	t0,t0,208 # 2f0 <stvec_handler>
 228:	00028463          	beqz	t0,230 <_start+0x30>
 22c:	10129073          	csrw	stvec,t0
 230:	1f800293          	li	t0,504
 234:	3002b073          	csrc	mstatus,t0
 238:	03000513          	li	a0,48
 23c:	30052073          	csrs	mstatus,a0
 240:	00000297          	auipc	t0,0x0
 244:	01428293          	addi	t0,t0,20 # 254 <_start+0x54>
 248:	34129073          	csrw	mepc,t0
 24c:	f1002573          	csrr	a0,mhartid
 250:	10000073          	eret
 254:	00001597          	auipc	a1,0x1
 258:	dac58593          	addi	a1,a1,-596 # 1000 <page_table_1>
 25c:	18059073          	csrw	sptbr,a1
 260:	10100073          	sfence.vm
 264:	001205b7          	lui	a1,0x120
 268:	0105859b          	addiw	a1,a1,16
 26c:	3005a073          	csrs	mstatus,a1
 270:	00000597          	auipc	a1,0x0
 274:	01058593          	addi	a1,a1,16 # 280 <_start+0x80>
 278:	34159073          	csrw	mepc,a1
 27c:	10000073          	eret
 280:	00200e13          	li	t3,2
 284:	00100293          	li	t0,1
 288:	00001317          	auipc	t1,0x1
 28c:	d8533023          	sd	t0,-640(t1) # 1008 <dummy>
 290:	00300e13          	li	t3,3
 294:	00002297          	auipc	t0,0x2
 298:	d6c28293          	addi	t0,t0,-660 # 2000 <page_table_2>
 29c:	18029073          	csrw	sptbr,t0
 2a0:	10100073          	sfence.vm
 2a4:	00001317          	auipc	t1,0x1
 2a8:	d6533223          	sd	t0,-668(t1) # 1008 <dummy>
 2ac:	00002297          	auipc	t0,0x2
 2b0:	d542a283          	lw	t0,-684(t0) # 2000 <page_table_2>
 2b4:	06000313          	li	t1,96
 2b8:	0062f2b3          	and	t0,t0,t1
 2bc:	06629c63          	bne	t0,t1,334 <die>
 2c0:	0ff0000f          	fence
 2c4:	00100e13          	li	t3,1
 2c8:	5410106f          	j	2008 <ecall>
 2cc:	01c01c63          	bne	zero,t3,2e4 <pass>

00000000000002d0 <fail>:
 2d0:	0ff0000f          	fence
 2d4:	000e0063          	beqz	t3,2d4 <fail+0x4>
 2d8:	001e1e13          	slli	t3,t3,0x1
 2dc:	001e6e13          	ori	t3,t3,1
 2e0:	5290106f          	j	2008 <ecall>

00000000000002e4 <pass>:
 2e4:	0ff0000f          	fence
 2e8:	00100e13          	li	t3,1
 2ec:	51d0106f          	j	2008 <ecall>

00000000000002f0 <stvec_handler>:
 2f0:	d42022f3          	csrr	t0,scause
 2f4:	00200313          	li	t1,2
 2f8:	046e1063          	bne	t3,t1,338 <die+0x4>
 2fc:	00001297          	auipc	t0,0x1
 300:	d042a283          	lw	t0,-764(t0) # 1000 <page_table_1>
 304:	02000313          	li	t1,32
 308:	0062f2b3          	and	t0,t0,t1
 30c:	02629463          	bne	t0,t1,334 <die>
 310:	00001297          	auipc	t0,0x1
 314:	cf02a283          	lw	t0,-784(t0) # 1000 <page_table_1>
 318:	04000313          	li	t1,64
 31c:	0062f2b3          	and	t0,t0,t1
 320:	00628a63          	beq	t0,t1,334 <die>
 324:	141022f3          	csrr	t0,sepc
 328:	00428293          	addi	t0,t0,4
 32c:	14129073          	csrw	sepc,t0
 330:	10000073          	eret

0000000000000334 <die>:
 334:	0ff0000f          	fence
 338:	000e0063          	beqz	t3,338 <die+0x4>
 33c:	001e1e13          	slli	t3,t3,0x1
 340:	001e6e13          	ori	t3,t3,1
 344:	4c50106f          	j	2008 <ecall>
