
rv64ui-v-xori:     file format elf64-littleriscv


Disassembly of section .text.init:

0000000000000100 <entry_from_user>:
 100:	30500073          	mrts
 104:	00000013          	nop
 108:	00000013          	nop
 10c:	00000013          	nop
 110:	00000013          	nop
 114:	00000013          	nop
 118:	00000013          	nop
 11c:	00000013          	nop
 120:	00000013          	nop
 124:	00000013          	nop
 128:	00000013          	nop
 12c:	00000013          	nop
 130:	00000013          	nop
 134:	00000013          	nop
 138:	00000013          	nop
 13c:	00000013          	nop

0000000000000140 <entry_from_supervisor>:
 140:	342022f3          	csrr	t0,mcause
 144:	ff728293          	addi	t0,t0,-9
 148:	20028a63          	beqz	t0,35c <handle_tohost>
 14c:	2300006f          	j	37c <wtf>
 150:	00000013          	nop
 154:	00000013          	nop
 158:	00000013          	nop
 15c:	00000013          	nop
 160:	00000013          	nop
 164:	00000013          	nop
 168:	00000013          	nop
 16c:	00000013          	nop
 170:	00000013          	nop
 174:	00000013          	nop
 178:	00000013          	nop
 17c:	00000013          	nop

0000000000000180 <entry_from_hypervisor>:
 180:	1fc0006f          	j	37c <wtf>
 184:	00000013          	nop
 188:	00000013          	nop
 18c:	00000013          	nop
 190:	00000013          	nop
 194:	00000013          	nop
 198:	00000013          	nop
 19c:	00000013          	nop
 1a0:	00000013          	nop
 1a4:	00000013          	nop
 1a8:	00000013          	nop
 1ac:	00000013          	nop
 1b0:	00000013          	nop
 1b4:	00000013          	nop
 1b8:	00000013          	nop
 1bc:	00000013          	nop

00000000000001c0 <entry_from_machine>:
 1c0:	342022f3          	csrr	t0,mcause
 1c4:	ff528293          	addi	t0,t0,-11
 1c8:	18028a63          	beqz	t0,35c <handle_tohost>
 1cc:	1b00006f          	j	37c <wtf>
 1d0:	00000013          	nop
 1d4:	00000013          	nop
 1d8:	00000013          	nop
 1dc:	00000013          	nop
 1e0:	00000013          	nop
 1e4:	00000013          	nop
 1e8:	00000013          	nop
 1ec:	00000013          	nop
 1f0:	00000013          	nop
 1f4:	00000013          	nop
 1f8:	00000013          	nop
 1fc:	00000013          	nop

0000000000000200 <power_on_reset>:
 200:	0002c117          	auipc	sp,0x2c
 204:	ce010113          	addi	sp,sp,-800 # 2bee0 <_end+0x1fee0>
 208:	34011073          	csrw	mscratch,sp
 20c:	53900593          	li	a1,1337
 210:	00004517          	auipc	a0,0x4
 214:	df050513          	addi	a0,a0,-528 # 4000 <userstart>
 218:	3480206f          	j	2560 <vm_boot>

000000000000021c <pop_tf>:
 21c:	1000f073          	csrci	sstatus,1
 220:	10853283          	ld	t0,264(a0)
 224:	14129073          	csrw	sepc,t0
 228:	00853083          	ld	ra,8(a0)
 22c:	01053103          	ld	sp,16(a0)
 230:	01853183          	ld	gp,24(a0)
 234:	02053203          	ld	tp,32(a0)
 238:	02853283          	ld	t0,40(a0)
 23c:	03053303          	ld	t1,48(a0)
 240:	03853383          	ld	t2,56(a0)
 244:	04053403          	ld	s0,64(a0)
 248:	04853483          	ld	s1,72(a0)
 24c:	05853583          	ld	a1,88(a0)
 250:	06053603          	ld	a2,96(a0)
 254:	06853683          	ld	a3,104(a0)
 258:	07053703          	ld	a4,112(a0)
 25c:	07853783          	ld	a5,120(a0)
 260:	08053803          	ld	a6,128(a0)
 264:	08853883          	ld	a7,136(a0)
 268:	09053903          	ld	s2,144(a0)
 26c:	09853983          	ld	s3,152(a0)
 270:	0a053a03          	ld	s4,160(a0)
 274:	0a853a83          	ld	s5,168(a0)
 278:	0b053b03          	ld	s6,176(a0)
 27c:	0b853b83          	ld	s7,184(a0)
 280:	0c053c03          	ld	s8,192(a0)
 284:	0c853c83          	ld	s9,200(a0)
 288:	0d053d03          	ld	s10,208(a0)
 28c:	0d853d83          	ld	s11,216(a0)
 290:	0e053e03          	ld	t3,224(a0)
 294:	0e853e83          	ld	t4,232(a0)
 298:	0f053f03          	ld	t5,240(a0)
 29c:	0f853f83          	ld	t6,248(a0)
 2a0:	05053503          	ld	a0,80(a0)
 2a4:	10000073          	eret

00000000000002a8 <trap_entry>:
 2a8:	14011173          	csrrw	sp,sscratch,sp
 2ac:	00113423          	sd	ra,8(sp)
 2b0:	00313c23          	sd	gp,24(sp)
 2b4:	02413023          	sd	tp,32(sp)
 2b8:	02513423          	sd	t0,40(sp)
 2bc:	02613823          	sd	t1,48(sp)
 2c0:	02713c23          	sd	t2,56(sp)
 2c4:	04813023          	sd	s0,64(sp)
 2c8:	04913423          	sd	s1,72(sp)
 2cc:	04a13823          	sd	a0,80(sp)
 2d0:	04b13c23          	sd	a1,88(sp)
 2d4:	06c13023          	sd	a2,96(sp)
 2d8:	06d13423          	sd	a3,104(sp)
 2dc:	06e13823          	sd	a4,112(sp)
 2e0:	06f13c23          	sd	a5,120(sp)
 2e4:	09013023          	sd	a6,128(sp)
 2e8:	09113423          	sd	a7,136(sp)
 2ec:	09213823          	sd	s2,144(sp)
 2f0:	09313c23          	sd	s3,152(sp)
 2f4:	0b413023          	sd	s4,160(sp)
 2f8:	0b513423          	sd	s5,168(sp)
 2fc:	0b613823          	sd	s6,176(sp)
 300:	0b713c23          	sd	s7,184(sp)
 304:	0d813023          	sd	s8,192(sp)
 308:	0d913423          	sd	s9,200(sp)
 30c:	0da13823          	sd	s10,208(sp)
 310:	0db13c23          	sd	s11,216(sp)
 314:	0fc13023          	sd	t3,224(sp)
 318:	0fd13423          	sd	t4,232(sp)
 31c:	0fe13823          	sd	t5,240(sp)
 320:	0ff13c23          	sd	t6,248(sp)
 324:	140112f3          	csrrw	t0,sscratch,sp
 328:	00513823          	sd	t0,16(sp)
 32c:	100022f3          	csrr	t0,sstatus
 330:	10513023          	sd	t0,256(sp)
 334:	141022f3          	csrr	t0,sepc
 338:	10513423          	sd	t0,264(sp)
 33c:	d43022f3          	csrr	t0,sbadaddr
 340:	10513823          	sd	t0,272(sp)
 344:	d42022f3          	csrr	t0,scause
 348:	10513c23          	sd	t0,280(sp)
 34c:	00010513          	mv	a0,sp
 350:	0a80206f          	j	23f8 <handle_trap>

0000000000000354 <do_tohost>:
 354:	00000073          	ecall
 358:	00008067          	ret

000000000000035c <handle_tohost>:
 35c:	780512f3          	csrrw	t0,mtohost,a0
 360:	fe029ee3          	bnez	t0,35c <handle_tohost>
 364:	781012f3          	csrrw	t0,mfromhost,zero
 368:	fe029ee3          	bnez	t0,364 <handle_tohost+0x8>
 36c:	341022f3          	csrr	t0,mepc
 370:	00428293          	addi	t0,t0,4
 374:	34129073          	csrw	mepc,t0
 378:	10000073          	eret

000000000000037c <wtf>:
 37c:	34900513          	li	a0,841
 380:	78051073          	csrw	mtohost,a0
 384:	ffdff06f          	j	380 <wtf+0x4>

Disassembly of section .text:

0000000000002000 <printhex>:
    2000:	fc010113          	addi	sp,sp,-64
    2004:	02113c23          	sd	ra,56(sp)
    2008:	02813823          	sd	s0,48(sp)
    200c:	02913423          	sd	s1,40(sp)
    2010:	01710713          	addi	a4,sp,23
    2014:	00710613          	addi	a2,sp,7
    2018:	00f57793          	andi	a5,a0,15
    201c:	00a7b793          	sltiu	a5,a5,10
    2020:	40f007b3          	neg	a5,a5
    2024:	fd97f793          	andi	a5,a5,-39
    2028:	00f57693          	andi	a3,a0,15
    202c:	05778793          	addi	a5,a5,87
    2030:	00d787bb          	addw	a5,a5,a3
    2034:	00f70023          	sb	a5,0(a4)
    2038:	fff70713          	addi	a4,a4,-1
    203c:	00455513          	srli	a0,a0,0x4
    2040:	fcc71ce3          	bne	a4,a2,2018 <printhex+0x18>
    2044:	00814503          	lbu	a0,8(sp)
    2048:	10100493          	li	s1,257
    204c:	00010c23          	sb	zero,24(sp)
    2050:	00810413          	addi	s0,sp,8
    2054:	03049493          	slli	s1,s1,0x30
    2058:	00050c63          	beqz	a0,2070 <printhex+0x70>
    205c:	00956533          	or	a0,a0,s1
    2060:	00140413          	addi	s0,s0,1
    2064:	af0fe0ef          	jal	354 <do_tohost>
    2068:	00044503          	lbu	a0,0(s0)
    206c:	fe0518e3          	bnez	a0,205c <printhex+0x5c>
    2070:	03813083          	ld	ra,56(sp)
    2074:	03013403          	ld	s0,48(sp)
    2078:	02813483          	ld	s1,40(sp)
    207c:	04010113          	addi	sp,sp,64
    2080:	00008067          	ret

0000000000002084 <evict>:
    2084:	fd010113          	addi	sp,sp,-48
    2088:	fffff7b7          	lui	a5,0xfffff
    208c:	02113423          	sd	ra,40(sp)
    2090:	02813023          	sd	s0,32(sp)
    2094:	00913c23          	sd	s1,24(sp)
    2098:	01213823          	sd	s2,16(sp)
    209c:	01313423          	sd	s3,8(sp)
    20a0:	01413023          	sd	s4,0(sp)
    20a4:	00f507b3          	add	a5,a0,a5
    20a8:	0003e737          	lui	a4,0x3e
    20ac:	02e7ec63          	bltu	a5,a4,20e4 <evict+0x60>
    20b0:	10100413          	li	s0,257
    20b4:	04100513          	li	a0,65
    20b8:	00002497          	auipc	s1,0x2
    20bc:	2a048493          	addi	s1,s1,672 # 4358 <memset+0xdc>
    20c0:	03041413          	slli	s0,s0,0x30
    20c4:	00856533          	or	a0,a0,s0
    20c8:	00148493          	addi	s1,s1,1
    20cc:	a88fe0ef          	jal	354 <do_tohost>
    20d0:	0004c503          	lbu	a0,0(s1)
    20d4:	fe0518e3          	bnez	a0,20c4 <evict+0x40>
    20d8:	00300513          	li	a0,3
    20dc:	a78fe0ef          	jal	354 <do_tohost>
    20e0:	0000006f          	j	20e0 <evict+0x5c>
    20e4:	00c55793          	srli	a5,a0,0xc
    20e8:	00c79993          	slli	s3,a5,0xc
    20ec:	00c9d713          	srli	a4,s3,0xc
    20f0:	00004417          	auipc	s0,0x4
    20f4:	30040413          	addi	s0,s0,768 # 63f0 <user_mapping>
    20f8:	00471913          	slli	s2,a4,0x4
    20fc:	012406b3          	add	a3,s0,s2
    2100:	0006b683          	ld	a3,0(a3)
    2104:	0c068a63          	beqz	a3,21d8 <evict+0x154>
    2108:	00371713          	slli	a4,a4,0x3
    210c:	00009697          	auipc	a3,0x9
    2110:	ef468693          	addi	a3,a3,-268 # b000 <user_l3pt>
    2114:	00e68733          	add	a4,a3,a4
    2118:	00073483          	ld	s1,0(a4) # 3e000 <_end+0x32000>
    211c:	0204f713          	andi	a4,s1,32
    2120:	0c070c63          	beqz	a4,21f8 <evict+0x174>
    2124:	ffe00737          	lui	a4,0xffe00
    2128:	00e98a33          	add	s4,s3,a4
    212c:	00001637          	lui	a2,0x1
    2130:	000a0593          	mv	a1,s4
    2134:	00098513          	mv	a0,s3
    2138:	0cc020ef          	jal	4204 <memcmp>
    213c:	06050e63          	beqz	a0,21b8 <evict+0x134>
    2140:	0404f493          	andi	s1,s1,64
    2144:	02049c63          	bnez	s1,217c <evict+0xf8>
    2148:	10100413          	li	s0,257
    214c:	04100513          	li	a0,65
    2150:	00002497          	auipc	s1,0x2
    2154:	28848493          	addi	s1,s1,648 # 43d8 <memset+0x15c>
    2158:	03041413          	slli	s0,s0,0x30
    215c:	00856533          	or	a0,a0,s0
    2160:	00148493          	addi	s1,s1,1
    2164:	9f0fe0ef          	jal	354 <do_tohost>
    2168:	0004c503          	lbu	a0,0(s1)
    216c:	fe0518e3          	bnez	a0,215c <evict+0xd8>
    2170:	00300513          	li	a0,3
    2174:	9e0fe0ef          	jal	354 <do_tohost>
    2178:	0000006f          	j	2178 <evict+0xf4>
    217c:	000016b7          	lui	a3,0x1
    2180:	000a0713          	mv	a4,s4
    2184:	00098793          	mv	a5,s3
    2188:	00da06b3          	add	a3,s4,a3
    218c:	00073803          	ld	a6,0(a4) # ffffffffffe00000 <_end+0xffffffffffdf4000>
    2190:	00873503          	ld	a0,8(a4)
    2194:	01073583          	ld	a1,16(a4)
    2198:	01873603          	ld	a2,24(a4)
    219c:	0107b023          	sd	a6,0(a5) # fffffffffffff000 <_end+0xffffffffffff3000>
    21a0:	00a7b423          	sd	a0,8(a5)
    21a4:	00b7b823          	sd	a1,16(a5)
    21a8:	00c7bc23          	sd	a2,24(a5)
    21ac:	02070713          	addi	a4,a4,32
    21b0:	02078793          	addi	a5,a5,32
    21b4:	fcd71ce3          	bne	a4,a3,218c <evict+0x108>
    21b8:	00004717          	auipc	a4,0x4
    21bc:	62870713          	addi	a4,a4,1576 # 67e0 <freelist_tail>
    21c0:	00073683          	ld	a3,0(a4)
    21c4:	012407b3          	add	a5,s0,s2
    21c8:	0007b023          	sd	zero,0(a5)
    21cc:	06068063          	beqz	a3,222c <evict+0x1a8>
    21d0:	00f6b423          	sd	a5,8(a3) # 1008 <wtf+0xc8c>
    21d4:	00f73023          	sd	a5,0(a4)
    21d8:	02813083          	ld	ra,40(sp)
    21dc:	02013403          	ld	s0,32(sp)
    21e0:	01813483          	ld	s1,24(sp)
    21e4:	01013903          	ld	s2,16(sp)
    21e8:	00813983          	ld	s3,8(sp)
    21ec:	00013a03          	ld	s4,0(sp)
    21f0:	03010113          	addi	sp,sp,48
    21f4:	00008067          	ret
    21f8:	10100413          	li	s0,257
    21fc:	04100513          	li	a0,65
    2200:	00002497          	auipc	s1,0x2
    2204:	1a048493          	addi	s1,s1,416 # 43a0 <memset+0x124>
    2208:	03041413          	slli	s0,s0,0x30
    220c:	00856533          	or	a0,a0,s0
    2210:	00148493          	addi	s1,s1,1
    2214:	940fe0ef          	jal	354 <do_tohost>
    2218:	0004c503          	lbu	a0,0(s1)
    221c:	fe0518e3          	bnez	a0,220c <evict+0x188>
    2220:	00300513          	li	a0,3
    2224:	930fe0ef          	jal	354 <do_tohost>
    2228:	0000006f          	j	2228 <evict+0x1a4>
    222c:	02813083          	ld	ra,40(sp)
    2230:	00f73023          	sd	a5,0(a4)
    2234:	00006717          	auipc	a4,0x6
    2238:	dcc70713          	addi	a4,a4,-564 # 8000 <freelist_head>
    223c:	02013403          	ld	s0,32(sp)
    2240:	01813483          	ld	s1,24(sp)
    2244:	01013903          	ld	s2,16(sp)
    2248:	00813983          	ld	s3,8(sp)
    224c:	00013a03          	ld	s4,0(sp)
    2250:	00f73023          	sd	a5,0(a4)
    2254:	03010113          	addi	sp,sp,48
    2258:	00008067          	ret

000000000000225c <handle_fault>:
    225c:	fe010113          	addi	sp,sp,-32
    2260:	fffff7b7          	lui	a5,0xfffff
    2264:	00113c23          	sd	ra,24(sp)
    2268:	00813823          	sd	s0,16(sp)
    226c:	00913423          	sd	s1,8(sp)
    2270:	00f507b3          	add	a5,a0,a5
    2274:	0003e737          	lui	a4,0x3e
    2278:	02e7ec63          	bltu	a5,a4,22b0 <handle_fault+0x54>
    227c:	10100413          	li	s0,257
    2280:	04100513          	li	a0,65
    2284:	00002497          	auipc	s1,0x2
    2288:	0d448493          	addi	s1,s1,212 # 4358 <memset+0xdc>
    228c:	03041413          	slli	s0,s0,0x30
    2290:	00856533          	or	a0,a0,s0
    2294:	00148493          	addi	s1,s1,1
    2298:	8bcfe0ef          	jal	354 <do_tohost>
    229c:	0004c503          	lbu	a0,0(s1)
    22a0:	fe0518e3          	bnez	a0,2290 <handle_fault+0x34>
    22a4:	00300513          	li	a0,3
    22a8:	8acfe0ef          	jal	354 <do_tohost>
    22ac:	0000006f          	j	22ac <handle_fault+0x50>
    22b0:	00006597          	auipc	a1,0x6
    22b4:	d5058593          	addi	a1,a1,-688 # 8000 <freelist_head>
    22b8:	0005b603          	ld	a2,0(a1)
    22bc:	00c55793          	srli	a5,a0,0xc
    22c0:	00c79793          	slli	a5,a5,0xc
    22c4:	08060a63          	beqz	a2,2358 <handle_fault+0xfc>
    22c8:	00863683          	ld	a3,8(a2) # 1008 <wtf+0xc8c>
    22cc:	00004717          	auipc	a4,0x4
    22d0:	51470713          	addi	a4,a4,1300 # 67e0 <freelist_tail>
    22d4:	00073503          	ld	a0,0(a4)
    22d8:	00d5b023          	sd	a3,0(a1)
    22dc:	10a68a63          	beq	a3,a0,23f0 <handle_fault+0x194>
    22e0:	00063703          	ld	a4,0(a2)
    22e4:	00c7d693          	srli	a3,a5,0xc
    22e8:	00369513          	slli	a0,a3,0x3
    22ec:	00c75713          	srli	a4,a4,0xc
    22f0:	00a71713          	slli	a4,a4,0xa
    22f4:	00009597          	auipc	a1,0x9
    22f8:	d0c58593          	addi	a1,a1,-756 # b000 <user_l3pt>
    22fc:	00a585b3          	add	a1,a1,a0
    2300:	00776713          	ori	a4,a4,7
    2304:	00e5b023          	sd	a4,0(a1)
    2308:	10100073          	sfence.vm
    230c:	00004717          	auipc	a4,0x4
    2310:	0e470713          	addi	a4,a4,228 # 63f0 <user_mapping>
    2314:	00469693          	slli	a3,a3,0x4
    2318:	00d706b3          	add	a3,a4,a3
    231c:	0006b703          	ld	a4,0(a3)
    2320:	06070663          	beqz	a4,238c <handle_fault+0x130>
    2324:	10100413          	li	s0,257
    2328:	04100513          	li	a0,65
    232c:	00002497          	auipc	s1,0x2
    2330:	0fc48493          	addi	s1,s1,252 # 4428 <memset+0x1ac>
    2334:	03041413          	slli	s0,s0,0x30
    2338:	00856533          	or	a0,a0,s0
    233c:	00148493          	addi	s1,s1,1
    2340:	814fe0ef          	jal	354 <do_tohost>
    2344:	0004c503          	lbu	a0,0(s1)
    2348:	fe0518e3          	bnez	a0,2338 <handle_fault+0xdc>
    234c:	00300513          	li	a0,3
    2350:	804fe0ef          	jal	354 <do_tohost>
    2354:	0000006f          	j	2354 <handle_fault+0xf8>
    2358:	10100413          	li	s0,257
    235c:	04100513          	li	a0,65
    2360:	00002497          	auipc	s1,0x2
    2364:	0b048493          	addi	s1,s1,176 # 4410 <memset+0x194>
    2368:	03041413          	slli	s0,s0,0x30
    236c:	00856533          	or	a0,a0,s0
    2370:	00148493          	addi	s1,s1,1
    2374:	fe1fd0ef          	jal	354 <do_tohost>
    2378:	0004c503          	lbu	a0,0(s1)
    237c:	fe0518e3          	bnez	a0,236c <handle_fault+0x110>
    2380:	00300513          	li	a0,3
    2384:	fd1fd0ef          	jal	354 <do_tohost>
    2388:	0000006f          	j	2388 <handle_fault+0x12c>
    238c:	00063583          	ld	a1,0(a2)
    2390:	ffe00737          	lui	a4,0xffe00
    2394:	00e78733          	add	a4,a5,a4
    2398:	00b6b023          	sd	a1,0(a3)
    239c:	00863603          	ld	a2,8(a2)
    23a0:	00c6b423          	sd	a2,8(a3)
    23a4:	000016b7          	lui	a3,0x1
    23a8:	00d706b3          	add	a3,a4,a3
    23ac:	00073803          	ld	a6,0(a4) # ffffffffffe00000 <_end+0xffffffffffdf4000>
    23b0:	00873503          	ld	a0,8(a4)
    23b4:	01073583          	ld	a1,16(a4)
    23b8:	01873603          	ld	a2,24(a4)
    23bc:	0107b023          	sd	a6,0(a5) # fffffffffffff000 <_end+0xffffffffffff3000>
    23c0:	00a7b423          	sd	a0,8(a5)
    23c4:	00b7b823          	sd	a1,16(a5)
    23c8:	00c7bc23          	sd	a2,24(a5)
    23cc:	02070713          	addi	a4,a4,32
    23d0:	02078793          	addi	a5,a5,32
    23d4:	fcd71ce3          	bne	a4,a3,23ac <handle_fault+0x150>
    23d8:	0000100f          	fence.i
    23dc:	01813083          	ld	ra,24(sp)
    23e0:	01013403          	ld	s0,16(sp)
    23e4:	00813483          	ld	s1,8(sp)
    23e8:	02010113          	addi	sp,sp,32
    23ec:	00008067          	ret
    23f0:	00073023          	sd	zero,0(a4)
    23f4:	eedff06f          	j	22e0 <handle_fault+0x84>

00000000000023f8 <handle_trap>:
    23f8:	11853783          	ld	a5,280(a0)
    23fc:	fd010113          	addi	sp,sp,-48
    2400:	02813023          	sd	s0,32(sp)
    2404:	02113423          	sd	ra,40(sp)
    2408:	00913c23          	sd	s1,24(sp)
    240c:	01213823          	sd	s2,16(sp)
    2410:	01313423          	sd	s3,8(sp)
    2414:	00800713          	li	a4,8
    2418:	00050413          	mv	s0,a0
    241c:	0ce78e63          	beq	a5,a4,24f8 <handle_trap+0x100>
    2420:	00100513          	li	a0,1
    2424:	10a78063          	beq	a5,a0,2524 <handle_trap+0x12c>
    2428:	00200713          	li	a4,2
    242c:	04e78263          	beq	a5,a4,2470 <handle_trap+0x78>
    2430:	10100493          	li	s1,257
    2434:	ffd7f793          	andi	a5,a5,-3
    2438:	00500713          	li	a4,5
    243c:	04100513          	li	a0,65
    2440:	00002917          	auipc	s2,0x2
    2444:	08090913          	addi	s2,s2,128 # 44c0 <memset+0x244>
    2448:	03049493          	slli	s1,s1,0x30
    244c:	10e78463          	beq	a5,a4,2554 <handle_trap+0x15c>
    2450:	00956533          	or	a0,a0,s1
    2454:	00190913          	addi	s2,s2,1
    2458:	efdfd0ef          	jal	354 <do_tohost>
    245c:	00094503          	lbu	a0,0(s2)
    2460:	fe0518e3          	bnez	a0,2450 <handle_trap+0x58>
    2464:	00300513          	li	a0,3
    2468:	eedfd0ef          	jal	354 <do_tohost>
    246c:	0000006f          	j	246c <handle_trap+0x74>
    2470:	10843703          	ld	a4,264(s0)
    2474:	00377793          	andi	a5,a4,3
    2478:	04079663          	bnez	a5,24c4 <handle_trap+0xcc>
    247c:	008007ef          	jal	a5,2484 <handle_trap+0x8c>
    2480:	00301073          	fssr	zero
    2484:	00072683          	lw	a3,0(a4)
    2488:	0007a703          	lw	a4,0(a5)
    248c:	10100413          	li	s0,257
    2490:	04100793          	li	a5,65
    2494:	00002497          	auipc	s1,0x2
    2498:	ffc48493          	addi	s1,s1,-4 # 4490 <memset+0x214>
    249c:	03041413          	slli	s0,s0,0x30
    24a0:	0ae68663          	beq	a3,a4,254c <handle_trap+0x154>
    24a4:	0087e533          	or	a0,a5,s0
    24a8:	00148493          	addi	s1,s1,1
    24ac:	ea9fd0ef          	jal	354 <do_tohost>
    24b0:	0004c783          	lbu	a5,0(s1)
    24b4:	fe0798e3          	bnez	a5,24a4 <handle_trap+0xac>
    24b8:	00300513          	li	a0,3
    24bc:	e99fd0ef          	jal	354 <do_tohost>
    24c0:	0000006f          	j	24c0 <handle_trap+0xc8>
    24c4:	10100413          	li	s0,257
    24c8:	04100513          	li	a0,65
    24cc:	00002497          	auipc	s1,0x2
    24d0:	f9c48493          	addi	s1,s1,-100 # 4468 <memset+0x1ec>
    24d4:	03041413          	slli	s0,s0,0x30
    24d8:	00856533          	or	a0,a0,s0
    24dc:	00148493          	addi	s1,s1,1
    24e0:	e75fd0ef          	jal	354 <do_tohost>
    24e4:	0004c503          	lbu	a0,0(s1)
    24e8:	fe0518e3          	bnez	a0,24d8 <handle_trap+0xe0>
    24ec:	00300513          	li	a0,3
    24f0:	e65fd0ef          	jal	354 <do_tohost>
    24f4:	0000006f          	j	24f4 <handle_trap+0xfc>
    24f8:	05052983          	lw	s3,80(a0)
    24fc:	00001437          	lui	s0,0x1
    2500:	00040913          	mv	s2,s0
    2504:	0003f4b7          	lui	s1,0x3f
    2508:	00040513          	mv	a0,s0
    250c:	01240433          	add	s0,s0,s2
    2510:	b75ff0ef          	jal	2084 <evict>
    2514:	fe941ae3          	bne	s0,s1,2508 <handle_trap+0x110>
    2518:	00098513          	mv	a0,s3
    251c:	e39fd0ef          	jal	354 <do_tohost>
    2520:	0000006f          	j	2520 <handle_trap+0x128>
    2524:	10843503          	ld	a0,264(s0) # 1108 <wtf+0xd8c>
    2528:	d35ff0ef          	jal	225c <handle_fault>
    252c:	00040513          	mv	a0,s0
    2530:	02813083          	ld	ra,40(sp)
    2534:	02013403          	ld	s0,32(sp)
    2538:	01813483          	ld	s1,24(sp)
    253c:	01013903          	ld	s2,16(sp)
    2540:	00813983          	ld	s3,8(sp)
    2544:	03010113          	addi	sp,sp,48
    2548:	cd5fd06f          	j	21c <pop_tf>
    254c:	e09fd0ef          	jal	354 <do_tohost>
    2550:	0000006f          	j	2550 <handle_trap+0x158>
    2554:	11043503          	ld	a0,272(s0)
    2558:	d05ff0ef          	jal	225c <handle_fault>
    255c:	fd1ff06f          	j	252c <handle_trap+0x134>

0000000000002560 <vm_boot>:
    2560:	f10027f3          	csrr	a5,mhartid
    2564:	18079463          	bnez	a5,26ec <vm_boot+0x18c>
    2568:	00005717          	auipc	a4,0x5
    256c:	a9870713          	addi	a4,a4,-1384 # 7000 <kernel_l2pt>
    2570:	00007317          	auipc	t1,0x7
    2574:	a9030313          	addi	t1,t1,-1392 # 9000 <user_l2pt>
    2578:	00003817          	auipc	a6,0x3
    257c:	a8880813          	addi	a6,a6,-1400 # 5000 <kernel_l3pt>
    2580:	00c75713          	srli	a4,a4,0xc
    2584:	00009797          	auipc	a5,0x9
    2588:	a7c78793          	addi	a5,a5,-1412 # b000 <user_l3pt>
    258c:	00c85613          	srli	a2,a6,0xc
    2590:	00c35693          	srli	a3,t1,0xc
    2594:	00a71713          	slli	a4,a4,0xa
    2598:	00c7d793          	srli	a5,a5,0xc
    259c:	00176713          	ori	a4,a4,1
    25a0:	00009e17          	auipc	t3,0x9
    25a4:	a60e0e13          	addi	t3,t3,-1440 # b000 <user_l3pt>
    25a8:	00a61613          	slli	a2,a2,0xa
    25ac:	00a69693          	slli	a3,a3,0xa
    25b0:	00a79793          	slli	a5,a5,0xa
    25b4:	00008897          	auipc	a7,0x8
    25b8:	a4c88893          	addi	a7,a7,-1460 # a000 <l1pt>
    25bc:	00166613          	ori	a2,a2,1
    25c0:	0016e693          	ori	a3,a3,1
    25c4:	0017e793          	ori	a5,a5,1
    25c8:	feee3c23          	sd	a4,-8(t3)
    25cc:	00006717          	auipc	a4,0x6
    25d0:	a3470713          	addi	a4,a4,-1484 # 8000 <freelist_head>
    25d4:	fec73c23          	sd	a2,-8(a4)
    25d8:	00d8b023          	sd	a3,0(a7)
    25dc:	00f33023          	sd	a5,0(t1)
    25e0:	18089073          	csrw	sptbr,a7
    25e4:	ffdfe797          	auipc	a5,0xffdfe
    25e8:	cc478793          	addi	a5,a5,-828 # ffffffffffe002a8 <_end+0xffffffffffdf42a8>
    25ec:	10179073          	csrw	stvec,a5
    25f0:	340027f3          	csrr	a5,mscratch
    25f4:	ffe00eb7          	lui	t4,0xffe00
    25f8:	01d787b3          	add	a5,a5,t4
    25fc:	14079073          	csrw	sscratch,a5
    2600:	0000f7b7          	lui	a5,0xf
    2604:	0087879b          	addiw	a5,a5,8
    2608:	3007a7f3          	csrrs	a5,mstatus,a5
    260c:	003e07b7          	lui	a5,0x3e0
    2610:	0307879b          	addiw	a5,a5,48
    2614:	3007b7f3          	csrrc	a5,mstatus,a5
    2618:	001207b7          	lui	a5,0x120
    261c:	3007a7f3          	csrrs	a5,mstatus,a5
    2620:	03f00e13          	li	t3,63
    2624:	03c5e7b3          	rem	a5,a1,t3
    2628:	ffe04697          	auipc	a3,0xffe04
    262c:	9d868693          	addi	a3,a3,-1576 # ffffffffffe06000 <_end+0xffffffffffdfa000>
    2630:	00006717          	auipc	a4,0x6
    2634:	9d070713          	addi	a4,a4,-1584 # 8000 <freelist_head>
    2638:	00d73023          	sd	a3,0(a4)
    263c:	00004f17          	auipc	t5,0x4
    2640:	9c4f0f13          	addi	t5,t5,-1596 # 6000 <freelist_nodes>
    2644:	ffe04697          	auipc	a3,0xffe04
    2648:	d9c68693          	addi	a3,a3,-612 # ffffffffffe063e0 <_end+0xffffffffffdfa3e0>
    264c:	00004717          	auipc	a4,0x4
    2650:	19470713          	addi	a4,a4,404 # 67e0 <freelist_tail>
    2654:	00d73023          	sd	a3,0(a4)
    2658:	010e8e93          	addi	t4,t4,16 # ffffffffffe00010 <_end+0xffffffffffdf4010>
    265c:	000f0713          	mv	a4,t5
    2660:	00000693          	li	a3,0
    2664:	00178793          	addi	a5,a5,1 # 120001 <_end+0x114001>
    2668:	4017d893          	srai	a7,a5,0x1
    266c:	03f78593          	addi	a1,a5,63
    2670:	00a69613          	slli	a2,a3,0xa
    2674:	00f8c7b3          	xor	a5,a7,a5
    2678:	01d70333          	add	t1,a4,t4
    267c:	00c59593          	slli	a1,a1,0xc
    2680:	0017f793          	andi	a5,a5,1
    2684:	01766613          	ori	a2,a2,23
    2688:	00b73023          	sd	a1,0(a4)
    268c:	00673423          	sd	t1,8(a4)
    2690:	00579793          	slli	a5,a5,0x5
    2694:	00c83023          	sd	a2,0(a6)
    2698:	00168693          	addi	a3,a3,1
    269c:	00f8e7b3          	or	a5,a7,a5
    26a0:	01070713          	addi	a4,a4,16
    26a4:	00880813          	addi	a6,a6,8
    26a8:	fdc690e3          	bne	a3,t3,2668 <vm_boot+0x108>
    26ac:	ed010113          	addi	sp,sp,-304
    26b0:	12813023          	sd	s0,288(sp)
    26b4:	12000613          	li	a2,288
    26b8:	00050413          	mv	s0,a0
    26bc:	00000593          	li	a1,0
    26c0:	00010513          	mv	a0,sp
    26c4:	12113423          	sd	ra,296(sp)
    26c8:	3e0f3423          	sd	zero,1000(t5)
    26cc:	3b1010ef          	jal	427c <memset>
    26d0:	34141073          	csrw	mepc,s0
    26d4:	00010513          	mv	a0,sp
    26d8:	b45fd0ef          	jal	21c <pop_tf>
    26dc:	12813083          	ld	ra,296(sp)
    26e0:	12013403          	ld	s0,288(sp)
    26e4:	13010113          	addi	sp,sp,304
    26e8:	00008067          	ret
    26ec:	000057b7          	lui	a5,0x5
    26f0:	00080637          	lui	a2,0x80
    26f4:	c5878793          	addi	a5,a5,-936 # 4c58 <memset+0x9dc>
    26f8:	ffc60613          	addi	a2,a2,-4 # 7fffc <_end+0x73ffc>
    26fc:	01c0006f          	j	2718 <vm_boot+0x1b8>
    2700:	0006a02f          	amoadd.w	zero,zero,(a3)
    2704:	0017d713          	srli	a4,a5,0x1
    2708:	00e7c7b3          	xor	a5,a5,a4
    270c:	0017f793          	andi	a5,a5,1
    2710:	03e79793          	slli	a5,a5,0x3e
    2714:	00f767b3          	or	a5,a4,a5
    2718:	0017f713          	andi	a4,a5,1
    271c:	00c7f6b3          	and	a3,a5,a2
    2720:	fe0710e3          	bnez	a4,2700 <vm_boot+0x1a0>
    2724:	0006a003          	lw	zero,0(a3)
    2728:	fddff06f          	j	2704 <vm_boot+0x1a4>
    272c:	0000                	unimp
    272e:	0000                	unimp
    2730:	0000                	unimp
    2732:	0000                	unimp
    2734:	0000                	unimp
    2736:	0000                	unimp
    2738:	0000                	unimp
    273a:	0000                	unimp
    273c:	0000                	unimp
    273e:	0000                	unimp
    2740:	0000                	unimp
    2742:	0000                	unimp
    2744:	0000                	unimp
    2746:	0000                	unimp
    2748:	0000                	unimp
    274a:	0000                	unimp
    274c:	0000                	unimp
    274e:	0000                	unimp
    2750:	0000                	unimp
    2752:	0000                	unimp
    2754:	0000                	unimp
    2756:	0000                	unimp
    2758:	0000                	unimp
    275a:	0000                	unimp
    275c:	0000                	unimp
    275e:	0000                	unimp
    2760:	0000                	unimp
    2762:	0000                	unimp
    2764:	0000                	unimp
    2766:	0000                	unimp
    2768:	0000                	unimp
    276a:	0000                	unimp
    276c:	0000                	unimp
    276e:	0000                	unimp
    2770:	0000                	unimp
    2772:	0000                	unimp
    2774:	0000                	unimp
    2776:	0000                	unimp
    2778:	0000                	unimp
    277a:	0000                	unimp
    277c:	0000                	unimp
    277e:	0000                	unimp
    2780:	0000                	unimp
    2782:	0000                	unimp
    2784:	0000                	unimp
    2786:	0000                	unimp
    2788:	0000                	unimp
    278a:	0000                	unimp
    278c:	0000                	unimp
    278e:	0000                	unimp
    2790:	0000                	unimp
    2792:	0000                	unimp
    2794:	0000                	unimp
    2796:	0000                	unimp
    2798:	0000                	unimp
    279a:	0000                	unimp
    279c:	0000                	unimp
    279e:	0000                	unimp
    27a0:	0000                	unimp
    27a2:	0000                	unimp
    27a4:	0000                	unimp
    27a6:	0000                	unimp
    27a8:	0000                	unimp
    27aa:	0000                	unimp
    27ac:	0000                	unimp
    27ae:	0000                	unimp
    27b0:	0000                	unimp
    27b2:	0000                	unimp
    27b4:	0000                	unimp
    27b6:	0000                	unimp
    27b8:	0000                	unimp
    27ba:	0000                	unimp
    27bc:	0000                	unimp
    27be:	0000                	unimp
    27c0:	0000                	unimp
    27c2:	0000                	unimp
    27c4:	0000                	unimp
    27c6:	0000                	unimp
    27c8:	0000                	unimp
    27ca:	0000                	unimp
    27cc:	0000                	unimp
    27ce:	0000                	unimp
    27d0:	0000                	unimp
    27d2:	0000                	unimp
    27d4:	0000                	unimp
    27d6:	0000                	unimp
    27d8:	0000                	unimp
    27da:	0000                	unimp
    27dc:	0000                	unimp
    27de:	0000                	unimp
    27e0:	0000                	unimp
    27e2:	0000                	unimp
    27e4:	0000                	unimp
    27e6:	0000                	unimp
    27e8:	0000                	unimp
    27ea:	0000                	unimp
    27ec:	0000                	unimp
    27ee:	0000                	unimp
    27f0:	0000                	unimp
    27f2:	0000                	unimp
    27f4:	0000                	unimp
    27f6:	0000                	unimp
    27f8:	0000                	unimp
    27fa:	0000                	unimp
    27fc:	0000                	unimp
    27fe:	0000                	unimp
    2800:	0000                	unimp
    2802:	0000                	unimp
    2804:	0000                	unimp
    2806:	0000                	unimp
    2808:	0000                	unimp
    280a:	0000                	unimp
    280c:	0000                	unimp
    280e:	0000                	unimp
    2810:	0000                	unimp
    2812:	0000                	unimp
    2814:	0000                	unimp
    2816:	0000                	unimp
    2818:	0000                	unimp
    281a:	0000                	unimp
    281c:	0000                	unimp
    281e:	0000                	unimp
    2820:	0000                	unimp
    2822:	0000                	unimp
    2824:	0000                	unimp
    2826:	0000                	unimp
    2828:	0000                	unimp
    282a:	0000                	unimp
    282c:	0000                	unimp
    282e:	0000                	unimp
    2830:	0000                	unimp
    2832:	0000                	unimp
    2834:	0000                	unimp
    2836:	0000                	unimp
    2838:	0000                	unimp
    283a:	0000                	unimp
    283c:	0000                	unimp
    283e:	0000                	unimp
    2840:	0000                	unimp
    2842:	0000                	unimp
    2844:	0000                	unimp
    2846:	0000                	unimp
    2848:	0000                	unimp
    284a:	0000                	unimp
    284c:	0000                	unimp
    284e:	0000                	unimp
    2850:	0000                	unimp
    2852:	0000                	unimp
    2854:	0000                	unimp
    2856:	0000                	unimp
    2858:	0000                	unimp
    285a:	0000                	unimp
    285c:	0000                	unimp
    285e:	0000                	unimp
    2860:	0000                	unimp
    2862:	0000                	unimp
    2864:	0000                	unimp
    2866:	0000                	unimp
    2868:	0000                	unimp
    286a:	0000                	unimp
    286c:	0000                	unimp
    286e:	0000                	unimp
    2870:	0000                	unimp
    2872:	0000                	unimp
    2874:	0000                	unimp
    2876:	0000                	unimp
    2878:	0000                	unimp
    287a:	0000                	unimp
    287c:	0000                	unimp
    287e:	0000                	unimp
    2880:	0000                	unimp
    2882:	0000                	unimp
    2884:	0000                	unimp
    2886:	0000                	unimp
    2888:	0000                	unimp
    288a:	0000                	unimp
    288c:	0000                	unimp
    288e:	0000                	unimp
    2890:	0000                	unimp
    2892:	0000                	unimp
    2894:	0000                	unimp
    2896:	0000                	unimp
    2898:	0000                	unimp
    289a:	0000                	unimp
    289c:	0000                	unimp
    289e:	0000                	unimp
    28a0:	0000                	unimp
    28a2:	0000                	unimp
    28a4:	0000                	unimp
    28a6:	0000                	unimp
    28a8:	0000                	unimp
    28aa:	0000                	unimp
    28ac:	0000                	unimp
    28ae:	0000                	unimp
    28b0:	0000                	unimp
    28b2:	0000                	unimp
    28b4:	0000                	unimp
    28b6:	0000                	unimp
    28b8:	0000                	unimp
    28ba:	0000                	unimp
    28bc:	0000                	unimp
    28be:	0000                	unimp
    28c0:	0000                	unimp
    28c2:	0000                	unimp
    28c4:	0000                	unimp
    28c6:	0000                	unimp
    28c8:	0000                	unimp
    28ca:	0000                	unimp
    28cc:	0000                	unimp
    28ce:	0000                	unimp
    28d0:	0000                	unimp
    28d2:	0000                	unimp
    28d4:	0000                	unimp
    28d6:	0000                	unimp
    28d8:	0000                	unimp
    28da:	0000                	unimp
    28dc:	0000                	unimp
    28de:	0000                	unimp
    28e0:	0000                	unimp
    28e2:	0000                	unimp
    28e4:	0000                	unimp
    28e6:	0000                	unimp
    28e8:	0000                	unimp
    28ea:	0000                	unimp
    28ec:	0000                	unimp
    28ee:	0000                	unimp
    28f0:	0000                	unimp
    28f2:	0000                	unimp
    28f4:	0000                	unimp
    28f6:	0000                	unimp
    28f8:	0000                	unimp
    28fa:	0000                	unimp
    28fc:	0000                	unimp
    28fe:	0000                	unimp
    2900:	0000                	unimp
    2902:	0000                	unimp
    2904:	0000                	unimp
    2906:	0000                	unimp
    2908:	0000                	unimp
    290a:	0000                	unimp
    290c:	0000                	unimp
    290e:	0000                	unimp
    2910:	0000                	unimp
    2912:	0000                	unimp
    2914:	0000                	unimp
    2916:	0000                	unimp
    2918:	0000                	unimp
    291a:	0000                	unimp
    291c:	0000                	unimp
    291e:	0000                	unimp
    2920:	0000                	unimp
    2922:	0000                	unimp
    2924:	0000                	unimp
    2926:	0000                	unimp
    2928:	0000                	unimp
    292a:	0000                	unimp
    292c:	0000                	unimp
    292e:	0000                	unimp
    2930:	0000                	unimp
    2932:	0000                	unimp
    2934:	0000                	unimp
    2936:	0000                	unimp
    2938:	0000                	unimp
    293a:	0000                	unimp
    293c:	0000                	unimp
    293e:	0000                	unimp
    2940:	0000                	unimp
    2942:	0000                	unimp
    2944:	0000                	unimp
    2946:	0000                	unimp
    2948:	0000                	unimp
    294a:	0000                	unimp
    294c:	0000                	unimp
    294e:	0000                	unimp
    2950:	0000                	unimp
    2952:	0000                	unimp
    2954:	0000                	unimp
    2956:	0000                	unimp
    2958:	0000                	unimp
    295a:	0000                	unimp
    295c:	0000                	unimp
    295e:	0000                	unimp
    2960:	0000                	unimp
    2962:	0000                	unimp
    2964:	0000                	unimp
    2966:	0000                	unimp
    2968:	0000                	unimp
    296a:	0000                	unimp
    296c:	0000                	unimp
    296e:	0000                	unimp
    2970:	0000                	unimp
    2972:	0000                	unimp
    2974:	0000                	unimp
    2976:	0000                	unimp
    2978:	0000                	unimp
    297a:	0000                	unimp
    297c:	0000                	unimp
    297e:	0000                	unimp
    2980:	0000                	unimp
    2982:	0000                	unimp
    2984:	0000                	unimp
    2986:	0000                	unimp
    2988:	0000                	unimp
    298a:	0000                	unimp
    298c:	0000                	unimp
    298e:	0000                	unimp
    2990:	0000                	unimp
    2992:	0000                	unimp
    2994:	0000                	unimp
    2996:	0000                	unimp
    2998:	0000                	unimp
    299a:	0000                	unimp
    299c:	0000                	unimp
    299e:	0000                	unimp
    29a0:	0000                	unimp
    29a2:	0000                	unimp
    29a4:	0000                	unimp
    29a6:	0000                	unimp
    29a8:	0000                	unimp
    29aa:	0000                	unimp
    29ac:	0000                	unimp
    29ae:	0000                	unimp
    29b0:	0000                	unimp
    29b2:	0000                	unimp
    29b4:	0000                	unimp
    29b6:	0000                	unimp
    29b8:	0000                	unimp
    29ba:	0000                	unimp
    29bc:	0000                	unimp
    29be:	0000                	unimp
    29c0:	0000                	unimp
    29c2:	0000                	unimp
    29c4:	0000                	unimp
    29c6:	0000                	unimp
    29c8:	0000                	unimp
    29ca:	0000                	unimp
    29cc:	0000                	unimp
    29ce:	0000                	unimp
    29d0:	0000                	unimp
    29d2:	0000                	unimp
    29d4:	0000                	unimp
    29d6:	0000                	unimp
    29d8:	0000                	unimp
    29da:	0000                	unimp
    29dc:	0000                	unimp
    29de:	0000                	unimp
    29e0:	0000                	unimp
    29e2:	0000                	unimp
    29e4:	0000                	unimp
    29e6:	0000                	unimp
    29e8:	0000                	unimp
    29ea:	0000                	unimp
    29ec:	0000                	unimp
    29ee:	0000                	unimp
    29f0:	0000                	unimp
    29f2:	0000                	unimp
    29f4:	0000                	unimp
    29f6:	0000                	unimp
    29f8:	0000                	unimp
    29fa:	0000                	unimp
    29fc:	0000                	unimp
    29fe:	0000                	unimp
    2a00:	0000                	unimp
    2a02:	0000                	unimp
    2a04:	0000                	unimp
    2a06:	0000                	unimp
    2a08:	0000                	unimp
    2a0a:	0000                	unimp
    2a0c:	0000                	unimp
    2a0e:	0000                	unimp
    2a10:	0000                	unimp
    2a12:	0000                	unimp
    2a14:	0000                	unimp
    2a16:	0000                	unimp
    2a18:	0000                	unimp
    2a1a:	0000                	unimp
    2a1c:	0000                	unimp
    2a1e:	0000                	unimp
    2a20:	0000                	unimp
    2a22:	0000                	unimp
    2a24:	0000                	unimp
    2a26:	0000                	unimp
    2a28:	0000                	unimp
    2a2a:	0000                	unimp
    2a2c:	0000                	unimp
    2a2e:	0000                	unimp
    2a30:	0000                	unimp
    2a32:	0000                	unimp
    2a34:	0000                	unimp
    2a36:	0000                	unimp
    2a38:	0000                	unimp
    2a3a:	0000                	unimp
    2a3c:	0000                	unimp
    2a3e:	0000                	unimp
    2a40:	0000                	unimp
    2a42:	0000                	unimp
    2a44:	0000                	unimp
    2a46:	0000                	unimp
    2a48:	0000                	unimp
    2a4a:	0000                	unimp
    2a4c:	0000                	unimp
    2a4e:	0000                	unimp
    2a50:	0000                	unimp
    2a52:	0000                	unimp
    2a54:	0000                	unimp
    2a56:	0000                	unimp
    2a58:	0000                	unimp
    2a5a:	0000                	unimp
    2a5c:	0000                	unimp
    2a5e:	0000                	unimp
    2a60:	0000                	unimp
    2a62:	0000                	unimp
    2a64:	0000                	unimp
    2a66:	0000                	unimp
    2a68:	0000                	unimp
    2a6a:	0000                	unimp
    2a6c:	0000                	unimp
    2a6e:	0000                	unimp
    2a70:	0000                	unimp
    2a72:	0000                	unimp
    2a74:	0000                	unimp
    2a76:	0000                	unimp
    2a78:	0000                	unimp
    2a7a:	0000                	unimp
    2a7c:	0000                	unimp
    2a7e:	0000                	unimp
    2a80:	0000                	unimp
    2a82:	0000                	unimp
    2a84:	0000                	unimp
    2a86:	0000                	unimp
    2a88:	0000                	unimp
    2a8a:	0000                	unimp
    2a8c:	0000                	unimp
    2a8e:	0000                	unimp
    2a90:	0000                	unimp
    2a92:	0000                	unimp
    2a94:	0000                	unimp
    2a96:	0000                	unimp
    2a98:	0000                	unimp
    2a9a:	0000                	unimp
    2a9c:	0000                	unimp
    2a9e:	0000                	unimp
    2aa0:	0000                	unimp
    2aa2:	0000                	unimp
    2aa4:	0000                	unimp
    2aa6:	0000                	unimp
    2aa8:	0000                	unimp
    2aaa:	0000                	unimp
    2aac:	0000                	unimp
    2aae:	0000                	unimp
    2ab0:	0000                	unimp
    2ab2:	0000                	unimp
    2ab4:	0000                	unimp
    2ab6:	0000                	unimp
    2ab8:	0000                	unimp
    2aba:	0000                	unimp
    2abc:	0000                	unimp
    2abe:	0000                	unimp
    2ac0:	0000                	unimp
    2ac2:	0000                	unimp
    2ac4:	0000                	unimp
    2ac6:	0000                	unimp
    2ac8:	0000                	unimp
    2aca:	0000                	unimp
    2acc:	0000                	unimp
    2ace:	0000                	unimp
    2ad0:	0000                	unimp
    2ad2:	0000                	unimp
    2ad4:	0000                	unimp
    2ad6:	0000                	unimp
    2ad8:	0000                	unimp
    2ada:	0000                	unimp
    2adc:	0000                	unimp
    2ade:	0000                	unimp
    2ae0:	0000                	unimp
    2ae2:	0000                	unimp
    2ae4:	0000                	unimp
    2ae6:	0000                	unimp
    2ae8:	0000                	unimp
    2aea:	0000                	unimp
    2aec:	0000                	unimp
    2aee:	0000                	unimp
    2af0:	0000                	unimp
    2af2:	0000                	unimp
    2af4:	0000                	unimp
    2af6:	0000                	unimp
    2af8:	0000                	unimp
    2afa:	0000                	unimp
    2afc:	0000                	unimp
    2afe:	0000                	unimp
    2b00:	0000                	unimp
    2b02:	0000                	unimp
    2b04:	0000                	unimp
    2b06:	0000                	unimp
    2b08:	0000                	unimp
    2b0a:	0000                	unimp
    2b0c:	0000                	unimp
    2b0e:	0000                	unimp
    2b10:	0000                	unimp
    2b12:	0000                	unimp
    2b14:	0000                	unimp
    2b16:	0000                	unimp
    2b18:	0000                	unimp
    2b1a:	0000                	unimp
    2b1c:	0000                	unimp
    2b1e:	0000                	unimp
    2b20:	0000                	unimp
    2b22:	0000                	unimp
    2b24:	0000                	unimp
    2b26:	0000                	unimp
    2b28:	0000                	unimp
    2b2a:	0000                	unimp
    2b2c:	0000                	unimp
    2b2e:	0000                	unimp
    2b30:	0000                	unimp
    2b32:	0000                	unimp
    2b34:	0000                	unimp
    2b36:	0000                	unimp
    2b38:	0000                	unimp
    2b3a:	0000                	unimp
    2b3c:	0000                	unimp
    2b3e:	0000                	unimp
    2b40:	0000                	unimp
    2b42:	0000                	unimp
    2b44:	0000                	unimp
    2b46:	0000                	unimp
    2b48:	0000                	unimp
    2b4a:	0000                	unimp
    2b4c:	0000                	unimp
    2b4e:	0000                	unimp
    2b50:	0000                	unimp
    2b52:	0000                	unimp
    2b54:	0000                	unimp
    2b56:	0000                	unimp
    2b58:	0000                	unimp
    2b5a:	0000                	unimp
    2b5c:	0000                	unimp
    2b5e:	0000                	unimp
    2b60:	0000                	unimp
    2b62:	0000                	unimp
    2b64:	0000                	unimp
    2b66:	0000                	unimp
    2b68:	0000                	unimp
    2b6a:	0000                	unimp
    2b6c:	0000                	unimp
    2b6e:	0000                	unimp
    2b70:	0000                	unimp
    2b72:	0000                	unimp
    2b74:	0000                	unimp
    2b76:	0000                	unimp
    2b78:	0000                	unimp
    2b7a:	0000                	unimp
    2b7c:	0000                	unimp
    2b7e:	0000                	unimp
    2b80:	0000                	unimp
    2b82:	0000                	unimp
    2b84:	0000                	unimp
    2b86:	0000                	unimp
    2b88:	0000                	unimp
    2b8a:	0000                	unimp
    2b8c:	0000                	unimp
    2b8e:	0000                	unimp
    2b90:	0000                	unimp
    2b92:	0000                	unimp
    2b94:	0000                	unimp
    2b96:	0000                	unimp
    2b98:	0000                	unimp
    2b9a:	0000                	unimp
    2b9c:	0000                	unimp
    2b9e:	0000                	unimp
    2ba0:	0000                	unimp
    2ba2:	0000                	unimp
    2ba4:	0000                	unimp
    2ba6:	0000                	unimp
    2ba8:	0000                	unimp
    2baa:	0000                	unimp
    2bac:	0000                	unimp
    2bae:	0000                	unimp
    2bb0:	0000                	unimp
    2bb2:	0000                	unimp
    2bb4:	0000                	unimp
    2bb6:	0000                	unimp
    2bb8:	0000                	unimp
    2bba:	0000                	unimp
    2bbc:	0000                	unimp
    2bbe:	0000                	unimp
    2bc0:	0000                	unimp
    2bc2:	0000                	unimp
    2bc4:	0000                	unimp
    2bc6:	0000                	unimp
    2bc8:	0000                	unimp
    2bca:	0000                	unimp
    2bcc:	0000                	unimp
    2bce:	0000                	unimp
    2bd0:	0000                	unimp
    2bd2:	0000                	unimp
    2bd4:	0000                	unimp
    2bd6:	0000                	unimp
    2bd8:	0000                	unimp
    2bda:	0000                	unimp
    2bdc:	0000                	unimp
    2bde:	0000                	unimp
    2be0:	0000                	unimp
    2be2:	0000                	unimp
    2be4:	0000                	unimp
    2be6:	0000                	unimp
    2be8:	0000                	unimp
    2bea:	0000                	unimp
    2bec:	0000                	unimp
    2bee:	0000                	unimp
    2bf0:	0000                	unimp
    2bf2:	0000                	unimp
    2bf4:	0000                	unimp
    2bf6:	0000                	unimp
    2bf8:	0000                	unimp
    2bfa:	0000                	unimp
    2bfc:	0000                	unimp
    2bfe:	0000                	unimp
    2c00:	0000                	unimp
    2c02:	0000                	unimp
    2c04:	0000                	unimp
    2c06:	0000                	unimp
    2c08:	0000                	unimp
    2c0a:	0000                	unimp
    2c0c:	0000                	unimp
    2c0e:	0000                	unimp
    2c10:	0000                	unimp
    2c12:	0000                	unimp
    2c14:	0000                	unimp
    2c16:	0000                	unimp
    2c18:	0000                	unimp
    2c1a:	0000                	unimp
    2c1c:	0000                	unimp
    2c1e:	0000                	unimp
    2c20:	0000                	unimp
    2c22:	0000                	unimp
    2c24:	0000                	unimp
    2c26:	0000                	unimp
    2c28:	0000                	unimp
    2c2a:	0000                	unimp
    2c2c:	0000                	unimp
    2c2e:	0000                	unimp
    2c30:	0000                	unimp
    2c32:	0000                	unimp
    2c34:	0000                	unimp
    2c36:	0000                	unimp
    2c38:	0000                	unimp
    2c3a:	0000                	unimp
    2c3c:	0000                	unimp
    2c3e:	0000                	unimp
    2c40:	0000                	unimp
    2c42:	0000                	unimp
    2c44:	0000                	unimp
    2c46:	0000                	unimp
    2c48:	0000                	unimp
    2c4a:	0000                	unimp
    2c4c:	0000                	unimp
    2c4e:	0000                	unimp
    2c50:	0000                	unimp
    2c52:	0000                	unimp
    2c54:	0000                	unimp
    2c56:	0000                	unimp
    2c58:	0000                	unimp
    2c5a:	0000                	unimp
    2c5c:	0000                	unimp
    2c5e:	0000                	unimp
    2c60:	0000                	unimp
    2c62:	0000                	unimp
    2c64:	0000                	unimp
    2c66:	0000                	unimp
    2c68:	0000                	unimp
    2c6a:	0000                	unimp
    2c6c:	0000                	unimp
    2c6e:	0000                	unimp
    2c70:	0000                	unimp
    2c72:	0000                	unimp
    2c74:	0000                	unimp
    2c76:	0000                	unimp
    2c78:	0000                	unimp
    2c7a:	0000                	unimp
    2c7c:	0000                	unimp
    2c7e:	0000                	unimp
    2c80:	0000                	unimp
    2c82:	0000                	unimp
    2c84:	0000                	unimp
    2c86:	0000                	unimp
    2c88:	0000                	unimp
    2c8a:	0000                	unimp
    2c8c:	0000                	unimp
    2c8e:	0000                	unimp
    2c90:	0000                	unimp
    2c92:	0000                	unimp
    2c94:	0000                	unimp
    2c96:	0000                	unimp
    2c98:	0000                	unimp
    2c9a:	0000                	unimp
    2c9c:	0000                	unimp
    2c9e:	0000                	unimp
    2ca0:	0000                	unimp
    2ca2:	0000                	unimp
    2ca4:	0000                	unimp
    2ca6:	0000                	unimp
    2ca8:	0000                	unimp
    2caa:	0000                	unimp
    2cac:	0000                	unimp
    2cae:	0000                	unimp
    2cb0:	0000                	unimp
    2cb2:	0000                	unimp
    2cb4:	0000                	unimp
    2cb6:	0000                	unimp
    2cb8:	0000                	unimp
    2cba:	0000                	unimp
    2cbc:	0000                	unimp
    2cbe:	0000                	unimp
    2cc0:	0000                	unimp
    2cc2:	0000                	unimp
    2cc4:	0000                	unimp
    2cc6:	0000                	unimp
    2cc8:	0000                	unimp
    2cca:	0000                	unimp
    2ccc:	0000                	unimp
    2cce:	0000                	unimp
    2cd0:	0000                	unimp
    2cd2:	0000                	unimp
    2cd4:	0000                	unimp
    2cd6:	0000                	unimp
    2cd8:	0000                	unimp
    2cda:	0000                	unimp
    2cdc:	0000                	unimp
    2cde:	0000                	unimp
    2ce0:	0000                	unimp
    2ce2:	0000                	unimp
    2ce4:	0000                	unimp
    2ce6:	0000                	unimp
    2ce8:	0000                	unimp
    2cea:	0000                	unimp
    2cec:	0000                	unimp
    2cee:	0000                	unimp
    2cf0:	0000                	unimp
    2cf2:	0000                	unimp
    2cf4:	0000                	unimp
    2cf6:	0000                	unimp
    2cf8:	0000                	unimp
    2cfa:	0000                	unimp
    2cfc:	0000                	unimp
    2cfe:	0000                	unimp
    2d00:	0000                	unimp
    2d02:	0000                	unimp
    2d04:	0000                	unimp
    2d06:	0000                	unimp
    2d08:	0000                	unimp
    2d0a:	0000                	unimp
    2d0c:	0000                	unimp
    2d0e:	0000                	unimp
    2d10:	0000                	unimp
    2d12:	0000                	unimp
    2d14:	0000                	unimp
    2d16:	0000                	unimp
    2d18:	0000                	unimp
    2d1a:	0000                	unimp
    2d1c:	0000                	unimp
    2d1e:	0000                	unimp
    2d20:	0000                	unimp
    2d22:	0000                	unimp
    2d24:	0000                	unimp
    2d26:	0000                	unimp
    2d28:	0000                	unimp
    2d2a:	0000                	unimp
    2d2c:	0000                	unimp
    2d2e:	0000                	unimp
    2d30:	0000                	unimp
    2d32:	0000                	unimp
    2d34:	0000                	unimp
    2d36:	0000                	unimp
    2d38:	0000                	unimp
    2d3a:	0000                	unimp
    2d3c:	0000                	unimp
    2d3e:	0000                	unimp
    2d40:	0000                	unimp
    2d42:	0000                	unimp
    2d44:	0000                	unimp
    2d46:	0000                	unimp
    2d48:	0000                	unimp
    2d4a:	0000                	unimp
    2d4c:	0000                	unimp
    2d4e:	0000                	unimp
    2d50:	0000                	unimp
    2d52:	0000                	unimp
    2d54:	0000                	unimp
    2d56:	0000                	unimp
    2d58:	0000                	unimp
    2d5a:	0000                	unimp
    2d5c:	0000                	unimp
    2d5e:	0000                	unimp
    2d60:	0000                	unimp
    2d62:	0000                	unimp
    2d64:	0000                	unimp
    2d66:	0000                	unimp
    2d68:	0000                	unimp
    2d6a:	0000                	unimp
    2d6c:	0000                	unimp
    2d6e:	0000                	unimp
    2d70:	0000                	unimp
    2d72:	0000                	unimp
    2d74:	0000                	unimp
    2d76:	0000                	unimp
    2d78:	0000                	unimp
    2d7a:	0000                	unimp
    2d7c:	0000                	unimp
    2d7e:	0000                	unimp
    2d80:	0000                	unimp
    2d82:	0000                	unimp
    2d84:	0000                	unimp
    2d86:	0000                	unimp
    2d88:	0000                	unimp
    2d8a:	0000                	unimp
    2d8c:	0000                	unimp
    2d8e:	0000                	unimp
    2d90:	0000                	unimp
    2d92:	0000                	unimp
    2d94:	0000                	unimp
    2d96:	0000                	unimp
    2d98:	0000                	unimp
    2d9a:	0000                	unimp
    2d9c:	0000                	unimp
    2d9e:	0000                	unimp
    2da0:	0000                	unimp
    2da2:	0000                	unimp
    2da4:	0000                	unimp
    2da6:	0000                	unimp
    2da8:	0000                	unimp
    2daa:	0000                	unimp
    2dac:	0000                	unimp
    2dae:	0000                	unimp
    2db0:	0000                	unimp
    2db2:	0000                	unimp
    2db4:	0000                	unimp
    2db6:	0000                	unimp
    2db8:	0000                	unimp
    2dba:	0000                	unimp
    2dbc:	0000                	unimp
    2dbe:	0000                	unimp
    2dc0:	0000                	unimp
    2dc2:	0000                	unimp
    2dc4:	0000                	unimp
    2dc6:	0000                	unimp
    2dc8:	0000                	unimp
    2dca:	0000                	unimp
    2dcc:	0000                	unimp
    2dce:	0000                	unimp
    2dd0:	0000                	unimp
    2dd2:	0000                	unimp
    2dd4:	0000                	unimp
    2dd6:	0000                	unimp
    2dd8:	0000                	unimp
    2dda:	0000                	unimp
    2ddc:	0000                	unimp
    2dde:	0000                	unimp
    2de0:	0000                	unimp
    2de2:	0000                	unimp
    2de4:	0000                	unimp
    2de6:	0000                	unimp
    2de8:	0000                	unimp
    2dea:	0000                	unimp
    2dec:	0000                	unimp
    2dee:	0000                	unimp
    2df0:	0000                	unimp
    2df2:	0000                	unimp
    2df4:	0000                	unimp
    2df6:	0000                	unimp
    2df8:	0000                	unimp
    2dfa:	0000                	unimp
    2dfc:	0000                	unimp
    2dfe:	0000                	unimp
    2e00:	0000                	unimp
    2e02:	0000                	unimp
    2e04:	0000                	unimp
    2e06:	0000                	unimp
    2e08:	0000                	unimp
    2e0a:	0000                	unimp
    2e0c:	0000                	unimp
    2e0e:	0000                	unimp
    2e10:	0000                	unimp
    2e12:	0000                	unimp
    2e14:	0000                	unimp
    2e16:	0000                	unimp
    2e18:	0000                	unimp
    2e1a:	0000                	unimp
    2e1c:	0000                	unimp
    2e1e:	0000                	unimp
    2e20:	0000                	unimp
    2e22:	0000                	unimp
    2e24:	0000                	unimp
    2e26:	0000                	unimp
    2e28:	0000                	unimp
    2e2a:	0000                	unimp
    2e2c:	0000                	unimp
    2e2e:	0000                	unimp
    2e30:	0000                	unimp
    2e32:	0000                	unimp
    2e34:	0000                	unimp
    2e36:	0000                	unimp
    2e38:	0000                	unimp
    2e3a:	0000                	unimp
    2e3c:	0000                	unimp
    2e3e:	0000                	unimp
    2e40:	0000                	unimp
    2e42:	0000                	unimp
    2e44:	0000                	unimp
    2e46:	0000                	unimp
    2e48:	0000                	unimp
    2e4a:	0000                	unimp
    2e4c:	0000                	unimp
    2e4e:	0000                	unimp
    2e50:	0000                	unimp
    2e52:	0000                	unimp
    2e54:	0000                	unimp
    2e56:	0000                	unimp
    2e58:	0000                	unimp
    2e5a:	0000                	unimp
    2e5c:	0000                	unimp
    2e5e:	0000                	unimp
    2e60:	0000                	unimp
    2e62:	0000                	unimp
    2e64:	0000                	unimp
    2e66:	0000                	unimp
    2e68:	0000                	unimp
    2e6a:	0000                	unimp
    2e6c:	0000                	unimp
    2e6e:	0000                	unimp
    2e70:	0000                	unimp
    2e72:	0000                	unimp
    2e74:	0000                	unimp
    2e76:	0000                	unimp
    2e78:	0000                	unimp
    2e7a:	0000                	unimp
    2e7c:	0000                	unimp
    2e7e:	0000                	unimp
    2e80:	0000                	unimp
    2e82:	0000                	unimp
    2e84:	0000                	unimp
    2e86:	0000                	unimp
    2e88:	0000                	unimp
    2e8a:	0000                	unimp
    2e8c:	0000                	unimp
    2e8e:	0000                	unimp
    2e90:	0000                	unimp
    2e92:	0000                	unimp
    2e94:	0000                	unimp
    2e96:	0000                	unimp
    2e98:	0000                	unimp
    2e9a:	0000                	unimp
    2e9c:	0000                	unimp
    2e9e:	0000                	unimp
    2ea0:	0000                	unimp
    2ea2:	0000                	unimp
    2ea4:	0000                	unimp
    2ea6:	0000                	unimp
    2ea8:	0000                	unimp
    2eaa:	0000                	unimp
    2eac:	0000                	unimp
    2eae:	0000                	unimp
    2eb0:	0000                	unimp
    2eb2:	0000                	unimp
    2eb4:	0000                	unimp
    2eb6:	0000                	unimp
    2eb8:	0000                	unimp
    2eba:	0000                	unimp
    2ebc:	0000                	unimp
    2ebe:	0000                	unimp
    2ec0:	0000                	unimp
    2ec2:	0000                	unimp
    2ec4:	0000                	unimp
    2ec6:	0000                	unimp
    2ec8:	0000                	unimp
    2eca:	0000                	unimp
    2ecc:	0000                	unimp
    2ece:	0000                	unimp
    2ed0:	0000                	unimp
    2ed2:	0000                	unimp
    2ed4:	0000                	unimp
    2ed6:	0000                	unimp
    2ed8:	0000                	unimp
    2eda:	0000                	unimp
    2edc:	0000                	unimp
    2ede:	0000                	unimp
    2ee0:	0000                	unimp
    2ee2:	0000                	unimp
    2ee4:	0000                	unimp
    2ee6:	0000                	unimp
    2ee8:	0000                	unimp
    2eea:	0000                	unimp
    2eec:	0000                	unimp
    2eee:	0000                	unimp
    2ef0:	0000                	unimp
    2ef2:	0000                	unimp
    2ef4:	0000                	unimp
    2ef6:	0000                	unimp
    2ef8:	0000                	unimp
    2efa:	0000                	unimp
    2efc:	0000                	unimp
    2efe:	0000                	unimp
    2f00:	0000                	unimp
    2f02:	0000                	unimp
    2f04:	0000                	unimp
    2f06:	0000                	unimp
    2f08:	0000                	unimp
    2f0a:	0000                	unimp
    2f0c:	0000                	unimp
    2f0e:	0000                	unimp
    2f10:	0000                	unimp
    2f12:	0000                	unimp
    2f14:	0000                	unimp
    2f16:	0000                	unimp
    2f18:	0000                	unimp
    2f1a:	0000                	unimp
    2f1c:	0000                	unimp
    2f1e:	0000                	unimp
    2f20:	0000                	unimp
    2f22:	0000                	unimp
    2f24:	0000                	unimp
    2f26:	0000                	unimp
    2f28:	0000                	unimp
    2f2a:	0000                	unimp
    2f2c:	0000                	unimp
    2f2e:	0000                	unimp
    2f30:	0000                	unimp
    2f32:	0000                	unimp
    2f34:	0000                	unimp
    2f36:	0000                	unimp
    2f38:	0000                	unimp
    2f3a:	0000                	unimp
    2f3c:	0000                	unimp
    2f3e:	0000                	unimp
    2f40:	0000                	unimp
    2f42:	0000                	unimp
    2f44:	0000                	unimp
    2f46:	0000                	unimp
    2f48:	0000                	unimp
    2f4a:	0000                	unimp
    2f4c:	0000                	unimp
    2f4e:	0000                	unimp
    2f50:	0000                	unimp
    2f52:	0000                	unimp
    2f54:	0000                	unimp
    2f56:	0000                	unimp
    2f58:	0000                	unimp
    2f5a:	0000                	unimp
    2f5c:	0000                	unimp
    2f5e:	0000                	unimp
    2f60:	0000                	unimp
    2f62:	0000                	unimp
    2f64:	0000                	unimp
    2f66:	0000                	unimp
    2f68:	0000                	unimp
    2f6a:	0000                	unimp
    2f6c:	0000                	unimp
    2f6e:	0000                	unimp
    2f70:	0000                	unimp
    2f72:	0000                	unimp
    2f74:	0000                	unimp
    2f76:	0000                	unimp
    2f78:	0000                	unimp
    2f7a:	0000                	unimp
    2f7c:	0000                	unimp
    2f7e:	0000                	unimp
    2f80:	0000                	unimp
    2f82:	0000                	unimp
    2f84:	0000                	unimp
    2f86:	0000                	unimp
    2f88:	0000                	unimp
    2f8a:	0000                	unimp
    2f8c:	0000                	unimp
    2f8e:	0000                	unimp
    2f90:	0000                	unimp
    2f92:	0000                	unimp
    2f94:	0000                	unimp
    2f96:	0000                	unimp
    2f98:	0000                	unimp
    2f9a:	0000                	unimp
    2f9c:	0000                	unimp
    2f9e:	0000                	unimp
    2fa0:	0000                	unimp
    2fa2:	0000                	unimp
    2fa4:	0000                	unimp
    2fa6:	0000                	unimp
    2fa8:	0000                	unimp
    2faa:	0000                	unimp
    2fac:	0000                	unimp
    2fae:	0000                	unimp
    2fb0:	0000                	unimp
    2fb2:	0000                	unimp
    2fb4:	0000                	unimp
    2fb6:	0000                	unimp
    2fb8:	0000                	unimp
    2fba:	0000                	unimp
    2fbc:	0000                	unimp
    2fbe:	0000                	unimp
    2fc0:	0000                	unimp
    2fc2:	0000                	unimp
    2fc4:	0000                	unimp
    2fc6:	0000                	unimp
    2fc8:	0000                	unimp
    2fca:	0000                	unimp
    2fcc:	0000                	unimp
    2fce:	0000                	unimp
    2fd0:	0000                	unimp
    2fd2:	0000                	unimp
    2fd4:	0000                	unimp
    2fd6:	0000                	unimp
    2fd8:	0000                	unimp
    2fda:	0000                	unimp
    2fdc:	0000                	unimp
    2fde:	0000                	unimp
    2fe0:	0000                	unimp
    2fe2:	0000                	unimp
    2fe4:	0000                	unimp
    2fe6:	0000                	unimp
    2fe8:	0000                	unimp
    2fea:	0000                	unimp
    2fec:	0000                	unimp
    2fee:	0000                	unimp
    2ff0:	0000                	unimp
    2ff2:	0000                	unimp
    2ff4:	0000                	unimp
    2ff6:	0000                	unimp
    2ff8:	0000                	unimp
    2ffa:	0000                	unimp
    2ffc:	0000                	unimp
    2ffe:	0000                	unimp
    3000:	0000                	unimp
    3002:	0000                	unimp
    3004:	0000                	unimp
    3006:	0000                	unimp
    3008:	0000                	unimp
    300a:	0000                	unimp
    300c:	0000                	unimp
    300e:	0000                	unimp
    3010:	0000                	unimp
    3012:	0000                	unimp
    3014:	0000                	unimp
    3016:	0000                	unimp
    3018:	0000                	unimp
    301a:	0000                	unimp
    301c:	0000                	unimp
    301e:	0000                	unimp
    3020:	0000                	unimp
    3022:	0000                	unimp
    3024:	0000                	unimp
    3026:	0000                	unimp
    3028:	0000                	unimp
    302a:	0000                	unimp
    302c:	0000                	unimp
    302e:	0000                	unimp
    3030:	0000                	unimp
    3032:	0000                	unimp
    3034:	0000                	unimp
    3036:	0000                	unimp
    3038:	0000                	unimp
    303a:	0000                	unimp
    303c:	0000                	unimp
    303e:	0000                	unimp
    3040:	0000                	unimp
    3042:	0000                	unimp
    3044:	0000                	unimp
    3046:	0000                	unimp
    3048:	0000                	unimp
    304a:	0000                	unimp
    304c:	0000                	unimp
    304e:	0000                	unimp
    3050:	0000                	unimp
    3052:	0000                	unimp
    3054:	0000                	unimp
    3056:	0000                	unimp
    3058:	0000                	unimp
    305a:	0000                	unimp
    305c:	0000                	unimp
    305e:	0000                	unimp
    3060:	0000                	unimp
    3062:	0000                	unimp
    3064:	0000                	unimp
    3066:	0000                	unimp
    3068:	0000                	unimp
    306a:	0000                	unimp
    306c:	0000                	unimp
    306e:	0000                	unimp
    3070:	0000                	unimp
    3072:	0000                	unimp
    3074:	0000                	unimp
    3076:	0000                	unimp
    3078:	0000                	unimp
    307a:	0000                	unimp
    307c:	0000                	unimp
    307e:	0000                	unimp
    3080:	0000                	unimp
    3082:	0000                	unimp
    3084:	0000                	unimp
    3086:	0000                	unimp
    3088:	0000                	unimp
    308a:	0000                	unimp
    308c:	0000                	unimp
    308e:	0000                	unimp
    3090:	0000                	unimp
    3092:	0000                	unimp
    3094:	0000                	unimp
    3096:	0000                	unimp
    3098:	0000                	unimp
    309a:	0000                	unimp
    309c:	0000                	unimp
    309e:	0000                	unimp
    30a0:	0000                	unimp
    30a2:	0000                	unimp
    30a4:	0000                	unimp
    30a6:	0000                	unimp
    30a8:	0000                	unimp
    30aa:	0000                	unimp
    30ac:	0000                	unimp
    30ae:	0000                	unimp
    30b0:	0000                	unimp
    30b2:	0000                	unimp
    30b4:	0000                	unimp
    30b6:	0000                	unimp
    30b8:	0000                	unimp
    30ba:	0000                	unimp
    30bc:	0000                	unimp
    30be:	0000                	unimp
    30c0:	0000                	unimp
    30c2:	0000                	unimp
    30c4:	0000                	unimp
    30c6:	0000                	unimp
    30c8:	0000                	unimp
    30ca:	0000                	unimp
    30cc:	0000                	unimp
    30ce:	0000                	unimp
    30d0:	0000                	unimp
    30d2:	0000                	unimp
    30d4:	0000                	unimp
    30d6:	0000                	unimp
    30d8:	0000                	unimp
    30da:	0000                	unimp
    30dc:	0000                	unimp
    30de:	0000                	unimp
    30e0:	0000                	unimp
    30e2:	0000                	unimp
    30e4:	0000                	unimp
    30e6:	0000                	unimp
    30e8:	0000                	unimp
    30ea:	0000                	unimp
    30ec:	0000                	unimp
    30ee:	0000                	unimp
    30f0:	0000                	unimp
    30f2:	0000                	unimp
    30f4:	0000                	unimp
    30f6:	0000                	unimp
    30f8:	0000                	unimp
    30fa:	0000                	unimp
    30fc:	0000                	unimp
    30fe:	0000                	unimp
    3100:	0000                	unimp
    3102:	0000                	unimp
    3104:	0000                	unimp
    3106:	0000                	unimp
    3108:	0000                	unimp
    310a:	0000                	unimp
    310c:	0000                	unimp
    310e:	0000                	unimp
    3110:	0000                	unimp
    3112:	0000                	unimp
    3114:	0000                	unimp
    3116:	0000                	unimp
    3118:	0000                	unimp
    311a:	0000                	unimp
    311c:	0000                	unimp
    311e:	0000                	unimp
    3120:	0000                	unimp
    3122:	0000                	unimp
    3124:	0000                	unimp
    3126:	0000                	unimp
    3128:	0000                	unimp
    312a:	0000                	unimp
    312c:	0000                	unimp
    312e:	0000                	unimp
    3130:	0000                	unimp
    3132:	0000                	unimp
    3134:	0000                	unimp
    3136:	0000                	unimp
    3138:	0000                	unimp
    313a:	0000                	unimp
    313c:	0000                	unimp
    313e:	0000                	unimp
    3140:	0000                	unimp
    3142:	0000                	unimp
    3144:	0000                	unimp
    3146:	0000                	unimp
    3148:	0000                	unimp
    314a:	0000                	unimp
    314c:	0000                	unimp
    314e:	0000                	unimp
    3150:	0000                	unimp
    3152:	0000                	unimp
    3154:	0000                	unimp
    3156:	0000                	unimp
    3158:	0000                	unimp
    315a:	0000                	unimp
    315c:	0000                	unimp
    315e:	0000                	unimp
    3160:	0000                	unimp
    3162:	0000                	unimp
    3164:	0000                	unimp
    3166:	0000                	unimp
    3168:	0000                	unimp
    316a:	0000                	unimp
    316c:	0000                	unimp
    316e:	0000                	unimp
    3170:	0000                	unimp
    3172:	0000                	unimp
    3174:	0000                	unimp
    3176:	0000                	unimp
    3178:	0000                	unimp
    317a:	0000                	unimp
    317c:	0000                	unimp
    317e:	0000                	unimp
    3180:	0000                	unimp
    3182:	0000                	unimp
    3184:	0000                	unimp
    3186:	0000                	unimp
    3188:	0000                	unimp
    318a:	0000                	unimp
    318c:	0000                	unimp
    318e:	0000                	unimp
    3190:	0000                	unimp
    3192:	0000                	unimp
    3194:	0000                	unimp
    3196:	0000                	unimp
    3198:	0000                	unimp
    319a:	0000                	unimp
    319c:	0000                	unimp
    319e:	0000                	unimp
    31a0:	0000                	unimp
    31a2:	0000                	unimp
    31a4:	0000                	unimp
    31a6:	0000                	unimp
    31a8:	0000                	unimp
    31aa:	0000                	unimp
    31ac:	0000                	unimp
    31ae:	0000                	unimp
    31b0:	0000                	unimp
    31b2:	0000                	unimp
    31b4:	0000                	unimp
    31b6:	0000                	unimp
    31b8:	0000                	unimp
    31ba:	0000                	unimp
    31bc:	0000                	unimp
    31be:	0000                	unimp
    31c0:	0000                	unimp
    31c2:	0000                	unimp
    31c4:	0000                	unimp
    31c6:	0000                	unimp
    31c8:	0000                	unimp
    31ca:	0000                	unimp
    31cc:	0000                	unimp
    31ce:	0000                	unimp
    31d0:	0000                	unimp
    31d2:	0000                	unimp
    31d4:	0000                	unimp
    31d6:	0000                	unimp
    31d8:	0000                	unimp
    31da:	0000                	unimp
    31dc:	0000                	unimp
    31de:	0000                	unimp
    31e0:	0000                	unimp
    31e2:	0000                	unimp
    31e4:	0000                	unimp
    31e6:	0000                	unimp
    31e8:	0000                	unimp
    31ea:	0000                	unimp
    31ec:	0000                	unimp
    31ee:	0000                	unimp
    31f0:	0000                	unimp
    31f2:	0000                	unimp
    31f4:	0000                	unimp
    31f6:	0000                	unimp
    31f8:	0000                	unimp
    31fa:	0000                	unimp
    31fc:	0000                	unimp
    31fe:	0000                	unimp
    3200:	0000                	unimp
    3202:	0000                	unimp
    3204:	0000                	unimp
    3206:	0000                	unimp
    3208:	0000                	unimp
    320a:	0000                	unimp
    320c:	0000                	unimp
    320e:	0000                	unimp
    3210:	0000                	unimp
    3212:	0000                	unimp
    3214:	0000                	unimp
    3216:	0000                	unimp
    3218:	0000                	unimp
    321a:	0000                	unimp
    321c:	0000                	unimp
    321e:	0000                	unimp
    3220:	0000                	unimp
    3222:	0000                	unimp
    3224:	0000                	unimp
    3226:	0000                	unimp
    3228:	0000                	unimp
    322a:	0000                	unimp
    322c:	0000                	unimp
    322e:	0000                	unimp
    3230:	0000                	unimp
    3232:	0000                	unimp
    3234:	0000                	unimp
    3236:	0000                	unimp
    3238:	0000                	unimp
    323a:	0000                	unimp
    323c:	0000                	unimp
    323e:	0000                	unimp
    3240:	0000                	unimp
    3242:	0000                	unimp
    3244:	0000                	unimp
    3246:	0000                	unimp
    3248:	0000                	unimp
    324a:	0000                	unimp
    324c:	0000                	unimp
    324e:	0000                	unimp
    3250:	0000                	unimp
    3252:	0000                	unimp
    3254:	0000                	unimp
    3256:	0000                	unimp
    3258:	0000                	unimp
    325a:	0000                	unimp
    325c:	0000                	unimp
    325e:	0000                	unimp
    3260:	0000                	unimp
    3262:	0000                	unimp
    3264:	0000                	unimp
    3266:	0000                	unimp
    3268:	0000                	unimp
    326a:	0000                	unimp
    326c:	0000                	unimp
    326e:	0000                	unimp
    3270:	0000                	unimp
    3272:	0000                	unimp
    3274:	0000                	unimp
    3276:	0000                	unimp
    3278:	0000                	unimp
    327a:	0000                	unimp
    327c:	0000                	unimp
    327e:	0000                	unimp
    3280:	0000                	unimp
    3282:	0000                	unimp
    3284:	0000                	unimp
    3286:	0000                	unimp
    3288:	0000                	unimp
    328a:	0000                	unimp
    328c:	0000                	unimp
    328e:	0000                	unimp
    3290:	0000                	unimp
    3292:	0000                	unimp
    3294:	0000                	unimp
    3296:	0000                	unimp
    3298:	0000                	unimp
    329a:	0000                	unimp
    329c:	0000                	unimp
    329e:	0000                	unimp
    32a0:	0000                	unimp
    32a2:	0000                	unimp
    32a4:	0000                	unimp
    32a6:	0000                	unimp
    32a8:	0000                	unimp
    32aa:	0000                	unimp
    32ac:	0000                	unimp
    32ae:	0000                	unimp
    32b0:	0000                	unimp
    32b2:	0000                	unimp
    32b4:	0000                	unimp
    32b6:	0000                	unimp
    32b8:	0000                	unimp
    32ba:	0000                	unimp
    32bc:	0000                	unimp
    32be:	0000                	unimp
    32c0:	0000                	unimp
    32c2:	0000                	unimp
    32c4:	0000                	unimp
    32c6:	0000                	unimp
    32c8:	0000                	unimp
    32ca:	0000                	unimp
    32cc:	0000                	unimp
    32ce:	0000                	unimp
    32d0:	0000                	unimp
    32d2:	0000                	unimp
    32d4:	0000                	unimp
    32d6:	0000                	unimp
    32d8:	0000                	unimp
    32da:	0000                	unimp
    32dc:	0000                	unimp
    32de:	0000                	unimp
    32e0:	0000                	unimp
    32e2:	0000                	unimp
    32e4:	0000                	unimp
    32e6:	0000                	unimp
    32e8:	0000                	unimp
    32ea:	0000                	unimp
    32ec:	0000                	unimp
    32ee:	0000                	unimp
    32f0:	0000                	unimp
    32f2:	0000                	unimp
    32f4:	0000                	unimp
    32f6:	0000                	unimp
    32f8:	0000                	unimp
    32fa:	0000                	unimp
    32fc:	0000                	unimp
    32fe:	0000                	unimp
    3300:	0000                	unimp
    3302:	0000                	unimp
    3304:	0000                	unimp
    3306:	0000                	unimp
    3308:	0000                	unimp
    330a:	0000                	unimp
    330c:	0000                	unimp
    330e:	0000                	unimp
    3310:	0000                	unimp
    3312:	0000                	unimp
    3314:	0000                	unimp
    3316:	0000                	unimp
    3318:	0000                	unimp
    331a:	0000                	unimp
    331c:	0000                	unimp
    331e:	0000                	unimp
    3320:	0000                	unimp
    3322:	0000                	unimp
    3324:	0000                	unimp
    3326:	0000                	unimp
    3328:	0000                	unimp
    332a:	0000                	unimp
    332c:	0000                	unimp
    332e:	0000                	unimp
    3330:	0000                	unimp
    3332:	0000                	unimp
    3334:	0000                	unimp
    3336:	0000                	unimp
    3338:	0000                	unimp
    333a:	0000                	unimp
    333c:	0000                	unimp
    333e:	0000                	unimp
    3340:	0000                	unimp
    3342:	0000                	unimp
    3344:	0000                	unimp
    3346:	0000                	unimp
    3348:	0000                	unimp
    334a:	0000                	unimp
    334c:	0000                	unimp
    334e:	0000                	unimp
    3350:	0000                	unimp
    3352:	0000                	unimp
    3354:	0000                	unimp
    3356:	0000                	unimp
    3358:	0000                	unimp
    335a:	0000                	unimp
    335c:	0000                	unimp
    335e:	0000                	unimp
    3360:	0000                	unimp
    3362:	0000                	unimp
    3364:	0000                	unimp
    3366:	0000                	unimp
    3368:	0000                	unimp
    336a:	0000                	unimp
    336c:	0000                	unimp
    336e:	0000                	unimp
    3370:	0000                	unimp
    3372:	0000                	unimp
    3374:	0000                	unimp
    3376:	0000                	unimp
    3378:	0000                	unimp
    337a:	0000                	unimp
    337c:	0000                	unimp
    337e:	0000                	unimp
    3380:	0000                	unimp
    3382:	0000                	unimp
    3384:	0000                	unimp
    3386:	0000                	unimp
    3388:	0000                	unimp
    338a:	0000                	unimp
    338c:	0000                	unimp
    338e:	0000                	unimp
    3390:	0000                	unimp
    3392:	0000                	unimp
    3394:	0000                	unimp
    3396:	0000                	unimp
    3398:	0000                	unimp
    339a:	0000                	unimp
    339c:	0000                	unimp
    339e:	0000                	unimp
    33a0:	0000                	unimp
    33a2:	0000                	unimp
    33a4:	0000                	unimp
    33a6:	0000                	unimp
    33a8:	0000                	unimp
    33aa:	0000                	unimp
    33ac:	0000                	unimp
    33ae:	0000                	unimp
    33b0:	0000                	unimp
    33b2:	0000                	unimp
    33b4:	0000                	unimp
    33b6:	0000                	unimp
    33b8:	0000                	unimp
    33ba:	0000                	unimp
    33bc:	0000                	unimp
    33be:	0000                	unimp
    33c0:	0000                	unimp
    33c2:	0000                	unimp
    33c4:	0000                	unimp
    33c6:	0000                	unimp
    33c8:	0000                	unimp
    33ca:	0000                	unimp
    33cc:	0000                	unimp
    33ce:	0000                	unimp
    33d0:	0000                	unimp
    33d2:	0000                	unimp
    33d4:	0000                	unimp
    33d6:	0000                	unimp
    33d8:	0000                	unimp
    33da:	0000                	unimp
    33dc:	0000                	unimp
    33de:	0000                	unimp
    33e0:	0000                	unimp
    33e2:	0000                	unimp
    33e4:	0000                	unimp
    33e6:	0000                	unimp
    33e8:	0000                	unimp
    33ea:	0000                	unimp
    33ec:	0000                	unimp
    33ee:	0000                	unimp
    33f0:	0000                	unimp
    33f2:	0000                	unimp
    33f4:	0000                	unimp
    33f6:	0000                	unimp
    33f8:	0000                	unimp
    33fa:	0000                	unimp
    33fc:	0000                	unimp
    33fe:	0000                	unimp
    3400:	0000                	unimp
    3402:	0000                	unimp
    3404:	0000                	unimp
    3406:	0000                	unimp
    3408:	0000                	unimp
    340a:	0000                	unimp
    340c:	0000                	unimp
    340e:	0000                	unimp
    3410:	0000                	unimp
    3412:	0000                	unimp
    3414:	0000                	unimp
    3416:	0000                	unimp
    3418:	0000                	unimp
    341a:	0000                	unimp
    341c:	0000                	unimp
    341e:	0000                	unimp
    3420:	0000                	unimp
    3422:	0000                	unimp
    3424:	0000                	unimp
    3426:	0000                	unimp
    3428:	0000                	unimp
    342a:	0000                	unimp
    342c:	0000                	unimp
    342e:	0000                	unimp
    3430:	0000                	unimp
    3432:	0000                	unimp
    3434:	0000                	unimp
    3436:	0000                	unimp
    3438:	0000                	unimp
    343a:	0000                	unimp
    343c:	0000                	unimp
    343e:	0000                	unimp
    3440:	0000                	unimp
    3442:	0000                	unimp
    3444:	0000                	unimp
    3446:	0000                	unimp
    3448:	0000                	unimp
    344a:	0000                	unimp
    344c:	0000                	unimp
    344e:	0000                	unimp
    3450:	0000                	unimp
    3452:	0000                	unimp
    3454:	0000                	unimp
    3456:	0000                	unimp
    3458:	0000                	unimp
    345a:	0000                	unimp
    345c:	0000                	unimp
    345e:	0000                	unimp
    3460:	0000                	unimp
    3462:	0000                	unimp
    3464:	0000                	unimp
    3466:	0000                	unimp
    3468:	0000                	unimp
    346a:	0000                	unimp
    346c:	0000                	unimp
    346e:	0000                	unimp
    3470:	0000                	unimp
    3472:	0000                	unimp
    3474:	0000                	unimp
    3476:	0000                	unimp
    3478:	0000                	unimp
    347a:	0000                	unimp
    347c:	0000                	unimp
    347e:	0000                	unimp
    3480:	0000                	unimp
    3482:	0000                	unimp
    3484:	0000                	unimp
    3486:	0000                	unimp
    3488:	0000                	unimp
    348a:	0000                	unimp
    348c:	0000                	unimp
    348e:	0000                	unimp
    3490:	0000                	unimp
    3492:	0000                	unimp
    3494:	0000                	unimp
    3496:	0000                	unimp
    3498:	0000                	unimp
    349a:	0000                	unimp
    349c:	0000                	unimp
    349e:	0000                	unimp
    34a0:	0000                	unimp
    34a2:	0000                	unimp
    34a4:	0000                	unimp
    34a6:	0000                	unimp
    34a8:	0000                	unimp
    34aa:	0000                	unimp
    34ac:	0000                	unimp
    34ae:	0000                	unimp
    34b0:	0000                	unimp
    34b2:	0000                	unimp
    34b4:	0000                	unimp
    34b6:	0000                	unimp
    34b8:	0000                	unimp
    34ba:	0000                	unimp
    34bc:	0000                	unimp
    34be:	0000                	unimp
    34c0:	0000                	unimp
    34c2:	0000                	unimp
    34c4:	0000                	unimp
    34c6:	0000                	unimp
    34c8:	0000                	unimp
    34ca:	0000                	unimp
    34cc:	0000                	unimp
    34ce:	0000                	unimp
    34d0:	0000                	unimp
    34d2:	0000                	unimp
    34d4:	0000                	unimp
    34d6:	0000                	unimp
    34d8:	0000                	unimp
    34da:	0000                	unimp
    34dc:	0000                	unimp
    34de:	0000                	unimp
    34e0:	0000                	unimp
    34e2:	0000                	unimp
    34e4:	0000                	unimp
    34e6:	0000                	unimp
    34e8:	0000                	unimp
    34ea:	0000                	unimp
    34ec:	0000                	unimp
    34ee:	0000                	unimp
    34f0:	0000                	unimp
    34f2:	0000                	unimp
    34f4:	0000                	unimp
    34f6:	0000                	unimp
    34f8:	0000                	unimp
    34fa:	0000                	unimp
    34fc:	0000                	unimp
    34fe:	0000                	unimp
    3500:	0000                	unimp
    3502:	0000                	unimp
    3504:	0000                	unimp
    3506:	0000                	unimp
    3508:	0000                	unimp
    350a:	0000                	unimp
    350c:	0000                	unimp
    350e:	0000                	unimp
    3510:	0000                	unimp
    3512:	0000                	unimp
    3514:	0000                	unimp
    3516:	0000                	unimp
    3518:	0000                	unimp
    351a:	0000                	unimp
    351c:	0000                	unimp
    351e:	0000                	unimp
    3520:	0000                	unimp
    3522:	0000                	unimp
    3524:	0000                	unimp
    3526:	0000                	unimp
    3528:	0000                	unimp
    352a:	0000                	unimp
    352c:	0000                	unimp
    352e:	0000                	unimp
    3530:	0000                	unimp
    3532:	0000                	unimp
    3534:	0000                	unimp
    3536:	0000                	unimp
    3538:	0000                	unimp
    353a:	0000                	unimp
    353c:	0000                	unimp
    353e:	0000                	unimp
    3540:	0000                	unimp
    3542:	0000                	unimp
    3544:	0000                	unimp
    3546:	0000                	unimp
    3548:	0000                	unimp
    354a:	0000                	unimp
    354c:	0000                	unimp
    354e:	0000                	unimp
    3550:	0000                	unimp
    3552:	0000                	unimp
    3554:	0000                	unimp
    3556:	0000                	unimp
    3558:	0000                	unimp
    355a:	0000                	unimp
    355c:	0000                	unimp
    355e:	0000                	unimp
    3560:	0000                	unimp
    3562:	0000                	unimp
    3564:	0000                	unimp
    3566:	0000                	unimp
    3568:	0000                	unimp
    356a:	0000                	unimp
    356c:	0000                	unimp
    356e:	0000                	unimp
    3570:	0000                	unimp
    3572:	0000                	unimp
    3574:	0000                	unimp
    3576:	0000                	unimp
    3578:	0000                	unimp
    357a:	0000                	unimp
    357c:	0000                	unimp
    357e:	0000                	unimp
    3580:	0000                	unimp
    3582:	0000                	unimp
    3584:	0000                	unimp
    3586:	0000                	unimp
    3588:	0000                	unimp
    358a:	0000                	unimp
    358c:	0000                	unimp
    358e:	0000                	unimp
    3590:	0000                	unimp
    3592:	0000                	unimp
    3594:	0000                	unimp
    3596:	0000                	unimp
    3598:	0000                	unimp
    359a:	0000                	unimp
    359c:	0000                	unimp
    359e:	0000                	unimp
    35a0:	0000                	unimp
    35a2:	0000                	unimp
    35a4:	0000                	unimp
    35a6:	0000                	unimp
    35a8:	0000                	unimp
    35aa:	0000                	unimp
    35ac:	0000                	unimp
    35ae:	0000                	unimp
    35b0:	0000                	unimp
    35b2:	0000                	unimp
    35b4:	0000                	unimp
    35b6:	0000                	unimp
    35b8:	0000                	unimp
    35ba:	0000                	unimp
    35bc:	0000                	unimp
    35be:	0000                	unimp
    35c0:	0000                	unimp
    35c2:	0000                	unimp
    35c4:	0000                	unimp
    35c6:	0000                	unimp
    35c8:	0000                	unimp
    35ca:	0000                	unimp
    35cc:	0000                	unimp
    35ce:	0000                	unimp
    35d0:	0000                	unimp
    35d2:	0000                	unimp
    35d4:	0000                	unimp
    35d6:	0000                	unimp
    35d8:	0000                	unimp
    35da:	0000                	unimp
    35dc:	0000                	unimp
    35de:	0000                	unimp
    35e0:	0000                	unimp
    35e2:	0000                	unimp
    35e4:	0000                	unimp
    35e6:	0000                	unimp
    35e8:	0000                	unimp
    35ea:	0000                	unimp
    35ec:	0000                	unimp
    35ee:	0000                	unimp
    35f0:	0000                	unimp
    35f2:	0000                	unimp
    35f4:	0000                	unimp
    35f6:	0000                	unimp
    35f8:	0000                	unimp
    35fa:	0000                	unimp
    35fc:	0000                	unimp
    35fe:	0000                	unimp
    3600:	0000                	unimp
    3602:	0000                	unimp
    3604:	0000                	unimp
    3606:	0000                	unimp
    3608:	0000                	unimp
    360a:	0000                	unimp
    360c:	0000                	unimp
    360e:	0000                	unimp
    3610:	0000                	unimp
    3612:	0000                	unimp
    3614:	0000                	unimp
    3616:	0000                	unimp
    3618:	0000                	unimp
    361a:	0000                	unimp
    361c:	0000                	unimp
    361e:	0000                	unimp
    3620:	0000                	unimp
    3622:	0000                	unimp
    3624:	0000                	unimp
    3626:	0000                	unimp
    3628:	0000                	unimp
    362a:	0000                	unimp
    362c:	0000                	unimp
    362e:	0000                	unimp
    3630:	0000                	unimp
    3632:	0000                	unimp
    3634:	0000                	unimp
    3636:	0000                	unimp
    3638:	0000                	unimp
    363a:	0000                	unimp
    363c:	0000                	unimp
    363e:	0000                	unimp
    3640:	0000                	unimp
    3642:	0000                	unimp
    3644:	0000                	unimp
    3646:	0000                	unimp
    3648:	0000                	unimp
    364a:	0000                	unimp
    364c:	0000                	unimp
    364e:	0000                	unimp
    3650:	0000                	unimp
    3652:	0000                	unimp
    3654:	0000                	unimp
    3656:	0000                	unimp
    3658:	0000                	unimp
    365a:	0000                	unimp
    365c:	0000                	unimp
    365e:	0000                	unimp
    3660:	0000                	unimp
    3662:	0000                	unimp
    3664:	0000                	unimp
    3666:	0000                	unimp
    3668:	0000                	unimp
    366a:	0000                	unimp
    366c:	0000                	unimp
    366e:	0000                	unimp
    3670:	0000                	unimp
    3672:	0000                	unimp
    3674:	0000                	unimp
    3676:	0000                	unimp
    3678:	0000                	unimp
    367a:	0000                	unimp
    367c:	0000                	unimp
    367e:	0000                	unimp
    3680:	0000                	unimp
    3682:	0000                	unimp
    3684:	0000                	unimp
    3686:	0000                	unimp
    3688:	0000                	unimp
    368a:	0000                	unimp
    368c:	0000                	unimp
    368e:	0000                	unimp
    3690:	0000                	unimp
    3692:	0000                	unimp
    3694:	0000                	unimp
    3696:	0000                	unimp
    3698:	0000                	unimp
    369a:	0000                	unimp
    369c:	0000                	unimp
    369e:	0000                	unimp
    36a0:	0000                	unimp
    36a2:	0000                	unimp
    36a4:	0000                	unimp
    36a6:	0000                	unimp
    36a8:	0000                	unimp
    36aa:	0000                	unimp
    36ac:	0000                	unimp
    36ae:	0000                	unimp
    36b0:	0000                	unimp
    36b2:	0000                	unimp
    36b4:	0000                	unimp
    36b6:	0000                	unimp
    36b8:	0000                	unimp
    36ba:	0000                	unimp
    36bc:	0000                	unimp
    36be:	0000                	unimp
    36c0:	0000                	unimp
    36c2:	0000                	unimp
    36c4:	0000                	unimp
    36c6:	0000                	unimp
    36c8:	0000                	unimp
    36ca:	0000                	unimp
    36cc:	0000                	unimp
    36ce:	0000                	unimp
    36d0:	0000                	unimp
    36d2:	0000                	unimp
    36d4:	0000                	unimp
    36d6:	0000                	unimp
    36d8:	0000                	unimp
    36da:	0000                	unimp
    36dc:	0000                	unimp
    36de:	0000                	unimp
    36e0:	0000                	unimp
    36e2:	0000                	unimp
    36e4:	0000                	unimp
    36e6:	0000                	unimp
    36e8:	0000                	unimp
    36ea:	0000                	unimp
    36ec:	0000                	unimp
    36ee:	0000                	unimp
    36f0:	0000                	unimp
    36f2:	0000                	unimp
    36f4:	0000                	unimp
    36f6:	0000                	unimp
    36f8:	0000                	unimp
    36fa:	0000                	unimp
    36fc:	0000                	unimp
    36fe:	0000                	unimp
    3700:	0000                	unimp
    3702:	0000                	unimp
    3704:	0000                	unimp
    3706:	0000                	unimp
    3708:	0000                	unimp
    370a:	0000                	unimp
    370c:	0000                	unimp
    370e:	0000                	unimp
    3710:	0000                	unimp
    3712:	0000                	unimp
    3714:	0000                	unimp
    3716:	0000                	unimp
    3718:	0000                	unimp
    371a:	0000                	unimp
    371c:	0000                	unimp
    371e:	0000                	unimp
    3720:	0000                	unimp
    3722:	0000                	unimp
    3724:	0000                	unimp
    3726:	0000                	unimp
    3728:	0000                	unimp
    372a:	0000                	unimp
    372c:	0000                	unimp
    372e:	0000                	unimp
    3730:	0000                	unimp
    3732:	0000                	unimp
    3734:	0000                	unimp
    3736:	0000                	unimp
    3738:	0000                	unimp
    373a:	0000                	unimp
    373c:	0000                	unimp
    373e:	0000                	unimp
    3740:	0000                	unimp
    3742:	0000                	unimp
    3744:	0000                	unimp
    3746:	0000                	unimp
    3748:	0000                	unimp
    374a:	0000                	unimp
    374c:	0000                	unimp
    374e:	0000                	unimp
    3750:	0000                	unimp
    3752:	0000                	unimp
    3754:	0000                	unimp
    3756:	0000                	unimp
    3758:	0000                	unimp
    375a:	0000                	unimp
    375c:	0000                	unimp
    375e:	0000                	unimp
    3760:	0000                	unimp
    3762:	0000                	unimp
    3764:	0000                	unimp
    3766:	0000                	unimp
    3768:	0000                	unimp
    376a:	0000                	unimp
    376c:	0000                	unimp
    376e:	0000                	unimp
    3770:	0000                	unimp
    3772:	0000                	unimp
    3774:	0000                	unimp
    3776:	0000                	unimp
    3778:	0000                	unimp
    377a:	0000                	unimp
    377c:	0000                	unimp
    377e:	0000                	unimp
    3780:	0000                	unimp
    3782:	0000                	unimp
    3784:	0000                	unimp
    3786:	0000                	unimp
    3788:	0000                	unimp
    378a:	0000                	unimp
    378c:	0000                	unimp
    378e:	0000                	unimp
    3790:	0000                	unimp
    3792:	0000                	unimp
    3794:	0000                	unimp
    3796:	0000                	unimp
    3798:	0000                	unimp
    379a:	0000                	unimp
    379c:	0000                	unimp
    379e:	0000                	unimp
    37a0:	0000                	unimp
    37a2:	0000                	unimp
    37a4:	0000                	unimp
    37a6:	0000                	unimp
    37a8:	0000                	unimp
    37aa:	0000                	unimp
    37ac:	0000                	unimp
    37ae:	0000                	unimp
    37b0:	0000                	unimp
    37b2:	0000                	unimp
    37b4:	0000                	unimp
    37b6:	0000                	unimp
    37b8:	0000                	unimp
    37ba:	0000                	unimp
    37bc:	0000                	unimp
    37be:	0000                	unimp
    37c0:	0000                	unimp
    37c2:	0000                	unimp
    37c4:	0000                	unimp
    37c6:	0000                	unimp
    37c8:	0000                	unimp
    37ca:	0000                	unimp
    37cc:	0000                	unimp
    37ce:	0000                	unimp
    37d0:	0000                	unimp
    37d2:	0000                	unimp
    37d4:	0000                	unimp
    37d6:	0000                	unimp
    37d8:	0000                	unimp
    37da:	0000                	unimp
    37dc:	0000                	unimp
    37de:	0000                	unimp
    37e0:	0000                	unimp
    37e2:	0000                	unimp
    37e4:	0000                	unimp
    37e6:	0000                	unimp
    37e8:	0000                	unimp
    37ea:	0000                	unimp
    37ec:	0000                	unimp
    37ee:	0000                	unimp
    37f0:	0000                	unimp
    37f2:	0000                	unimp
    37f4:	0000                	unimp
    37f6:	0000                	unimp
    37f8:	0000                	unimp
    37fa:	0000                	unimp
    37fc:	0000                	unimp
    37fe:	0000                	unimp
    3800:	0000                	unimp
    3802:	0000                	unimp
    3804:	0000                	unimp
    3806:	0000                	unimp
    3808:	0000                	unimp
    380a:	0000                	unimp
    380c:	0000                	unimp
    380e:	0000                	unimp
    3810:	0000                	unimp
    3812:	0000                	unimp
    3814:	0000                	unimp
    3816:	0000                	unimp
    3818:	0000                	unimp
    381a:	0000                	unimp
    381c:	0000                	unimp
    381e:	0000                	unimp
    3820:	0000                	unimp
    3822:	0000                	unimp
    3824:	0000                	unimp
    3826:	0000                	unimp
    3828:	0000                	unimp
    382a:	0000                	unimp
    382c:	0000                	unimp
    382e:	0000                	unimp
    3830:	0000                	unimp
    3832:	0000                	unimp
    3834:	0000                	unimp
    3836:	0000                	unimp
    3838:	0000                	unimp
    383a:	0000                	unimp
    383c:	0000                	unimp
    383e:	0000                	unimp
    3840:	0000                	unimp
    3842:	0000                	unimp
    3844:	0000                	unimp
    3846:	0000                	unimp
    3848:	0000                	unimp
    384a:	0000                	unimp
    384c:	0000                	unimp
    384e:	0000                	unimp
    3850:	0000                	unimp
    3852:	0000                	unimp
    3854:	0000                	unimp
    3856:	0000                	unimp
    3858:	0000                	unimp
    385a:	0000                	unimp
    385c:	0000                	unimp
    385e:	0000                	unimp
    3860:	0000                	unimp
    3862:	0000                	unimp
    3864:	0000                	unimp
    3866:	0000                	unimp
    3868:	0000                	unimp
    386a:	0000                	unimp
    386c:	0000                	unimp
    386e:	0000                	unimp
    3870:	0000                	unimp
    3872:	0000                	unimp
    3874:	0000                	unimp
    3876:	0000                	unimp
    3878:	0000                	unimp
    387a:	0000                	unimp
    387c:	0000                	unimp
    387e:	0000                	unimp
    3880:	0000                	unimp
    3882:	0000                	unimp
    3884:	0000                	unimp
    3886:	0000                	unimp
    3888:	0000                	unimp
    388a:	0000                	unimp
    388c:	0000                	unimp
    388e:	0000                	unimp
    3890:	0000                	unimp
    3892:	0000                	unimp
    3894:	0000                	unimp
    3896:	0000                	unimp
    3898:	0000                	unimp
    389a:	0000                	unimp
    389c:	0000                	unimp
    389e:	0000                	unimp
    38a0:	0000                	unimp
    38a2:	0000                	unimp
    38a4:	0000                	unimp
    38a6:	0000                	unimp
    38a8:	0000                	unimp
    38aa:	0000                	unimp
    38ac:	0000                	unimp
    38ae:	0000                	unimp
    38b0:	0000                	unimp
    38b2:	0000                	unimp
    38b4:	0000                	unimp
    38b6:	0000                	unimp
    38b8:	0000                	unimp
    38ba:	0000                	unimp
    38bc:	0000                	unimp
    38be:	0000                	unimp
    38c0:	0000                	unimp
    38c2:	0000                	unimp
    38c4:	0000                	unimp
    38c6:	0000                	unimp
    38c8:	0000                	unimp
    38ca:	0000                	unimp
    38cc:	0000                	unimp
    38ce:	0000                	unimp
    38d0:	0000                	unimp
    38d2:	0000                	unimp
    38d4:	0000                	unimp
    38d6:	0000                	unimp
    38d8:	0000                	unimp
    38da:	0000                	unimp
    38dc:	0000                	unimp
    38de:	0000                	unimp
    38e0:	0000                	unimp
    38e2:	0000                	unimp
    38e4:	0000                	unimp
    38e6:	0000                	unimp
    38e8:	0000                	unimp
    38ea:	0000                	unimp
    38ec:	0000                	unimp
    38ee:	0000                	unimp
    38f0:	0000                	unimp
    38f2:	0000                	unimp
    38f4:	0000                	unimp
    38f6:	0000                	unimp
    38f8:	0000                	unimp
    38fa:	0000                	unimp
    38fc:	0000                	unimp
    38fe:	0000                	unimp
    3900:	0000                	unimp
    3902:	0000                	unimp
    3904:	0000                	unimp
    3906:	0000                	unimp
    3908:	0000                	unimp
    390a:	0000                	unimp
    390c:	0000                	unimp
    390e:	0000                	unimp
    3910:	0000                	unimp
    3912:	0000                	unimp
    3914:	0000                	unimp
    3916:	0000                	unimp
    3918:	0000                	unimp
    391a:	0000                	unimp
    391c:	0000                	unimp
    391e:	0000                	unimp
    3920:	0000                	unimp
    3922:	0000                	unimp
    3924:	0000                	unimp
    3926:	0000                	unimp
    3928:	0000                	unimp
    392a:	0000                	unimp
    392c:	0000                	unimp
    392e:	0000                	unimp
    3930:	0000                	unimp
    3932:	0000                	unimp
    3934:	0000                	unimp
    3936:	0000                	unimp
    3938:	0000                	unimp
    393a:	0000                	unimp
    393c:	0000                	unimp
    393e:	0000                	unimp
    3940:	0000                	unimp
    3942:	0000                	unimp
    3944:	0000                	unimp
    3946:	0000                	unimp
    3948:	0000                	unimp
    394a:	0000                	unimp
    394c:	0000                	unimp
    394e:	0000                	unimp
    3950:	0000                	unimp
    3952:	0000                	unimp
    3954:	0000                	unimp
    3956:	0000                	unimp
    3958:	0000                	unimp
    395a:	0000                	unimp
    395c:	0000                	unimp
    395e:	0000                	unimp
    3960:	0000                	unimp
    3962:	0000                	unimp
    3964:	0000                	unimp
    3966:	0000                	unimp
    3968:	0000                	unimp
    396a:	0000                	unimp
    396c:	0000                	unimp
    396e:	0000                	unimp
    3970:	0000                	unimp
    3972:	0000                	unimp
    3974:	0000                	unimp
    3976:	0000                	unimp
    3978:	0000                	unimp
    397a:	0000                	unimp
    397c:	0000                	unimp
    397e:	0000                	unimp
    3980:	0000                	unimp
    3982:	0000                	unimp
    3984:	0000                	unimp
    3986:	0000                	unimp
    3988:	0000                	unimp
    398a:	0000                	unimp
    398c:	0000                	unimp
    398e:	0000                	unimp
    3990:	0000                	unimp
    3992:	0000                	unimp
    3994:	0000                	unimp
    3996:	0000                	unimp
    3998:	0000                	unimp
    399a:	0000                	unimp
    399c:	0000                	unimp
    399e:	0000                	unimp
    39a0:	0000                	unimp
    39a2:	0000                	unimp
    39a4:	0000                	unimp
    39a6:	0000                	unimp
    39a8:	0000                	unimp
    39aa:	0000                	unimp
    39ac:	0000                	unimp
    39ae:	0000                	unimp
    39b0:	0000                	unimp
    39b2:	0000                	unimp
    39b4:	0000                	unimp
    39b6:	0000                	unimp
    39b8:	0000                	unimp
    39ba:	0000                	unimp
    39bc:	0000                	unimp
    39be:	0000                	unimp
    39c0:	0000                	unimp
    39c2:	0000                	unimp
    39c4:	0000                	unimp
    39c6:	0000                	unimp
    39c8:	0000                	unimp
    39ca:	0000                	unimp
    39cc:	0000                	unimp
    39ce:	0000                	unimp
    39d0:	0000                	unimp
    39d2:	0000                	unimp
    39d4:	0000                	unimp
    39d6:	0000                	unimp
    39d8:	0000                	unimp
    39da:	0000                	unimp
    39dc:	0000                	unimp
    39de:	0000                	unimp
    39e0:	0000                	unimp
    39e2:	0000                	unimp
    39e4:	0000                	unimp
    39e6:	0000                	unimp
    39e8:	0000                	unimp
    39ea:	0000                	unimp
    39ec:	0000                	unimp
    39ee:	0000                	unimp
    39f0:	0000                	unimp
    39f2:	0000                	unimp
    39f4:	0000                	unimp
    39f6:	0000                	unimp
    39f8:	0000                	unimp
    39fa:	0000                	unimp
    39fc:	0000                	unimp
    39fe:	0000                	unimp
    3a00:	0000                	unimp
    3a02:	0000                	unimp
    3a04:	0000                	unimp
    3a06:	0000                	unimp
    3a08:	0000                	unimp
    3a0a:	0000                	unimp
    3a0c:	0000                	unimp
    3a0e:	0000                	unimp
    3a10:	0000                	unimp
    3a12:	0000                	unimp
    3a14:	0000                	unimp
    3a16:	0000                	unimp
    3a18:	0000                	unimp
    3a1a:	0000                	unimp
    3a1c:	0000                	unimp
    3a1e:	0000                	unimp
    3a20:	0000                	unimp
    3a22:	0000                	unimp
    3a24:	0000                	unimp
    3a26:	0000                	unimp
    3a28:	0000                	unimp
    3a2a:	0000                	unimp
    3a2c:	0000                	unimp
    3a2e:	0000                	unimp
    3a30:	0000                	unimp
    3a32:	0000                	unimp
    3a34:	0000                	unimp
    3a36:	0000                	unimp
    3a38:	0000                	unimp
    3a3a:	0000                	unimp
    3a3c:	0000                	unimp
    3a3e:	0000                	unimp
    3a40:	0000                	unimp
    3a42:	0000                	unimp
    3a44:	0000                	unimp
    3a46:	0000                	unimp
    3a48:	0000                	unimp
    3a4a:	0000                	unimp
    3a4c:	0000                	unimp
    3a4e:	0000                	unimp
    3a50:	0000                	unimp
    3a52:	0000                	unimp
    3a54:	0000                	unimp
    3a56:	0000                	unimp
    3a58:	0000                	unimp
    3a5a:	0000                	unimp
    3a5c:	0000                	unimp
    3a5e:	0000                	unimp
    3a60:	0000                	unimp
    3a62:	0000                	unimp
    3a64:	0000                	unimp
    3a66:	0000                	unimp
    3a68:	0000                	unimp
    3a6a:	0000                	unimp
    3a6c:	0000                	unimp
    3a6e:	0000                	unimp
    3a70:	0000                	unimp
    3a72:	0000                	unimp
    3a74:	0000                	unimp
    3a76:	0000                	unimp
    3a78:	0000                	unimp
    3a7a:	0000                	unimp
    3a7c:	0000                	unimp
    3a7e:	0000                	unimp
    3a80:	0000                	unimp
    3a82:	0000                	unimp
    3a84:	0000                	unimp
    3a86:	0000                	unimp
    3a88:	0000                	unimp
    3a8a:	0000                	unimp
    3a8c:	0000                	unimp
    3a8e:	0000                	unimp
    3a90:	0000                	unimp
    3a92:	0000                	unimp
    3a94:	0000                	unimp
    3a96:	0000                	unimp
    3a98:	0000                	unimp
    3a9a:	0000                	unimp
    3a9c:	0000                	unimp
    3a9e:	0000                	unimp
    3aa0:	0000                	unimp
    3aa2:	0000                	unimp
    3aa4:	0000                	unimp
    3aa6:	0000                	unimp
    3aa8:	0000                	unimp
    3aaa:	0000                	unimp
    3aac:	0000                	unimp
    3aae:	0000                	unimp
    3ab0:	0000                	unimp
    3ab2:	0000                	unimp
    3ab4:	0000                	unimp
    3ab6:	0000                	unimp
    3ab8:	0000                	unimp
    3aba:	0000                	unimp
    3abc:	0000                	unimp
    3abe:	0000                	unimp
    3ac0:	0000                	unimp
    3ac2:	0000                	unimp
    3ac4:	0000                	unimp
    3ac6:	0000                	unimp
    3ac8:	0000                	unimp
    3aca:	0000                	unimp
    3acc:	0000                	unimp
    3ace:	0000                	unimp
    3ad0:	0000                	unimp
    3ad2:	0000                	unimp
    3ad4:	0000                	unimp
    3ad6:	0000                	unimp
    3ad8:	0000                	unimp
    3ada:	0000                	unimp
    3adc:	0000                	unimp
    3ade:	0000                	unimp
    3ae0:	0000                	unimp
    3ae2:	0000                	unimp
    3ae4:	0000                	unimp
    3ae6:	0000                	unimp
    3ae8:	0000                	unimp
    3aea:	0000                	unimp
    3aec:	0000                	unimp
    3aee:	0000                	unimp
    3af0:	0000                	unimp
    3af2:	0000                	unimp
    3af4:	0000                	unimp
    3af6:	0000                	unimp
    3af8:	0000                	unimp
    3afa:	0000                	unimp
    3afc:	0000                	unimp
    3afe:	0000                	unimp
    3b00:	0000                	unimp
    3b02:	0000                	unimp
    3b04:	0000                	unimp
    3b06:	0000                	unimp
    3b08:	0000                	unimp
    3b0a:	0000                	unimp
    3b0c:	0000                	unimp
    3b0e:	0000                	unimp
    3b10:	0000                	unimp
    3b12:	0000                	unimp
    3b14:	0000                	unimp
    3b16:	0000                	unimp
    3b18:	0000                	unimp
    3b1a:	0000                	unimp
    3b1c:	0000                	unimp
    3b1e:	0000                	unimp
    3b20:	0000                	unimp
    3b22:	0000                	unimp
    3b24:	0000                	unimp
    3b26:	0000                	unimp
    3b28:	0000                	unimp
    3b2a:	0000                	unimp
    3b2c:	0000                	unimp
    3b2e:	0000                	unimp
    3b30:	0000                	unimp
    3b32:	0000                	unimp
    3b34:	0000                	unimp
    3b36:	0000                	unimp
    3b38:	0000                	unimp
    3b3a:	0000                	unimp
    3b3c:	0000                	unimp
    3b3e:	0000                	unimp
    3b40:	0000                	unimp
    3b42:	0000                	unimp
    3b44:	0000                	unimp
    3b46:	0000                	unimp
    3b48:	0000                	unimp
    3b4a:	0000                	unimp
    3b4c:	0000                	unimp
    3b4e:	0000                	unimp
    3b50:	0000                	unimp
    3b52:	0000                	unimp
    3b54:	0000                	unimp
    3b56:	0000                	unimp
    3b58:	0000                	unimp
    3b5a:	0000                	unimp
    3b5c:	0000                	unimp
    3b5e:	0000                	unimp
    3b60:	0000                	unimp
    3b62:	0000                	unimp
    3b64:	0000                	unimp
    3b66:	0000                	unimp
    3b68:	0000                	unimp
    3b6a:	0000                	unimp
    3b6c:	0000                	unimp
    3b6e:	0000                	unimp
    3b70:	0000                	unimp
    3b72:	0000                	unimp
    3b74:	0000                	unimp
    3b76:	0000                	unimp
    3b78:	0000                	unimp
    3b7a:	0000                	unimp
    3b7c:	0000                	unimp
    3b7e:	0000                	unimp
    3b80:	0000                	unimp
    3b82:	0000                	unimp
    3b84:	0000                	unimp
    3b86:	0000                	unimp
    3b88:	0000                	unimp
    3b8a:	0000                	unimp
    3b8c:	0000                	unimp
    3b8e:	0000                	unimp
    3b90:	0000                	unimp
    3b92:	0000                	unimp
    3b94:	0000                	unimp
    3b96:	0000                	unimp
    3b98:	0000                	unimp
    3b9a:	0000                	unimp
    3b9c:	0000                	unimp
    3b9e:	0000                	unimp
    3ba0:	0000                	unimp
    3ba2:	0000                	unimp
    3ba4:	0000                	unimp
    3ba6:	0000                	unimp
    3ba8:	0000                	unimp
    3baa:	0000                	unimp
    3bac:	0000                	unimp
    3bae:	0000                	unimp
    3bb0:	0000                	unimp
    3bb2:	0000                	unimp
    3bb4:	0000                	unimp
    3bb6:	0000                	unimp
    3bb8:	0000                	unimp
    3bba:	0000                	unimp
    3bbc:	0000                	unimp
    3bbe:	0000                	unimp
    3bc0:	0000                	unimp
    3bc2:	0000                	unimp
    3bc4:	0000                	unimp
    3bc6:	0000                	unimp
    3bc8:	0000                	unimp
    3bca:	0000                	unimp
    3bcc:	0000                	unimp
    3bce:	0000                	unimp
    3bd0:	0000                	unimp
    3bd2:	0000                	unimp
    3bd4:	0000                	unimp
    3bd6:	0000                	unimp
    3bd8:	0000                	unimp
    3bda:	0000                	unimp
    3bdc:	0000                	unimp
    3bde:	0000                	unimp
    3be0:	0000                	unimp
    3be2:	0000                	unimp
    3be4:	0000                	unimp
    3be6:	0000                	unimp
    3be8:	0000                	unimp
    3bea:	0000                	unimp
    3bec:	0000                	unimp
    3bee:	0000                	unimp
    3bf0:	0000                	unimp
    3bf2:	0000                	unimp
    3bf4:	0000                	unimp
    3bf6:	0000                	unimp
    3bf8:	0000                	unimp
    3bfa:	0000                	unimp
    3bfc:	0000                	unimp
    3bfe:	0000                	unimp
    3c00:	0000                	unimp
    3c02:	0000                	unimp
    3c04:	0000                	unimp
    3c06:	0000                	unimp
    3c08:	0000                	unimp
    3c0a:	0000                	unimp
    3c0c:	0000                	unimp
    3c0e:	0000                	unimp
    3c10:	0000                	unimp
    3c12:	0000                	unimp
    3c14:	0000                	unimp
    3c16:	0000                	unimp
    3c18:	0000                	unimp
    3c1a:	0000                	unimp
    3c1c:	0000                	unimp
    3c1e:	0000                	unimp
    3c20:	0000                	unimp
    3c22:	0000                	unimp
    3c24:	0000                	unimp
    3c26:	0000                	unimp
    3c28:	0000                	unimp
    3c2a:	0000                	unimp
    3c2c:	0000                	unimp
    3c2e:	0000                	unimp
    3c30:	0000                	unimp
    3c32:	0000                	unimp
    3c34:	0000                	unimp
    3c36:	0000                	unimp
    3c38:	0000                	unimp
    3c3a:	0000                	unimp
    3c3c:	0000                	unimp
    3c3e:	0000                	unimp
    3c40:	0000                	unimp
    3c42:	0000                	unimp
    3c44:	0000                	unimp
    3c46:	0000                	unimp
    3c48:	0000                	unimp
    3c4a:	0000                	unimp
    3c4c:	0000                	unimp
    3c4e:	0000                	unimp
    3c50:	0000                	unimp
    3c52:	0000                	unimp
    3c54:	0000                	unimp
    3c56:	0000                	unimp
    3c58:	0000                	unimp
    3c5a:	0000                	unimp
    3c5c:	0000                	unimp
    3c5e:	0000                	unimp
    3c60:	0000                	unimp
    3c62:	0000                	unimp
    3c64:	0000                	unimp
    3c66:	0000                	unimp
    3c68:	0000                	unimp
    3c6a:	0000                	unimp
    3c6c:	0000                	unimp
    3c6e:	0000                	unimp
    3c70:	0000                	unimp
    3c72:	0000                	unimp
    3c74:	0000                	unimp
    3c76:	0000                	unimp
    3c78:	0000                	unimp
    3c7a:	0000                	unimp
    3c7c:	0000                	unimp
    3c7e:	0000                	unimp
    3c80:	0000                	unimp
    3c82:	0000                	unimp
    3c84:	0000                	unimp
    3c86:	0000                	unimp
    3c88:	0000                	unimp
    3c8a:	0000                	unimp
    3c8c:	0000                	unimp
    3c8e:	0000                	unimp
    3c90:	0000                	unimp
    3c92:	0000                	unimp
    3c94:	0000                	unimp
    3c96:	0000                	unimp
    3c98:	0000                	unimp
    3c9a:	0000                	unimp
    3c9c:	0000                	unimp
    3c9e:	0000                	unimp
    3ca0:	0000                	unimp
    3ca2:	0000                	unimp
    3ca4:	0000                	unimp
    3ca6:	0000                	unimp
    3ca8:	0000                	unimp
    3caa:	0000                	unimp
    3cac:	0000                	unimp
    3cae:	0000                	unimp
    3cb0:	0000                	unimp
    3cb2:	0000                	unimp
    3cb4:	0000                	unimp
    3cb6:	0000                	unimp
    3cb8:	0000                	unimp
    3cba:	0000                	unimp
    3cbc:	0000                	unimp
    3cbe:	0000                	unimp
    3cc0:	0000                	unimp
    3cc2:	0000                	unimp
    3cc4:	0000                	unimp
    3cc6:	0000                	unimp
    3cc8:	0000                	unimp
    3cca:	0000                	unimp
    3ccc:	0000                	unimp
    3cce:	0000                	unimp
    3cd0:	0000                	unimp
    3cd2:	0000                	unimp
    3cd4:	0000                	unimp
    3cd6:	0000                	unimp
    3cd8:	0000                	unimp
    3cda:	0000                	unimp
    3cdc:	0000                	unimp
    3cde:	0000                	unimp
    3ce0:	0000                	unimp
    3ce2:	0000                	unimp
    3ce4:	0000                	unimp
    3ce6:	0000                	unimp
    3ce8:	0000                	unimp
    3cea:	0000                	unimp
    3cec:	0000                	unimp
    3cee:	0000                	unimp
    3cf0:	0000                	unimp
    3cf2:	0000                	unimp
    3cf4:	0000                	unimp
    3cf6:	0000                	unimp
    3cf8:	0000                	unimp
    3cfa:	0000                	unimp
    3cfc:	0000                	unimp
    3cfe:	0000                	unimp
    3d00:	0000                	unimp
    3d02:	0000                	unimp
    3d04:	0000                	unimp
    3d06:	0000                	unimp
    3d08:	0000                	unimp
    3d0a:	0000                	unimp
    3d0c:	0000                	unimp
    3d0e:	0000                	unimp
    3d10:	0000                	unimp
    3d12:	0000                	unimp
    3d14:	0000                	unimp
    3d16:	0000                	unimp
    3d18:	0000                	unimp
    3d1a:	0000                	unimp
    3d1c:	0000                	unimp
    3d1e:	0000                	unimp
    3d20:	0000                	unimp
    3d22:	0000                	unimp
    3d24:	0000                	unimp
    3d26:	0000                	unimp
    3d28:	0000                	unimp
    3d2a:	0000                	unimp
    3d2c:	0000                	unimp
    3d2e:	0000                	unimp
    3d30:	0000                	unimp
    3d32:	0000                	unimp
    3d34:	0000                	unimp
    3d36:	0000                	unimp
    3d38:	0000                	unimp
    3d3a:	0000                	unimp
    3d3c:	0000                	unimp
    3d3e:	0000                	unimp
    3d40:	0000                	unimp
    3d42:	0000                	unimp
    3d44:	0000                	unimp
    3d46:	0000                	unimp
    3d48:	0000                	unimp
    3d4a:	0000                	unimp
    3d4c:	0000                	unimp
    3d4e:	0000                	unimp
    3d50:	0000                	unimp
    3d52:	0000                	unimp
    3d54:	0000                	unimp
    3d56:	0000                	unimp
    3d58:	0000                	unimp
    3d5a:	0000                	unimp
    3d5c:	0000                	unimp
    3d5e:	0000                	unimp
    3d60:	0000                	unimp
    3d62:	0000                	unimp
    3d64:	0000                	unimp
    3d66:	0000                	unimp
    3d68:	0000                	unimp
    3d6a:	0000                	unimp
    3d6c:	0000                	unimp
    3d6e:	0000                	unimp
    3d70:	0000                	unimp
    3d72:	0000                	unimp
    3d74:	0000                	unimp
    3d76:	0000                	unimp
    3d78:	0000                	unimp
    3d7a:	0000                	unimp
    3d7c:	0000                	unimp
    3d7e:	0000                	unimp
    3d80:	0000                	unimp
    3d82:	0000                	unimp
    3d84:	0000                	unimp
    3d86:	0000                	unimp
    3d88:	0000                	unimp
    3d8a:	0000                	unimp
    3d8c:	0000                	unimp
    3d8e:	0000                	unimp
    3d90:	0000                	unimp
    3d92:	0000                	unimp
    3d94:	0000                	unimp
    3d96:	0000                	unimp
    3d98:	0000                	unimp
    3d9a:	0000                	unimp
    3d9c:	0000                	unimp
    3d9e:	0000                	unimp
    3da0:	0000                	unimp
    3da2:	0000                	unimp
    3da4:	0000                	unimp
    3da6:	0000                	unimp
    3da8:	0000                	unimp
    3daa:	0000                	unimp
    3dac:	0000                	unimp
    3dae:	0000                	unimp
    3db0:	0000                	unimp
    3db2:	0000                	unimp
    3db4:	0000                	unimp
    3db6:	0000                	unimp
    3db8:	0000                	unimp
    3dba:	0000                	unimp
    3dbc:	0000                	unimp
    3dbe:	0000                	unimp
    3dc0:	0000                	unimp
    3dc2:	0000                	unimp
    3dc4:	0000                	unimp
    3dc6:	0000                	unimp
    3dc8:	0000                	unimp
    3dca:	0000                	unimp
    3dcc:	0000                	unimp
    3dce:	0000                	unimp
    3dd0:	0000                	unimp
    3dd2:	0000                	unimp
    3dd4:	0000                	unimp
    3dd6:	0000                	unimp
    3dd8:	0000                	unimp
    3dda:	0000                	unimp
    3ddc:	0000                	unimp
    3dde:	0000                	unimp
    3de0:	0000                	unimp
    3de2:	0000                	unimp
    3de4:	0000                	unimp
    3de6:	0000                	unimp
    3de8:	0000                	unimp
    3dea:	0000                	unimp
    3dec:	0000                	unimp
    3dee:	0000                	unimp
    3df0:	0000                	unimp
    3df2:	0000                	unimp
    3df4:	0000                	unimp
    3df6:	0000                	unimp
    3df8:	0000                	unimp
    3dfa:	0000                	unimp
    3dfc:	0000                	unimp
    3dfe:	0000                	unimp
    3e00:	0000                	unimp
    3e02:	0000                	unimp
    3e04:	0000                	unimp
    3e06:	0000                	unimp
    3e08:	0000                	unimp
    3e0a:	0000                	unimp
    3e0c:	0000                	unimp
    3e0e:	0000                	unimp
    3e10:	0000                	unimp
    3e12:	0000                	unimp
    3e14:	0000                	unimp
    3e16:	0000                	unimp
    3e18:	0000                	unimp
    3e1a:	0000                	unimp
    3e1c:	0000                	unimp
    3e1e:	0000                	unimp
    3e20:	0000                	unimp
    3e22:	0000                	unimp
    3e24:	0000                	unimp
    3e26:	0000                	unimp
    3e28:	0000                	unimp
    3e2a:	0000                	unimp
    3e2c:	0000                	unimp
    3e2e:	0000                	unimp
    3e30:	0000                	unimp
    3e32:	0000                	unimp
    3e34:	0000                	unimp
    3e36:	0000                	unimp
    3e38:	0000                	unimp
    3e3a:	0000                	unimp
    3e3c:	0000                	unimp
    3e3e:	0000                	unimp
    3e40:	0000                	unimp
    3e42:	0000                	unimp
    3e44:	0000                	unimp
    3e46:	0000                	unimp
    3e48:	0000                	unimp
    3e4a:	0000                	unimp
    3e4c:	0000                	unimp
    3e4e:	0000                	unimp
    3e50:	0000                	unimp
    3e52:	0000                	unimp
    3e54:	0000                	unimp
    3e56:	0000                	unimp
    3e58:	0000                	unimp
    3e5a:	0000                	unimp
    3e5c:	0000                	unimp
    3e5e:	0000                	unimp
    3e60:	0000                	unimp
    3e62:	0000                	unimp
    3e64:	0000                	unimp
    3e66:	0000                	unimp
    3e68:	0000                	unimp
    3e6a:	0000                	unimp
    3e6c:	0000                	unimp
    3e6e:	0000                	unimp
    3e70:	0000                	unimp
    3e72:	0000                	unimp
    3e74:	0000                	unimp
    3e76:	0000                	unimp
    3e78:	0000                	unimp
    3e7a:	0000                	unimp
    3e7c:	0000                	unimp
    3e7e:	0000                	unimp
    3e80:	0000                	unimp
    3e82:	0000                	unimp
    3e84:	0000                	unimp
    3e86:	0000                	unimp
    3e88:	0000                	unimp
    3e8a:	0000                	unimp
    3e8c:	0000                	unimp
    3e8e:	0000                	unimp
    3e90:	0000                	unimp
    3e92:	0000                	unimp
    3e94:	0000                	unimp
    3e96:	0000                	unimp
    3e98:	0000                	unimp
    3e9a:	0000                	unimp
    3e9c:	0000                	unimp
    3e9e:	0000                	unimp
    3ea0:	0000                	unimp
    3ea2:	0000                	unimp
    3ea4:	0000                	unimp
    3ea6:	0000                	unimp
    3ea8:	0000                	unimp
    3eaa:	0000                	unimp
    3eac:	0000                	unimp
    3eae:	0000                	unimp
    3eb0:	0000                	unimp
    3eb2:	0000                	unimp
    3eb4:	0000                	unimp
    3eb6:	0000                	unimp
    3eb8:	0000                	unimp
    3eba:	0000                	unimp
    3ebc:	0000                	unimp
    3ebe:	0000                	unimp
    3ec0:	0000                	unimp
    3ec2:	0000                	unimp
    3ec4:	0000                	unimp
    3ec6:	0000                	unimp
    3ec8:	0000                	unimp
    3eca:	0000                	unimp
    3ecc:	0000                	unimp
    3ece:	0000                	unimp
    3ed0:	0000                	unimp
    3ed2:	0000                	unimp
    3ed4:	0000                	unimp
    3ed6:	0000                	unimp
    3ed8:	0000                	unimp
    3eda:	0000                	unimp
    3edc:	0000                	unimp
    3ede:	0000                	unimp
    3ee0:	0000                	unimp
    3ee2:	0000                	unimp
    3ee4:	0000                	unimp
    3ee6:	0000                	unimp
    3ee8:	0000                	unimp
    3eea:	0000                	unimp
    3eec:	0000                	unimp
    3eee:	0000                	unimp
    3ef0:	0000                	unimp
    3ef2:	0000                	unimp
    3ef4:	0000                	unimp
    3ef6:	0000                	unimp
    3ef8:	0000                	unimp
    3efa:	0000                	unimp
    3efc:	0000                	unimp
    3efe:	0000                	unimp
    3f00:	0000                	unimp
    3f02:	0000                	unimp
    3f04:	0000                	unimp
    3f06:	0000                	unimp
    3f08:	0000                	unimp
    3f0a:	0000                	unimp
    3f0c:	0000                	unimp
    3f0e:	0000                	unimp
    3f10:	0000                	unimp
    3f12:	0000                	unimp
    3f14:	0000                	unimp
    3f16:	0000                	unimp
    3f18:	0000                	unimp
    3f1a:	0000                	unimp
    3f1c:	0000                	unimp
    3f1e:	0000                	unimp
    3f20:	0000                	unimp
    3f22:	0000                	unimp
    3f24:	0000                	unimp
    3f26:	0000                	unimp
    3f28:	0000                	unimp
    3f2a:	0000                	unimp
    3f2c:	0000                	unimp
    3f2e:	0000                	unimp
    3f30:	0000                	unimp
    3f32:	0000                	unimp
    3f34:	0000                	unimp
    3f36:	0000                	unimp
    3f38:	0000                	unimp
    3f3a:	0000                	unimp
    3f3c:	0000                	unimp
    3f3e:	0000                	unimp
    3f40:	0000                	unimp
    3f42:	0000                	unimp
    3f44:	0000                	unimp
    3f46:	0000                	unimp
    3f48:	0000                	unimp
    3f4a:	0000                	unimp
    3f4c:	0000                	unimp
    3f4e:	0000                	unimp
    3f50:	0000                	unimp
    3f52:	0000                	unimp
    3f54:	0000                	unimp
    3f56:	0000                	unimp
    3f58:	0000                	unimp
    3f5a:	0000                	unimp
    3f5c:	0000                	unimp
    3f5e:	0000                	unimp
    3f60:	0000                	unimp
    3f62:	0000                	unimp
    3f64:	0000                	unimp
    3f66:	0000                	unimp
    3f68:	0000                	unimp
    3f6a:	0000                	unimp
    3f6c:	0000                	unimp
    3f6e:	0000                	unimp
    3f70:	0000                	unimp
    3f72:	0000                	unimp
    3f74:	0000                	unimp
    3f76:	0000                	unimp
    3f78:	0000                	unimp
    3f7a:	0000                	unimp
    3f7c:	0000                	unimp
    3f7e:	0000                	unimp
    3f80:	0000                	unimp
    3f82:	0000                	unimp
    3f84:	0000                	unimp
    3f86:	0000                	unimp
    3f88:	0000                	unimp
    3f8a:	0000                	unimp
    3f8c:	0000                	unimp
    3f8e:	0000                	unimp
    3f90:	0000                	unimp
    3f92:	0000                	unimp
    3f94:	0000                	unimp
    3f96:	0000                	unimp
    3f98:	0000                	unimp
    3f9a:	0000                	unimp
    3f9c:	0000                	unimp
    3f9e:	0000                	unimp
    3fa0:	0000                	unimp
    3fa2:	0000                	unimp
    3fa4:	0000                	unimp
    3fa6:	0000                	unimp
    3fa8:	0000                	unimp
    3faa:	0000                	unimp
    3fac:	0000                	unimp
    3fae:	0000                	unimp
    3fb0:	0000                	unimp
    3fb2:	0000                	unimp
    3fb4:	0000                	unimp
    3fb6:	0000                	unimp
    3fb8:	0000                	unimp
    3fba:	0000                	unimp
    3fbc:	0000                	unimp
    3fbe:	0000                	unimp
    3fc0:	0000                	unimp
    3fc2:	0000                	unimp
    3fc4:	0000                	unimp
    3fc6:	0000                	unimp
    3fc8:	0000                	unimp
    3fca:	0000                	unimp
    3fcc:	0000                	unimp
    3fce:	0000                	unimp
    3fd0:	0000                	unimp
    3fd2:	0000                	unimp
    3fd4:	0000                	unimp
    3fd6:	0000                	unimp
    3fd8:	0000                	unimp
    3fda:	0000                	unimp
    3fdc:	0000                	unimp
    3fde:	0000                	unimp
    3fe0:	0000                	unimp
    3fe2:	0000                	unimp
    3fe4:	0000                	unimp
    3fe6:	0000                	unimp
    3fe8:	0000                	unimp
    3fea:	0000                	unimp
    3fec:	0000                	unimp
    3fee:	0000                	unimp
    3ff0:	0000                	unimp
    3ff2:	0000                	unimp
    3ff4:	0000                	unimp
    3ff6:	0000                	unimp
    3ff8:	0000                	unimp
    3ffa:	0000                	unimp
    3ffc:	0000                	unimp
    3ffe:	0000                	unimp

0000000000004000 <userstart>:
    4000:	00ff10b7          	lui	ra,0xff1
    4004:	f000809b          	addiw	ra,ra,-256
    4008:	f0f0c193          	xori	gp,ra,-241
    400c:	ff00feb7          	lui	t4,0xff00f
    4010:	00fe8e9b          	addiw	t4,t4,15
    4014:	00200e13          	li	t3,2
    4018:	1dd19663          	bne	gp,t4,41e4 <fail>

000000000000401c <test_3>:
    401c:	0ff010b7          	lui	ra,0xff01
    4020:	ff00809b          	addiw	ra,ra,-16
    4024:	0f00c193          	xori	gp,ra,240
    4028:	0ff01eb7          	lui	t4,0xff01
    402c:	f00e8e9b          	addiw	t4,t4,-256
    4030:	00300e13          	li	t3,3
    4034:	1bd19863          	bne	gp,t4,41e4 <fail>

0000000000004038 <test_4>:
    4038:	00ff10b7          	lui	ra,0xff1
    403c:	8ff0809b          	addiw	ra,ra,-1793
    4040:	70f0c193          	xori	gp,ra,1807
    4044:	00ff1eb7          	lui	t4,0xff1
    4048:	ff0e8e9b          	addiw	t4,t4,-16
    404c:	00400e13          	li	t3,4
    4050:	19d19a63          	bne	gp,t4,41e4 <fail>

0000000000004054 <test_5>:
    4054:	f00ff0b7          	lui	ra,0xf00ff
    4058:	00f0809b          	addiw	ra,ra,15
    405c:	0f00c193          	xori	gp,ra,240
    4060:	f00ffeb7          	lui	t4,0xf00ff
    4064:	0ffe8e9b          	addiw	t4,t4,255
    4068:	00500e13          	li	t3,5
    406c:	17d19c63          	bne	gp,t4,41e4 <fail>

0000000000004070 <test_6>:
    4070:	ff00f0b7          	lui	ra,0xff00f
    4074:	7000809b          	addiw	ra,ra,1792
    4078:	70f0c093          	xori	ra,ra,1807
    407c:	ff00feb7          	lui	t4,0xff00f
    4080:	00fe8e9b          	addiw	t4,t4,15
    4084:	00600e13          	li	t3,6
    4088:	15d09e63          	bne	ra,t4,41e4 <fail>

000000000000408c <test_7>:
    408c:	00000213          	li	tp,0
    4090:	0ff010b7          	lui	ra,0xff01
    4094:	ff00809b          	addiw	ra,ra,-16
    4098:	0f00c193          	xori	gp,ra,240
    409c:	00018313          	mv	t1,gp
    40a0:	00120213          	addi	tp,tp,1 # 1 <entry_from_user-0xff>
    40a4:	00200293          	li	t0,2
    40a8:	fe5214e3          	bne	tp,t0,4090 <test_7+0x4>
    40ac:	0ff01eb7          	lui	t4,0xff01
    40b0:	f00e8e9b          	addiw	t4,t4,-256
    40b4:	00700e13          	li	t3,7
    40b8:	13d31663          	bne	t1,t4,41e4 <fail>

00000000000040bc <test_8>:
    40bc:	00000213          	li	tp,0
    40c0:	00ff10b7          	lui	ra,0xff1
    40c4:	8ff0809b          	addiw	ra,ra,-1793
    40c8:	70f0c193          	xori	gp,ra,1807
    40cc:	00000013          	nop
    40d0:	00018313          	mv	t1,gp
    40d4:	00120213          	addi	tp,tp,1 # 1 <entry_from_user-0xff>
    40d8:	00200293          	li	t0,2
    40dc:	fe5212e3          	bne	tp,t0,40c0 <test_8+0x4>
    40e0:	00ff1eb7          	lui	t4,0xff1
    40e4:	ff0e8e9b          	addiw	t4,t4,-16
    40e8:	00800e13          	li	t3,8
    40ec:	0fd31c63          	bne	t1,t4,41e4 <fail>

00000000000040f0 <test_9>:
    40f0:	00000213          	li	tp,0
    40f4:	f00ff0b7          	lui	ra,0xf00ff
    40f8:	00f0809b          	addiw	ra,ra,15
    40fc:	0f00c193          	xori	gp,ra,240
    4100:	00000013          	nop
    4104:	00000013          	nop
    4108:	00018313          	mv	t1,gp
    410c:	00120213          	addi	tp,tp,1 # 1 <entry_from_user-0xff>
    4110:	00200293          	li	t0,2
    4114:	fe5210e3          	bne	tp,t0,40f4 <test_9+0x4>
    4118:	f00ffeb7          	lui	t4,0xf00ff
    411c:	0ffe8e9b          	addiw	t4,t4,255
    4120:	00900e13          	li	t3,9
    4124:	0dd31063          	bne	t1,t4,41e4 <fail>

0000000000004128 <test_10>:
    4128:	00000213          	li	tp,0
    412c:	0ff010b7          	lui	ra,0xff01
    4130:	ff00809b          	addiw	ra,ra,-16
    4134:	0f00c193          	xori	gp,ra,240
    4138:	00120213          	addi	tp,tp,1 # 1 <entry_from_user-0xff>
    413c:	00200293          	li	t0,2
    4140:	fe5216e3          	bne	tp,t0,412c <test_10+0x4>
    4144:	0ff01eb7          	lui	t4,0xff01
    4148:	f00e8e9b          	addiw	t4,t4,-256
    414c:	00a00e13          	li	t3,10
    4150:	09d19a63          	bne	gp,t4,41e4 <fail>

0000000000004154 <test_11>:
    4154:	00000213          	li	tp,0
    4158:	00ff10b7          	lui	ra,0xff1
    415c:	fff0809b          	addiw	ra,ra,-1
    4160:	00000013          	nop
    4164:	00f0c193          	xori	gp,ra,15
    4168:	00120213          	addi	tp,tp,1 # 1 <entry_from_user-0xff>
    416c:	00200293          	li	t0,2
    4170:	fe5214e3          	bne	tp,t0,4158 <test_11+0x4>
    4174:	00ff1eb7          	lui	t4,0xff1
    4178:	ff0e8e9b          	addiw	t4,t4,-16
    417c:	00b00e13          	li	t3,11
    4180:	07d19263          	bne	gp,t4,41e4 <fail>

0000000000004184 <test_12>:
    4184:	00000213          	li	tp,0
    4188:	f00ff0b7          	lui	ra,0xf00ff
    418c:	00f0809b          	addiw	ra,ra,15
    4190:	00000013          	nop
    4194:	00000013          	nop
    4198:	0f00c193          	xori	gp,ra,240
    419c:	00120213          	addi	tp,tp,1 # 1 <entry_from_user-0xff>
    41a0:	00200293          	li	t0,2
    41a4:	fe5212e3          	bne	tp,t0,4188 <test_12+0x4>
    41a8:	f00ffeb7          	lui	t4,0xf00ff
    41ac:	0ffe8e9b          	addiw	t4,t4,255
    41b0:	00c00e13          	li	t3,12
    41b4:	03d19863          	bne	gp,t4,41e4 <fail>

00000000000041b8 <test_13>:
    41b8:	0f004093          	xori	ra,zero,240
    41bc:	0f000e93          	li	t4,240
    41c0:	00d00e13          	li	t3,13
    41c4:	03d09063          	bne	ra,t4,41e4 <fail>

00000000000041c8 <test_14>:
    41c8:	00ff00b7          	lui	ra,0xff0
    41cc:	0ff0809b          	addiw	ra,ra,255
    41d0:	70f0c013          	xori	zero,ra,1807
    41d4:	00000e93          	li	t4,0
    41d8:	00e00e13          	li	t3,14
    41dc:	01d01463          	bne	zero,t4,41e4 <fail>
    41e0:	01c01a63          	bne	zero,t3,41f4 <pass>

00000000000041e4 <fail>:
    41e4:	001e1513          	slli	a0,t3,0x1
    41e8:	00050063          	beqz	a0,41e8 <fail+0x4>
    41ec:	00156513          	ori	a0,a0,1
    41f0:	00000073          	ecall

00000000000041f4 <pass>:
    41f4:	00100513          	li	a0,1
    41f8:	00000073          	ecall

00000000000041fc <ecall>:
    41fc:	00000073          	ecall
    4200:	ffdff06f          	j	41fc <ecall>

0000000000004204 <memcmp>:
    4204:	00700693          	li	a3,7
    4208:	06c6f263          	bleu	a2,a3,426c <memcmp+0x68>
    420c:	00b567b3          	or	a5,a0,a1
    4210:	00d7f7b3          	and	a5,a5,a3
    4214:	02078e63          	beqz	a5,4250 <memcmp+0x4c>
    4218:	0005c683          	lbu	a3,0(a1)
    421c:	00054703          	lbu	a4,0(a0)
    4220:	00158793          	addi	a5,a1,1
    4224:	00c585b3          	add	a1,a1,a2
    4228:	00d70c63          	beq	a4,a3,4240 <memcmp+0x3c>
    422c:	0480006f          	j	4274 <memcmp+0x70>
    4230:	00178793          	addi	a5,a5,1
    4234:	00054703          	lbu	a4,0(a0)
    4238:	fff7c683          	lbu	a3,-1(a5)
    423c:	02d71c63          	bne	a4,a3,4274 <memcmp+0x70>
    4240:	00150513          	addi	a0,a0,1
    4244:	feb796e3          	bne	a5,a1,4230 <memcmp+0x2c>
    4248:	00000513          	li	a0,0
    424c:	00008067          	ret
    4250:	00053703          	ld	a4,0(a0)
    4254:	0005b783          	ld	a5,0(a1)
    4258:	fcf710e3          	bne	a4,a5,4218 <memcmp+0x14>
    425c:	ff860613          	addi	a2,a2,-8
    4260:	00850513          	addi	a0,a0,8
    4264:	00858593          	addi	a1,a1,8
    4268:	fec6e4e3          	bltu	a3,a2,4250 <memcmp+0x4c>
    426c:	fa0616e3          	bnez	a2,4218 <memcmp+0x14>
    4270:	fd9ff06f          	j	4248 <memcmp+0x44>
    4274:	40d7053b          	subw	a0,a4,a3
    4278:	00008067          	ret

000000000000427c <memset>:
    427c:	00f00813          	li	a6,15
    4280:	00050713          	mv	a4,a0
    4284:	02c87a63          	bleu	a2,a6,42b8 <memset+0x3c>
    4288:	00f77793          	andi	a5,a4,15
    428c:	0a079063          	bnez	a5,432c <memset+0xb0>
    4290:	06059e63          	bnez	a1,430c <memset+0x90>
    4294:	ff067693          	andi	a3,a2,-16
    4298:	00f67613          	andi	a2,a2,15
    429c:	00e686b3          	add	a3,a3,a4
    42a0:	00b73023          	sd	a1,0(a4)
    42a4:	00b73423          	sd	a1,8(a4)
    42a8:	01070713          	addi	a4,a4,16
    42ac:	fed76ae3          	bltu	a4,a3,42a0 <memset+0x24>
    42b0:	00061463          	bnez	a2,42b8 <memset+0x3c>
    42b4:	00008067          	ret
    42b8:	40c806b3          	sub	a3,a6,a2
    42bc:	00269693          	slli	a3,a3,0x2
    42c0:	00000297          	auipc	t0,0x0
    42c4:	005686b3          	add	a3,a3,t0
    42c8:	00c68067          	jr	a3,12
    42cc:	00b70723          	sb	a1,14(a4)
    42d0:	00b706a3          	sb	a1,13(a4)
    42d4:	00b70623          	sb	a1,12(a4)
    42d8:	00b705a3          	sb	a1,11(a4)
    42dc:	00b70523          	sb	a1,10(a4)
    42e0:	00b704a3          	sb	a1,9(a4)
    42e4:	00b70423          	sb	a1,8(a4)
    42e8:	00b703a3          	sb	a1,7(a4)
    42ec:	00b70323          	sb	a1,6(a4)
    42f0:	00b702a3          	sb	a1,5(a4)
    42f4:	00b70223          	sb	a1,4(a4)
    42f8:	00b701a3          	sb	a1,3(a4)
    42fc:	00b70123          	sb	a1,2(a4)
    4300:	00b700a3          	sb	a1,1(a4)
    4304:	00b70023          	sb	a1,0(a4)
    4308:	00008067          	ret
    430c:	0ff5f593          	andi	a1,a1,255
    4310:	00859693          	slli	a3,a1,0x8
    4314:	00d5e5b3          	or	a1,a1,a3
    4318:	01059693          	slli	a3,a1,0x10
    431c:	00d5e5b3          	or	a1,a1,a3
    4320:	02059693          	slli	a3,a1,0x20
    4324:	00d5e5b3          	or	a1,a1,a3
    4328:	f6dff06f          	j	4294 <memset+0x18>
    432c:	00279693          	slli	a3,a5,0x2
    4330:	00000297          	auipc	t0,0x0
    4334:	005686b3          	add	a3,a3,t0
    4338:	00008293          	mv	t0,ra
    433c:	f98680e7          	jalr	a3,-104
    4340:	00028093          	mv	ra,t0
    4344:	ff078793          	addi	a5,a5,-16
    4348:	40f70733          	sub	a4,a4,a5
    434c:	00f60633          	add	a2,a2,a5
    4350:	f6c874e3          	bleu	a2,a6,42b8 <memset+0x3c>
    4354:	f3dff06f          	j	4290 <memset+0x14>
