
rv64uf-p-fdiv:     file format elf64-littleriscv


Disassembly of section .text:

0000000000000100 <tvec_user>:
 100:	00000f17          	auipc	t5,0x0
 104:	4c4f0f13          	addi	t5,t5,1220 # 5c4 <ecall>
 108:	34102ff3          	csrr	t6,mepc
 10c:	07ff0c63          	beq	t5,t6,184 <write_tohost>
 110:	00000f17          	auipc	t5,0x0
 114:	ef0f0f13          	addi	t5,t5,-272 # 0 <tvec_user-0x100>
 118:	020f1863          	bnez	t5,148 <mrts_routine>
 11c:	00000f17          	auipc	t5,0x0
 120:	ee4f0f13          	addi	t5,t5,-284 # 0 <tvec_user-0x100>
 124:	000f0463          	beqz	t5,12c <tvec_user+0x2c>
 128:	ed9ff06f          	j	0 <tvec_user-0x100>
 12c:	0540006f          	j	180 <other_exception>
 130:	00000013          	nop
 134:	00000013          	nop
 138:	00000013          	nop
 13c:	00000013          	nop

0000000000000140 <tvec_supervisor>:
 140:	34202f73          	csrr	t5,mcause
 144:	fa0f5ee3          	bgez	t5,100 <tvec_user>

0000000000000148 <mrts_routine>:
 148:	30500073          	mrts
 14c:	00000013          	nop
 150:	00000013          	nop
 154:	00000013          	nop
 158:	00000013          	nop
 15c:	00000013          	nop
 160:	00000013          	nop
 164:	00000013          	nop
 168:	00000013          	nop
 16c:	00000013          	nop
 170:	00000013          	nop
 174:	00000013          	nop
 178:	00000013          	nop
 17c:	00000013          	nop

0000000000000180 <other_exception>:
 180:	539e6e13          	ori	t3,t3,1337

0000000000000184 <write_tohost>:
 184:	780e1073          	csrw	mtohost,t3
 188:	ffdff06f          	j	184 <write_tohost>
 18c:	00000013          	nop
 190:	00000013          	nop
 194:	00000013          	nop
 198:	00000013          	nop
 19c:	00000013          	nop
 1a0:	00000013          	nop
 1a4:	00000013          	nop
 1a8:	00000013          	nop
 1ac:	00000013          	nop
 1b0:	00000013          	nop
 1b4:	00000013          	nop
 1b8:	00000013          	nop
 1bc:	00000013          	nop

00000000000001c0 <tvec_machine>:
 1c0:	00000f17          	auipc	t5,0x0
 1c4:	404f0f13          	addi	t5,t5,1028 # 5c4 <ecall>
 1c8:	34102ff3          	csrr	t6,mepc
 1cc:	fbff0ce3          	beq	t5,t6,184 <write_tohost>
 1d0:	00000f17          	auipc	t5,0x0
 1d4:	e30f0f13          	addi	t5,t5,-464 # 0 <tvec_user-0x100>
 1d8:	000f0463          	beqz	t5,1e0 <tvec_machine+0x20>
 1dc:	e25ff06f          	j	0 <tvec_user-0x100>
 1e0:	fa1ff06f          	j	180 <other_exception>
 1e4:	00000013          	nop
 1e8:	00000013          	nop
 1ec:	00000013          	nop
 1f0:	00000013          	nop
 1f4:	00000013          	nop
 1f8:	00000013          	nop
 1fc:	00000013          	nop

0000000000000200 <_start>:
 200:	f1002573          	csrr	a0,mhartid
 204:	00051063          	bnez	a0,204 <_start+0x4>
 208:	f0002573          	csrr	a0,mcpuid
 20c:	00054863          	bltz	a0,21c <_start+0x1c>
 210:	0ff0000f          	fence
 214:	00100e13          	li	t3,1
 218:	3ac0006f          	j	5c4 <ecall>
 21c:	00000e13          	li	t3,0
 220:	00000297          	auipc	t0,0x0
 224:	de028293          	addi	t0,t0,-544 # 0 <tvec_user-0x100>
 228:	00028463          	beqz	t0,230 <_start+0x30>
 22c:	10129073          	csrw	stvec,t0
 230:	1f800293          	li	t0,504
 234:	3002b073          	csrc	mstatus,t0
 238:	00001537          	lui	a0,0x1
 23c:	30052073          	csrs	mstatus,a0
 240:	00305073          	csrwi	fcsr,0
 244:	00000297          	auipc	t0,0x0
 248:	01428293          	addi	t0,t0,20 # 258 <test_2>
 24c:	34129073          	csrw	mepc,t0
 250:	f1002573          	csrr	a0,mhartid
 254:	10000073          	eret

0000000000000258 <test_2>:
 258:	00200e13          	li	t3,2
 25c:	00001517          	auipc	a0,0x1
 260:	da450513          	addi	a0,a0,-604 # 1000 <test_2_data>
 264:	00052007          	flw	ft0,0(a0)
 268:	00452087          	flw	ft1,4(a0)
 26c:	00852107          	flw	ft2,8(a0)
 270:	00c52683          	lw	a3,12(a0)
 274:	181071d3          	fdiv.s	ft3,ft0,ft1
 278:	e0018553          	fmv.x.s	a0,ft3
 27c:	001015f3          	fsflags	a1,zero
 280:	00100613          	li	a2,1
 284:	32d51063          	bne	a0,a3,5a4 <fail>
 288:	30c59e63          	bne	a1,a2,5a4 <fail>
 28c:	0040006f          	j	290 <test_3>

0000000000000290 <test_3>:
 290:	00300e13          	li	t3,3
 294:	00001517          	auipc	a0,0x1
 298:	d7c50513          	addi	a0,a0,-644 # 1010 <test_3_data>
 29c:	00052007          	flw	ft0,0(a0)
 2a0:	00452087          	flw	ft1,4(a0)
 2a4:	00852107          	flw	ft2,8(a0)
 2a8:	00c52683          	lw	a3,12(a0)
 2ac:	181071d3          	fdiv.s	ft3,ft0,ft1
 2b0:	e0018553          	fmv.x.s	a0,ft3
 2b4:	001015f3          	fsflags	a1,zero
 2b8:	00100613          	li	a2,1
 2bc:	2ed51463          	bne	a0,a3,5a4 <fail>
 2c0:	2ec59263          	bne	a1,a2,5a4 <fail>
 2c4:	0040006f          	j	2c8 <test_4>

00000000000002c8 <test_4>:
 2c8:	00400e13          	li	t3,4
 2cc:	00001517          	auipc	a0,0x1
 2d0:	d5450513          	addi	a0,a0,-684 # 1020 <test_4_data>
 2d4:	00052007          	flw	ft0,0(a0)
 2d8:	00452087          	flw	ft1,4(a0)
 2dc:	00852107          	flw	ft2,8(a0)
 2e0:	00c52683          	lw	a3,12(a0)
 2e4:	181071d3          	fdiv.s	ft3,ft0,ft1
 2e8:	e0018553          	fmv.x.s	a0,ft3
 2ec:	001015f3          	fsflags	a1,zero
 2f0:	00000613          	li	a2,0
 2f4:	2ad51863          	bne	a0,a3,5a4 <fail>
 2f8:	2ac59663          	bne	a1,a2,5a4 <fail>
 2fc:	0040006f          	j	300 <test_5>

0000000000000300 <test_5>:
 300:	00500e13          	li	t3,5
 304:	00001517          	auipc	a0,0x1
 308:	d2c50513          	addi	a0,a0,-724 # 1030 <test_5_data>
 30c:	00053007          	fld	ft0,0(a0)
 310:	00853087          	fld	ft1,8(a0)
 314:	01053107          	fld	ft2,16(a0)
 318:	01853683          	ld	a3,24(a0)
 31c:	1a1071d3          	fdiv.d	ft3,ft0,ft1
 320:	e2018553          	fmv.x.d	a0,ft3
 324:	001015f3          	fsflags	a1,zero
 328:	00100613          	li	a2,1
 32c:	26d51c63          	bne	a0,a3,5a4 <fail>
 330:	26c59a63          	bne	a1,a2,5a4 <fail>
 334:	0040006f          	j	338 <test_6>

0000000000000338 <test_6>:
 338:	00600e13          	li	t3,6
 33c:	00001517          	auipc	a0,0x1
 340:	d1450513          	addi	a0,a0,-748 # 1050 <test_6_data>
 344:	00053007          	fld	ft0,0(a0)
 348:	00853087          	fld	ft1,8(a0)
 34c:	01053107          	fld	ft2,16(a0)
 350:	01853683          	ld	a3,24(a0)
 354:	1a1071d3          	fdiv.d	ft3,ft0,ft1
 358:	e2018553          	fmv.x.d	a0,ft3
 35c:	001015f3          	fsflags	a1,zero
 360:	00100613          	li	a2,1
 364:	24d51063          	bne	a0,a3,5a4 <fail>
 368:	22c59e63          	bne	a1,a2,5a4 <fail>
 36c:	0040006f          	j	370 <test_7>

0000000000000370 <test_7>:
 370:	00700e13          	li	t3,7
 374:	00001517          	auipc	a0,0x1
 378:	cfc50513          	addi	a0,a0,-772 # 1070 <test_7_data>
 37c:	00053007          	fld	ft0,0(a0)
 380:	00853087          	fld	ft1,8(a0)
 384:	01053107          	fld	ft2,16(a0)
 388:	01853683          	ld	a3,24(a0)
 38c:	1a1071d3          	fdiv.d	ft3,ft0,ft1
 390:	e2018553          	fmv.x.d	a0,ft3
 394:	001015f3          	fsflags	a1,zero
 398:	00000613          	li	a2,0
 39c:	20d51463          	bne	a0,a3,5a4 <fail>
 3a0:	20c59263          	bne	a1,a2,5a4 <fail>
 3a4:	0040006f          	j	3a8 <test_11>

00000000000003a8 <test_11>:
 3a8:	00b00e13          	li	t3,11
 3ac:	00001517          	auipc	a0,0x1
 3b0:	ce450513          	addi	a0,a0,-796 # 1090 <test_11_data>
 3b4:	00052007          	flw	ft0,0(a0)
 3b8:	00452087          	flw	ft1,4(a0)
 3bc:	00852107          	flw	ft2,8(a0)
 3c0:	00c52683          	lw	a3,12(a0)
 3c4:	580071d3          	fsqrt.s	ft3,ft0
 3c8:	e0018553          	fmv.x.s	a0,ft3
 3cc:	001015f3          	fsflags	a1,zero
 3d0:	00100613          	li	a2,1
 3d4:	1cd51863          	bne	a0,a3,5a4 <fail>
 3d8:	1cc59663          	bne	a1,a2,5a4 <fail>
 3dc:	0040006f          	j	3e0 <test_12>

00000000000003e0 <test_12>:
 3e0:	00c00e13          	li	t3,12
 3e4:	00001517          	auipc	a0,0x1
 3e8:	cbc50513          	addi	a0,a0,-836 # 10a0 <test_12_data>
 3ec:	00052007          	flw	ft0,0(a0)
 3f0:	00452087          	flw	ft1,4(a0)
 3f4:	00852107          	flw	ft2,8(a0)
 3f8:	00c52683          	lw	a3,12(a0)
 3fc:	580071d3          	fsqrt.s	ft3,ft0
 400:	e0018553          	fmv.x.s	a0,ft3
 404:	001015f3          	fsflags	a1,zero
 408:	00000613          	li	a2,0
 40c:	18d51c63          	bne	a0,a3,5a4 <fail>
 410:	18c59a63          	bne	a1,a2,5a4 <fail>
 414:	0040006f          	j	418 <test_13>

0000000000000418 <test_13>:
 418:	00d00e13          	li	t3,13
 41c:	00001517          	auipc	a0,0x1
 420:	c9450513          	addi	a0,a0,-876 # 10b0 <test_13_data>
 424:	00053007          	fld	ft0,0(a0)
 428:	00853087          	fld	ft1,8(a0)
 42c:	01053107          	fld	ft2,16(a0)
 430:	01853683          	ld	a3,24(a0)
 434:	5a0071d3          	fsqrt.d	ft3,ft0
 438:	e2018553          	fmv.x.d	a0,ft3
 43c:	001015f3          	fsflags	a1,zero
 440:	00100613          	li	a2,1
 444:	16d51063          	bne	a0,a3,5a4 <fail>
 448:	14c59e63          	bne	a1,a2,5a4 <fail>
 44c:	0040006f          	j	450 <test_14>

0000000000000450 <test_14>:
 450:	00e00e13          	li	t3,14
 454:	00001517          	auipc	a0,0x1
 458:	c7c50513          	addi	a0,a0,-900 # 10d0 <test_14_data>
 45c:	00053007          	fld	ft0,0(a0)
 460:	00853087          	fld	ft1,8(a0)
 464:	01053107          	fld	ft2,16(a0)
 468:	01853683          	ld	a3,24(a0)
 46c:	5a0071d3          	fsqrt.d	ft3,ft0
 470:	e2018553          	fmv.x.d	a0,ft3
 474:	001015f3          	fsflags	a1,zero
 478:	00000613          	li	a2,0
 47c:	12d51463          	bne	a0,a3,5a4 <fail>
 480:	12c59263          	bne	a1,a2,5a4 <fail>
 484:	0040006f          	j	488 <test_15>

0000000000000488 <test_15>:
 488:	00f00e13          	li	t3,15
 48c:	00001517          	auipc	a0,0x1
 490:	c6450513          	addi	a0,a0,-924 # 10f0 <test_15_data>
 494:	00052007          	flw	ft0,0(a0)
 498:	00452087          	flw	ft1,4(a0)
 49c:	00852107          	flw	ft2,8(a0)
 4a0:	00c52683          	lw	a3,12(a0)
 4a4:	580071d3          	fsqrt.s	ft3,ft0
 4a8:	e0018553          	fmv.x.s	a0,ft3
 4ac:	001015f3          	fsflags	a1,zero
 4b0:	01000613          	li	a2,16
 4b4:	0ed51863          	bne	a0,a3,5a4 <fail>
 4b8:	0ec59663          	bne	a1,a2,5a4 <fail>
 4bc:	0040006f          	j	4c0 <test_16>

00000000000004c0 <test_16>:
 4c0:	01000e13          	li	t3,16
 4c4:	00001517          	auipc	a0,0x1
 4c8:	c4450513          	addi	a0,a0,-956 # 1108 <test_16_data>
 4cc:	00053007          	fld	ft0,0(a0)
 4d0:	00853087          	fld	ft1,8(a0)
 4d4:	01053107          	fld	ft2,16(a0)
 4d8:	01853683          	ld	a3,24(a0)
 4dc:	5a0071d3          	fsqrt.d	ft3,ft0
 4e0:	e2018553          	fmv.x.d	a0,ft3
 4e4:	001015f3          	fsflags	a1,zero
 4e8:	01000613          	li	a2,16
 4ec:	0ad51c63          	bne	a0,a3,5a4 <fail>
 4f0:	0ac59a63          	bne	a1,a2,5a4 <fail>
 4f4:	0040006f          	j	4f8 <test_17>

00000000000004f8 <test_17>:
 4f8:	01100e13          	li	t3,17
 4fc:	00001517          	auipc	a0,0x1
 500:	c2c50513          	addi	a0,a0,-980 # 1128 <test_17_data>
 504:	00052007          	flw	ft0,0(a0)
 508:	00452087          	flw	ft1,4(a0)
 50c:	00852107          	flw	ft2,8(a0)
 510:	00c52683          	lw	a3,12(a0)
 514:	580071d3          	fsqrt.s	ft3,ft0
 518:	e0018553          	fmv.x.s	a0,ft3
 51c:	001015f3          	fsflags	a1,zero
 520:	00100613          	li	a2,1
 524:	08d51063          	bne	a0,a3,5a4 <fail>
 528:	06c59e63          	bne	a1,a2,5a4 <fail>
 52c:	0040006f          	j	530 <test_18>

0000000000000530 <test_18>:
 530:	01200e13          	li	t3,18
 534:	00001517          	auipc	a0,0x1
 538:	c0450513          	addi	a0,a0,-1020 # 1138 <test_18_data>
 53c:	00053007          	fld	ft0,0(a0)
 540:	00853087          	fld	ft1,8(a0)
 544:	01053107          	fld	ft2,16(a0)
 548:	01853683          	ld	a3,24(a0)
 54c:	5a0071d3          	fsqrt.d	ft3,ft0
 550:	e2018553          	fmv.x.d	a0,ft3
 554:	001015f3          	fsflags	a1,zero
 558:	00100613          	li	a2,1
 55c:	04d51463          	bne	a0,a3,5a4 <fail>
 560:	04c59263          	bne	a1,a2,5a4 <fail>
 564:	0040006f          	j	568 <test_19>

0000000000000568 <test_19>:
 568:	01300e13          	li	t3,19
 56c:	00001517          	auipc	a0,0x1
 570:	bec50513          	addi	a0,a0,-1044 # 1158 <test_19_data>
 574:	00053007          	fld	ft0,0(a0)
 578:	00853087          	fld	ft1,8(a0)
 57c:	01053107          	fld	ft2,16(a0)
 580:	01853683          	ld	a3,24(a0)
 584:	5a0071d3          	fsqrt.d	ft3,ft0
 588:	e2018553          	fmv.x.d	a0,ft3
 58c:	001015f3          	fsflags	a1,zero
 590:	00100613          	li	a2,1
 594:	00d51863          	bne	a0,a3,5a4 <fail>
 598:	00c59663          	bne	a1,a2,5a4 <fail>
 59c:	0040006f          	j	5a0 <test_19+0x38>
 5a0:	01c01c63          	bne	zero,t3,5b8 <pass>

00000000000005a4 <fail>:
 5a4:	0ff0000f          	fence
 5a8:	000e0063          	beqz	t3,5a8 <fail+0x4>
 5ac:	001e1e13          	slli	t3,t3,0x1
 5b0:	001e6e13          	ori	t3,t3,1
 5b4:	0100006f          	j	5c4 <ecall>

00000000000005b8 <pass>:
 5b8:	0ff0000f          	fence
 5bc:	00100e13          	li	t3,1
 5c0:	0040006f          	j	5c4 <ecall>

00000000000005c4 <ecall>:
 5c4:	00000073          	ecall
 5c8:	ffdff06f          	j	5c4 <ecall>
