
rv64uf-p-fdiv:     file format elf64-littleriscv


Disassembly of section .text:

0000000000000100 <tvec_user>:
 100:	00000f17          	auipc	t5,0x0
 104:	4c4f0f13          	addi	t5,t5,1220 # 5c4 <ecall>
 108:	34102ff3          	csrr	t6,mepc
 10c:	07ff0c63          	beq	t5,t6,184 <write_tohost>
 110:	00000f17          	auipc	t5,0x0
 114:	ef0f0f13          	addi	t5,t5,-272 # 0 <tvec_user-0x100>
 118:	020f1863          	bnez	t5,148 <mrts_routine>
 11c:	00000f17          	auipc	t5,0x0
 120:	ee4f0f13          	addi	t5,t5,-284 # 0 <tvec_user-0x100>
 124:	000f0463          	beqz	t5,12c <tvec_user+0x2c>
 128:	ed9ff06f          	j	0 <tvec_user-0x100>
 12c:	0540006f          	j	180 <other_exception>
 130:	00000013          	nop
 134:	00000013          	nop
 138:	00000013          	nop
 13c:	00000013          	nop

0000000000000140 <tvec_supervisor>:
 140:	34202f73          	csrr	t5,mcause
 144:	fa0f5ee3          	bgez	t5,100 <tvec_user>

0000000000000148 <mrts_routine>:
 148:	30500073          	mrts
 14c:	00000013          	nop
 150:	00000013          	nop
 154:	00000013          	nop
 158:	00000013          	nop
 15c:	00000013          	nop
 160:	00000013          	nop
 164:	00000013          	nop
 168:	00000013          	nop
 16c:	00000013          	nop
 170:	00000013          	nop
 174:	00000013          	nop
 178:	00000013          	nop
 17c:	00000013          	nop

0000000000000180 <other_exception>:
 180:	539e6e13          	ori	t3,t3,1337

0000000000000184 <write_tohost>:
 184:	780e1073          	csrw	mtohost,t3
 188:	ffdff06f          	j	184 <write_tohost>
 18c:	00000013          	nop
 190:	00000013          	nop
 194:	00000013          	nop
 198:	00000013          	nop
 19c:	00000013          	nop
 1a0:	00000013          	nop
 1a4:	00000013          	nop
 1a8:	00000013          	nop
 1ac:	00000013          	nop
 1b0:	00000013          	nop
 1b4:	00000013          	nop
 1b8:	00000013          	nop
 1bc:	00000013          	nop

00000000000001c0 <tvec_machine>:
 1c0:	00000f17          	auipc	t5,0x0
 1c4:	404f0f13          	addi	t5,t5,1028 # 5c4 <ecall>
 1c8:	34102ff3          	csrr	t6,mepc
 1cc:	fbff0ce3          	beq	t5,t6,184 <write_tohost>
 1d0:	00000f17          	auipc	t5,0x0
 1d4:	e30f0f13          	addi	t5,t5,-464 # 0 <tvec_user-0x100>
 1d8:	000f0463          	beqz	t5,1e0 <tvec_machine+0x20>
 1dc:	e25ff06f          	j	0 <tvec_user-0x100>
 1e0:	fa1ff06f          	j	180 <other_exception>
 1e4:	00000013          	nop
 1e8:	00000013          	nop
 1ec:	00000013          	nop
 1f0:	00000013          	nop
 1f4:	00000013          	nop
 1f8:	00000013          	nop
 1fc:	00000013          	nop

0000000000000200 <_start>:
 200:	f1002573          	csrr	a0,mhartid
 204:	00051063          	bnez	a0,204 <_start+0x4>
 208:	f0002573          	csrr	a0,mcpuid
 20c:	00054863          	bltz	a0,21c <_start+0x1c>
 210:	0ff0000f          	fence
 214:	00100e13          	li	t3,1
 218:	3ac0006f          	j	5c4 <ecall>
 21c:	00000e13          	li	t3,0
 220:	00000297          	auipc	t0,0x0
 224:	de028293          	addi	t0,t0,-544 # 0 <tvec_user-0x100>
 228:	00028463          	beqz	t0,230 <_start+0x30>
 22c:	10129073          	csrw	stvec,t0
 230:	1f800293          	li	t0,504
 234:	3002b073          	csrc	mstatus,t0
 238:	00001537          	lui	a0,0x1
 23c:	30052073          	csrs	mstatus,a0
 240:	00305073          	csrwi	fcsr,0
 244:	00000297          	auipc	t0,0x0
 248:	01428293          	addi	t0,t0,20 # 258 <test_2>
 24c:	34129073          	csrw	mepc,t0
 250:	f1002573          	csrr	a0,mhartid
 254:	10000073          	eret

0000000000000258 <test_2>:
 258:	00200e13          	li	t3,2
 25c:	00001517          	auipc	a0,0x1
 260:	da450513          	addi	a0,a0,-604 # 1000 <test_2_data>
 264:	00052007          	flw	ft0,0(a0)
 268:	00452087          	flw	ft1,4(a0)
 26c:	00852107          	flw	ft2,8(a0)
 270:	00c52683          	lw	a3,12(a0)
 274:	181071d3          	fdiv.s	ft3,ft0,ft1
 278:	e0018553          	fmv.x.s	a0,ft3
 27c:	001015f3          	fsflags	a1,zero
 280:	00100613          	li	a2,1
 284:	32d51063          	bne	a0,a3,5a4 <fail>
 288:	30c59e63          	bne	a1,a2,5a4 <fail>
 28c:	0040006f          	j	290 <test_3>

0000000000000290 <test_3>:
 290:	00300e13          	li	t3,3
 294:	00001517          	auipc	a0,0x1
 298:	d7c50513          	addi	a0,a0,-644 # 1010 <test_3_data>
 29c:	00052007          	flw	ft0,0(a0)
 2a0:	00452087          	flw	ft1,4(a0)
 2a4:	00852107          	flw	ft2,8(a0)
 2a8:	00c52683          	lw	a3,12(a0)
 2ac:	181071d3          	fdiv.s	ft3,ft0,ft1
 2b0:	e0018553          	fmv.x.s	a0,ft3
 2b4:	001015f3          	fsflags	a1,zero
 2b8:	00100613          	li	a2,1
 2bc:	2ed51463          	bne	a0,a3,5a4 <fail>
 2c0:	2ec59263          	bne	a1,a2,5a4 <fail>
 2c4:	0040006f          	j	2c8 <test_4>

00000000000002c8 <test_4>:
 2c8:	00400e13          	li	t3,4
 2cc:	00001517          	auipc	a0,0x1
 2d0:	d5450513          	addi	a0,a0,-684 # 1020 <test_4_data>
 2d4:	00052007          	flw	ft0,0(a0)
 2d8:	00452087          	flw	ft1,4(a0)
 2dc:	00852107          	flw	ft2,8(a0)
 2e0:	00c52683          	lw	a3,12(a0)
 2e4:	181071d3          	fdiv.s	ft3,ft0,ft1
 2e8:	e0018553          	fmv.x.s	a0,ft3
 2ec:	001015f3          	fsflags	a1,zero
 2f0:	00000613          	li	a2,0
 2f4:	2ad51863          	bne	a0,a3,5a4 <fail>
 2f8:	2ac59663          	bne	a1,a2,5a4 <fail>
 2fc:	0040006f          	j	300 <test_5>

0000000000000300 <test_5>:
 300:	00500e13          	li	t3,5
 304:	00001517          	auipc	a0,0x1
 308:	d2c50513          	addi	a0,a0,-724 # 1030 <test_5_data>
 30c:	00053007          	fld	ft0,0(a0)
 310:	00853087          	fld	ft1,8(a0)
 314:	01053107          	fld	ft2,16(a0)
 318:	01853683          	ld	a3,24(a0)
 31c:	1a1071d3          	fdiv.d	ft3,ft0,ft1
 320:	e2018553          	fmv.x.d	a0,ft3
 324:	001015f3          	fsflags	a1,zero
 328:	00100613          	li	a2,1
 32c:	26d51c63          	bne	a0,a3,5a4 <fail>
 330:	26c59a63          	bne	a1,a2,5a4 <fail>
 334:	0040006f          	j	338 <test_6>

0000000000000338 <test_6>:
 338:	00600e13          	li	t3,6
 33c:	00001517          	auipc	a0,0x1
 340:	d1450513          	addi	a0,a0,-748 # 1050 <test_6_data>
 344:	00053007          	fld	ft0,0(a0)
 348:	00853087          	fld	ft1,8(a0)
 34c:	01053107          	fld	ft2,16(a0)
 350:	01853683          	ld	a3,24(a0)
 354:	1a1071d3          	fdiv.d	ft3,ft0,ft1
 358:	e2018553          	fmv.x.d	a0,ft3
 35c:	001015f3          	fsflags	a1,zero
 360:	00100613          	li	a2,1
 364:	24d51063          	bne	a0,a3,5a4 <fail>
 368:	22c59e63          	bne	a1,a2,5a4 <fail>
 36c:	0040006f          	j	370 <test_7>

0000000000000370 <test_7>:
 370:	00700e13          	li	t3,7
 374:	00001517          	auipc	a0,0x1
 378:	cfc50513          	addi	a0,a0,-772 # 1070 <test_7_data>
 37c:	00053007          	fld	ft0,0(a0)
 380:	00853087          	fld	ft1,8(a0)
 384:	01053107          	fld	ft2,16(a0)
 388:	01853683          	ld	a3,24(a0)
 38c:	1a1071d3          	fdiv.d	ft3,ft0,ft1
 390:	e2018553          	fmv.x.d	a0,ft3
 394:	001015f3          	fsflags	a1,zero
 398:	00000613          	li	a2,0
 39c:	20d51463          	bne	a0,a3,5a4 <fail>
 3a0:	20c59263          	bne	a1,a2,5a4 <fail>
 3a4:	0040006f          	j	3a8 <test_11>

00000000000003a8 <test_11>:
 3a8:	00b00e13          	li	t3,11
 3ac:	00001517          	auipc	a0,0x1
 3b0:	ce450513          	addi	a0,a0,-796 # 1090 <test_11_data>
 3b4:	00052007          	flw	ft0,0(a0)
 3b8:	00452087          	flw	ft1,4(a0)
 3bc:	00852107          	flw	ft2,8(a0)
 3c0:	00c52683          	lw	a3,12(a0)
 3c4:	580071d3          	fsqrt.s	ft3,ft0
 3c8:	e0018553          	fmv.x.s	a0,ft3
 3cc:	001015f3          	fsflags	a1,zero
 3d0:	00100613          	li	a2,1
 3d4:	1cd51863          	bne	a0,a3,5a4 <fail>
 3d8:	1cc59663          	bne	a1,a2,5a4 <fail>
 3dc:	0040006f          	j	3e0 <test_12>

00000000000003e0 <test_12>:
 3e0:	00c00e13          	li	t3,12
 3e4:	00001517          	auipc	a0,0x1
 3e8:	cbc50513          	addi	a0,a0,-836 # 10a0 <test_12_data>
 3ec:	00052007          	flw	ft0,0(a0)
 3f0:	00452087          	flw	ft1,4(a0)
 3f4:	00852107          	flw	ft2,8(a0)
 3f8:	00c52683          	lw	a3,12(a0)
 3fc:	580071d3          	fsqrt.s	ft3,ft0
 400:	e0018553          	fmv.x.s	a0,ft3
 404:	001015f3          	fsflags	a1,zero
 408:	00000613          	li	a2,0
 40c:	18d51c63          	bne	a0,a3,5a4 <fail>
 410:	18c59a63          	bne	a1,a2,5a4 <fail>
 414:	0040006f          	j	418 <test_13>

0000000000000418 <test_13>:
 418:	00d00e13          	li	t3,13
 41c:	00001517          	auipc	a0,0x1
 420:	c9450513          	addi	a0,a0,-876 # 10b0 <test_13_data>
 424:	00053007          	fld	ft0,0(a0)
 428:	00853087          	fld	ft1,8(a0)
 42c:	01053107          	fld	ft2,16(a0)
 430:	01853683          	ld	a3,24(a0)
 434:	5a0071d3          	fsqrt.d	ft3,ft0
 438:	e2018553          	fmv.x.d	a0,ft3
 43c:	001015f3          	fsflags	a1,zero
 440:	00100613          	li	a2,1
 444:	16d51063          	bne	a0,a3,5a4 <fail>
 448:	14c59e63          	bne	a1,a2,5a4 <fail>
 44c:	0040006f          	j	450 <test_14>

0000000000000450 <test_14>:
 450:	00e00e13          	li	t3,14
 454:	00001517          	auipc	a0,0x1
 458:	c7c50513          	addi	a0,a0,-900 # 10d0 <test_14_data>
 45c:	00053007          	fld	ft0,0(a0)
 460:	00853087          	fld	ft1,8(a0)
 464:	01053107          	fld	ft2,16(a0)
 468:	01853683          	ld	a3,24(a0)
 46c:	5a0071d3          	fsqrt.d	ft3,ft0
 470:	e2018553          	fmv.x.d	a0,ft3
 474:	001015f3          	fsflags	a1,zero
 478:	00000613          	li	a2,0
 47c:	12d51463          	bne	a0,a3,5a4 <fail>
 480:	12c59263          	bne	a1,a2,5a4 <fail>
 484:	0040006f          	j	488 <test_15>

0000000000000488 <test_15>:
 488:	00f00e13          	li	t3,15
 48c:	00001517          	auipc	a0,0x1
 490:	c6450513          	addi	a0,a0,-924 # 10f0 <test_15_data>
 494:	00052007          	flw	ft0,0(a0)
 498:	00452087          	flw	ft1,4(a0)
 49c:	00852107          	flw	ft2,8(a0)
 4a0:	00c52683          	lw	a3,12(a0)
 4a4:	580071d3          	fsqrt.s	ft3,ft0
 4a8:	e0018553          	fmv.x.s	a0,ft3
 4ac:	001015f3          	fsflags	a1,zero
 4b0:	01000613          	li	a2,16
 4b4:	0ed51863          	bne	a0,a3,5a4 <fail>
 4b8:	0ec59663          	bne	a1,a2,5a4 <fail>
 4bc:	0040006f          	j	4c0 <test_16>

00000000000004c0 <test_16>:
 4c0:	01000e13          	li	t3,16
 4c4:	00001517          	auipc	a0,0x1
 4c8:	c4450513          	addi	a0,a0,-956 # 1108 <test_16_data>
 4cc:	00053007          	fld	ft0,0(a0)
 4d0:	00853087          	fld	ft1,8(a0)
 4d4:	01053107          	fld	ft2,16(a0)
 4d8:	01853683          	ld	a3,24(a0)
 4dc:	5a0071d3          	fsqrt.d	ft3,ft0
 4e0:	e2018553          	fmv.x.d	a0,ft3
 4e4:	001015f3          	fsflags	a1,zero
 4e8:	01000613          	li	a2,16
 4ec:	0ad51c63          	bne	a0,a3,5a4 <fail>
 4f0:	0ac59a63          	bne	a1,a2,5a4 <fail>
 4f4:	0040006f          	j	4f8 <test_17>

00000000000004f8 <test_17>:
 4f8:	01100e13          	li	t3,17
 4fc:	00001517          	auipc	a0,0x1
 500:	c2c50513          	addi	a0,a0,-980 # 1128 <test_17_data>
 504:	00052007          	flw	ft0,0(a0)
 508:	00452087          	flw	ft1,4(a0)
 50c:	00852107          	flw	ft2,8(a0)
 510:	00c52683          	lw	a3,12(a0)
 514:	580071d3          	fsqrt.s	ft3,ft0
 518:	e0018553          	fmv.x.s	a0,ft3
 51c:	001015f3          	fsflags	a1,zero
 520:	00100613          	li	a2,1
 524:	08d51063          	bne	a0,a3,5a4 <fail>
 528:	06c59e63          	bne	a1,a2,5a4 <fail>
 52c:	0040006f          	j	530 <test_18>

0000000000000530 <test_18>:
 530:	01200e13          	li	t3,18
 534:	00001517          	auipc	a0,0x1
 538:	c0450513          	addi	a0,a0,-1020 # 1138 <test_18_data>
 53c:	00053007          	fld	ft0,0(a0)
 540:	00853087          	fld	ft1,8(a0)
 544:	01053107          	fld	ft2,16(a0)
 548:	01853683          	ld	a3,24(a0)
 54c:	5a0071d3          	fsqrt.d	ft3,ft0
 550:	e2018553          	fmv.x.d	a0,ft3
 554:	001015f3          	fsflags	a1,zero
 558:	00100613          	li	a2,1
 55c:	04d51463          	bne	a0,a3,5a4 <fail>
 560:	04c59263          	bne	a1,a2,5a4 <fail>
 564:	0040006f          	j	568 <test_19>

0000000000000568 <test_19>:
 568:	01300e13          	li	t3,19
 56c:	00001517          	auipc	a0,0x1
 570:	bec50513          	addi	a0,a0,-1044 # 1158 <test_19_data>
 574:	00053007          	fld	ft0,0(a0)
 578:	00853087          	fld	ft1,8(a0)
 57c:	01053107          	fld	ft2,16(a0)
 580:	01853683          	ld	a3,24(a0)
 584:	5a0071d3          	fsqrt.d	ft3,ft0
 588:	e2018553          	fmv.x.d	a0,ft3
 58c:	001015f3          	fsflags	a1,zero
 590:	00100613          	li	a2,1
 594:	00d51863          	bne	a0,a3,5a4 <fail>
 598:	00c59663          	bne	a1,a2,5a4 <fail>
 59c:	0040006f          	j	5a0 <test_19+0x38>
 5a0:	01c01c63          	bne	zero,t3,5b8 <pass>

00000000000005a4 <fail>:
 5a4:	0ff0000f          	fence
 5a8:	000e0063          	beqz	t3,5a8 <fail+0x4>
 5ac:	001e1e13          	slli	t3,t3,0x1
 5b0:	001e6e13          	ori	t3,t3,1
 5b4:	0100006f          	j	5c4 <ecall>

00000000000005b8 <pass>:
 5b8:	0ff0000f          	fence
 5bc:	00100e13          	li	t3,1
 5c0:	0040006f          	j	5c4 <ecall>

00000000000005c4 <ecall>:
 5c4:	00000073          	ecall
 5c8:	ffdff06f          	j	5c4 <ecall>

Disassembly of section .data:

0000000000001000 <test_2_data>:
    1000:	40490fdb          	custom2	31,18,4,32
    1004:	f854                	sd	a3,176(s0)
    1006:	402d                	0x402d
    1008:	0000                	unimp
    100a:	0000                	unimp
    100c:	eee0                	sd	s0,216(a3)
    100e:	40003f93          	sltiu	t6,zero,1024

0000000000001010 <test_3_data>:
    1010:	4000                	lw	s0,0(s0)
    1012:	c49a                	sw	t1,72(sp)
    1014:	449a6333          	0x449a6333
    1018:	0000                	unimp
    101a:	0000                	unimp
    101c:	c5a2                	sw	s0,200(sp)
    101e:	bf7f                	0xbf7f

0000000000001020 <test_4_data>:
    1020:	40490fdb          	custom2	31,18,4,32
    1024:	0000                	unimp
    1026:	3f80                	fld	fs0,56(a5)
    1028:	0000                	unimp
    102a:	0000                	unimp
    102c:	40490fdb          	custom2	31,18,4,32

0000000000001030 <test_5_data>:
    1030:	d4f1                	beqz	s1,ffc <ecall+0xa38>
    1032:	53c8                	lw	a0,36(a5)
    1034:	400921fb          	custom3	3,s2,0,32
    1038:	b0dd                	j	91e <ecall+0x35a>
    103a:	89f1                	andi	a1,a1,28
    103c:	bf0a                	fsd	ft2,440(sp)
    103e:	4005                	0x4005
    1040:	0000                	unimp
    1042:	0000                	unimp
    1044:	0000                	unimp
    1046:	0000                	unimp
    1048:	83ec                	0x83ec
    104a:	7ddbf6c3          	0x7ddbf6c3
    104e:	3ff2                	fld	ft11,312(sp)

0000000000001050 <test_6_data>:
    1050:	0000                	unimp
    1052:	0000                	unimp
    1054:	4800                	lw	s0,16(s0)
    1056:	6666c093          	xori	ra,a3,1638
    105a:	6666                	ld	a2,88(sp)
    105c:	4c66                	lw	s8,88(sp)
    105e:	00004093          	xori	ra,zero,0
    1062:	0000                	unimp
    1064:	0000                	unimp
    1066:	0000                	unimp
    1068:	29a5                	addiw	s3,s3,9
    106a:	3e19                	addiw	t3,t3,-26
    106c:	f8b4                	sd	a3,112(s1)
    106e:	d4f1bfef          	jal	t6,fffffffffff1cdbc <_end+0xfffffffffff1bc3c>

0000000000001070 <test_7_data>:
    1070:	d4f1                	beqz	s1,103c <test_5_data+0xc>
    1072:	53c8                	lw	a0,36(a5)
    1074:	400921fb          	custom3	3,s2,0,32
    1078:	0000                	unimp
    107a:	0000                	unimp
    107c:	0000                	unimp
    107e:	3ff0                	fld	fa2,248(a5)
    1080:	0000                	unimp
    1082:	0000                	unimp
    1084:	0000                	unimp
    1086:	0000                	unimp
    1088:	d4f1                	beqz	s1,1054 <test_6_data+0x4>
    108a:	53c8                	lw	a0,36(a5)
    108c:	400921fb          	custom3	3,s2,0,32

0000000000001090 <test_11_data>:
    1090:	40490fdb          	custom2	31,18,4,32
    1094:	0000                	unimp
    1096:	0000                	unimp
    1098:	0000                	unimp
    109a:	0000                	unimp
    109c:	dfc5                	beqz	a5,1054 <test_6_data+0x4>
    109e:	3fe2                	fld	ft11,56(sp)

00000000000010a0 <test_12_data>:
    10a0:	4000                	lw	s0,0(s0)
    10a2:	461c                	lw	a5,8(a2)
    10a4:	0000                	unimp
    10a6:	0000                	unimp
    10a8:	0000                	unimp
    10aa:	0000                	unimp
    10ac:	0000                	unimp
    10ae:	42c8                	lw	a0,4(a3)

00000000000010b0 <test_13_data>:
    10b0:	d4f1                	beqz	s1,107c <test_7_data+0xc>
    10b2:	53c8                	lw	a0,36(a5)
    10b4:	400921fb          	custom3	3,s2,0,32
    10b8:	0000                	unimp
    10ba:	0000                	unimp
    10bc:	0000                	unimp
    10be:	0000                	unimp
    10c0:	0000                	unimp
    10c2:	0000                	unimp
    10c4:	0000                	unimp
    10c6:	0000                	unimp
    10c8:	916f587b          	0x916f587b
    10cc:	5bf8                	lw	a4,116(a5)
    10ce:	3ffc                	fld	fa5,248(a5)

00000000000010d0 <test_14_data>:
    10d0:	0000                	unimp
    10d2:	0000                	unimp
    10d4:	8800                	0x8800
    10d6:	000040c3          	fmadd.s	ft1,ft0,ft0,ft0,rmm
    10da:	0000                	unimp
    10dc:	0000                	unimp
    10de:	0000                	unimp
    10e0:	0000                	unimp
    10e2:	0000                	unimp
    10e4:	0000                	unimp
    10e6:	0000                	unimp
    10e8:	0000                	unimp
    10ea:	0000                	unimp
    10ec:	0000                	unimp
    10ee:	4059                	0x4059

00000000000010f0 <test_15_data>:
    10f0:	0000                	unimp
    10f2:	bf80                	fsd	fs0,56(a5)
    10f4:	0000                	unimp
    10f6:	0000                	unimp
    10f8:	0000                	unimp
    10fa:	0000                	unimp
    10fc:	0000                	unimp
    10fe:	7fc0                	ld	s0,184(a5)
    1100:	0000                	unimp
    1102:	0000                	unimp
    1104:	0000                	unimp
    1106:	0000                	unimp

0000000000001108 <test_16_data>:
    1108:	0000                	unimp
    110a:	0000                	unimp
    110c:	0000                	unimp
    110e:	bff0                	fsd	fa2,248(a5)
    1110:	0000                	unimp
    1112:	0000                	unimp
    1114:	0000                	unimp
    1116:	0000                	unimp
    1118:	0000                	unimp
    111a:	0000                	unimp
    111c:	0000                	unimp
    111e:	0000                	unimp
    1120:	0000                	unimp
    1122:	0000                	unimp
    1124:	0000                	unimp
    1126:	7ff8                	ld	a4,248(a5)

0000000000001128 <test_17_data>:
    1128:	0000                	unimp
    112a:	0000432b          	custom1	t1,0,0,0
    112e:	0000                	unimp
    1130:	0000                	unimp
    1132:	0000                	unimp
    1134:	3a26                	fld	fs4,104(sp)
    1136:	4151                	li	sp,20

0000000000001138 <test_18_data>:
    1138:	0000                	unimp
    113a:	0000                	unimp
    113c:	6000                	ld	s0,0(s0)
    113e:	4065                	0x4065
    1140:	0000                	unimp
    1142:	0000                	unimp
    1144:	0000                	unimp
    1146:	0000                	unimp
    1148:	0000                	unimp
    114a:	0000                	unimp
    114c:	0000                	unimp
    114e:	0000                	unimp
    1150:	74f5                	lui	s1,0xffffd
    1152:	ce96                	sw	t0,92(sp)
    1154:	2744                	fld	fs1,136(a4)
    1156:	402a                	0x402a

0000000000001158 <test_19_data>:
    1158:	a105                	j	1578 <_end+0x3f8>
    115a:	c70a                	sw	sp,140(sp)
    115c:	94df 3e85 0000      	0x3e8594df
    1162:	0000                	unimp
    1164:	0000                	unimp
    1166:	0000                	unimp
    1168:	0000                	unimp
    116a:	0000                	unimp
    116c:	0000                	unimp
    116e:	0000                	unimp
    1170:	7f99                	lui	t6,0xfffe6
    1172:	4789c0e3          	blt	s3,s8,1dd2 <_end+0xc52>
    1176:	3f3a                	fld	ft10,424(sp)
    1178:	0000                	unimp
    117a:	0000                	unimp
    117c:	0000                	unimp
    117e:	0000                	unimp
